(dp0
S'PUBLISHERS'
p1
(I0
S'MD'
p2
tp3
sS'AUTOMOBILEBODYREPAIRERS'
p4
(I0
S'80'
p5
tp6
sS'*FRAMES-PICTUREANDMIRROR'
p7
(I0
g5
tp8
sS'"CLOTHINGMFRS-MEN\'SANDBOYS\'"'
p9
(I0
g5
tp10
sS'OPTOMETRISTS-CONTD'
p11
(I0
S'LUGGAGE'
p12
tp13
sS'PHYSICIANSANDSURGEONS-M.D.'
p14
(I0
g5
tp15
sS'RESEARCH'
p16
(I0
g2
tp17
sS'MOTORCYCLEDEALERS'
p18
(I0
S'ING'
p19
tp20
sS'TILEMFRS-BUILDING'
p21
(I0
S'WATCH'
p22
tp23
sS'MUSICANDMUSICALINSTRUMENTDEALERS'
p24
(I0
g5
tp25
sS'MONASTERIES'
p26
(I0
S'UG'
p27
tp28
sS'(ACCOUSTICALPRODUCTS&'
p29
(I0
S'*0xyge'
p30
tp31
sS'AUTOMOBILEWASHINGANDPOLISHING'
p32
(I0
g5
tp33
sS'ENGINEERS-ELECTRICAL'
p34
(I0
g2
tp35
sS'CONCRETEANDLIGHTWEIGHTBLOCKMFRS'
p36
(I0
g5
tp37
sS'APARTMENTSANDTOWNHOUS.CONTD'
p38
(I0
S'ii'
p39
tp40
sS'ADVERTISINGREPRESENTATIVES-NEWSPAPERANDMAGAZINE'
p41
(I0
g5
tp42
sS'*ATTORNEYS'
p43
(I0
g2
tp44
sS'*PUBLICUTILITYCOMPANIES'
p45
(I0
g5
tp46
sS'ENGRAVERS-TEXTILE'
p47
(I0
g2
tp48
sS'SECRETARIALSERVICE'
p49
(I0
g2
tp50
sS'FURNITUREFINISHERS'
p51
(I0
g2
tp52
sS'MANUFACTURERSREPRESENTATIV.'
p53
(I0
S'Old Gold'
p54
tp55
sS'TELEVISIONSETS-SALESANDSERVICE'
p56
(I0
g27
tp57
sS'DATAPROCSINGSYSTEMS,EQUIPMENTAND;SUPPLIES'
p58
(I0
g5
tp59
sS'BEDDINGMFRS'
p60
(I0
S'PLATE'
p61
tp62
sS'SEWINGMACHINEDEALERSANDREPAIRERS'
p63
(I0
g5
tp64
sS'DANCEHALLSANDPAVILIONS'
p65
(I0
g27
tp66
sS'BRICKMFRS'
p67
(I0
g61
tp68
sS'ARTGALLERIES'
p69
(I0
g2
tp70
sS'SPRAYERS'
p71
(I0
g2
tp72
sS'BLACKSMITHS'
p73
(I0
S'wood av'
p74
tp75
sS'"CONTRACTORS\'SUPPLIESANDEQUIPMENT-RENTAL"'
p76
(I0
g5
tp77
sS'NEWSSERVICEBUREAUS'
p78
(I0
g2
tp79
sS'PACKINGHOUSEBY-PRODUCTS'
p80
(I0
g5
tp81
sS'DISPLAYDESIGNERSANDMANUFACTURERS'
p82
(I0
g5
tp83
sS'LAWYERS'
p84
(I0
g2
tp85
sS'KENNELS'
p86
(I0
g2
tp87
sS'REBTAURANTS-CONTD'
p88
(I0
g39
tp89
sS'BUFFINGANDPOLISHING'
p90
(I0
S'- ter'
p91
tp92
sS'TELEPHONE'
p93
(I0
g2
tp94
sS'SMELTERSANDREFINERS'
p95
(I0
g27
tp96
sS'PRINTINGPRESSMFRS'
p97
(I0
g74
tp98
sS'SOLDERANDSOLDERINGFLUXMFRS'
p99
(I0
g5
tp100
sS'STEELANDSTEELPRODUCTS-DEALERS'
p101
(I0
g39
tp102
sS'"PHYSICIANS\'ANDHOSPITALSUPPLIES-DEALERS"'
p103
(I0
S'MFG'
p104
tp105
sS'TELEPHONEANSWERINGSERVICE'
p106
(I0
g2
tp107
sS'MEATS-WHOLEALE'
p108
(I0
g19
tp109
sS'*SKIPTRACING'
p110
(I0
g2
tp111
sS'&LOANASSOCIATIONOFPROVIDENCELOCATION'
p112
(I0
g27
tp113
sS'VACUUMCLEANERDEALERSANDREPAIRERS'
p114
(I0
g5
tp115
sS'AUTOMOBILEWRECKINGANDSALVAGE'
p116
(I0
g5
tp117
sS'FURCLEANERSANDDYERS'
p118
(I0
g39
tp119
sS'AUTOMOBILEDEALERS-USEDCARS'
p120
(I0
g5
tp121
sS'TOYSANDGAMES-RETAIL'
p122
(I0
g5
tp123
sS'PRINTERS-BOOKANDCOMMERCIALCONTD'
p124
(I0
g27
tp125
sS'PLYWOODMFRSANDDISTRIBUTORS'
p126
(I0
g30
tp127
sS'AIRFREIGHTANDEXPRESS'
p128
(I0
g5
tp129
sS'CONTRACTORS-BUILDING-GENERAL'
p130
(I0
g5
tp131
sS'CARPETS,BUGSANDFLOORCOVERINGS-WHOL'
p132
(I0
g5
tp133
sS'"FISHERMEN\'SSUPPLIES"'
p134
(I0
g74
tp135
sS'*PARTITIONS'
p136
(I0
g2
tp137
sS'CONTRACTORS-ASPHALT'
p138
(I0
g2
tp139
sS'AUTOMOBILEACCESSORIESANDPARTS-MFRS'
p140
(I0
g5
tp141
sS'PETSHOPSANDSUPPLIES'
p142
(I0
g104
tp143
sS'TOILETARTICLESANDSUPPLIES'
p144
(I0
g104
tp145
sS'GASOLINESTATIONS'
p146
(I0
g2
tp147
sS'SAWMFRS'
p148
(I0
g19
tp149
sS'CHIROPRACTORS'
p150
(I0
g2
tp151
sS'LAUNDRIESANDDRYCLEANERS'
p152
(I0
g104
tp153
sS'D-IGNERS-OONTD'
p154
(I0
S'PUBLIC'
p155
tp156
sS'TIREDEALERSANDREPAIRING'
p157
(I0
g5
tp158
sS'ARTISTS-COMMERCIAL'
p159
(I0
g27
tp160
sS'CONFECTIONERY-WHOL'
p161
(I0
g2
tp162
sS'FIREPROTECTIONSERVICE'
p163
(I0
g2
tp164
sS'"THEATRICALSUPPLI\'ANDEQUIPMENT"'
p165
(I0
g5
tp166
sS'*WHEELCHAIRS'
p167
(I0
g2
tp168
sS'REALESTATE'
p169
(I0
g2
tp170
sS'STENOGRAPHERS-PUBLIC'
p171
(I0
g2
tp172
sS'DRAFTSMEN'
p173
(I0
g155
tp174
sS'TRUCKS-REPAIRING'
p175
(I0
g2
tp176
sS'GAUGEMFRS'
p177
(I0
S'INC'
p178
tp179
sS'*WOODWORKERS'
p180
(I0
g19
tp181
sS'*BANKS-SAVINGS'
p182
(I0
g2
tp183
sS'PLUMBINGFIXTURESANDSUPPLIES-DEALERS'
p184
(I0
g5
tp185
sS'AUTOMOBILEREPAIRING-CONTD'
p186
(I0
g5
tp187
sS'GUNSANDGUNSMITHS'
p188
(I0
g5
tp189
sS'MAUSOLEUMS'
p190
(I0
g19
tp191
sS'CABLETELEVISION'
p192
(I0
g2
tp193
sS'ARTSANDCRAFTSWORK'
p194
(I0
g27
tp195
sS'DISPLAYFORMSANDFIXTURES'
p196
(I0
g5
tp197
sS'NUTS-EDIBLE-DEALERS'
p198
(I0
g104
tp199
sS'ADVERTISING-WINDOWDISPLAY'
p200
(I0
g5
tp201
sS'CONTRACTORS-EXCAVATINGANDGRADING'
p202
(I0
g5
tp203
sS'CLINICS-CONTD'
p204
(I0
S'PAUL'
p205
tp206
sS'CAMERAS-DEALERSANDREPAIRING'
p207
(I0
g5
tp208
sS'PAPERPRODUCTSMFRS'
p209
(I0
g19
tp210
sS'MONUMENTS,MARKERSANDSTATUARY'
p211
(I0
g39
tp212
sS'TRUCKING'
p213
(I0
g2
tp214
sS'BOARDINGHOUSES'
p215
(I0
g5
tp216
sS'REALESTATE-CONTD'
p217
(I0
S'Pump Mfrs'
p218
tp219
sS'"JOSEPH\'SHOSPITALOURLADYOFPROVIDENCEUNITOFST"'
p220
(I0
g5
tp221
sS'WIREANDIRONWORK'
p222
(I0
S'Clubs'
p223
tp224
sS'CUTLERY-RETAIL'
p225
(I0
g2
tp226
sS'*POLITICALORGANIZATIONS'
p227
(I0
g2
tp228
sS'WRAPPINGSERVICE-PACKAGE'
p229
(I0
g2
tp230
sS'ORGANIZATIONS-BUSINESS,CIVICANDPROFESSIONAL'
p231
(I0
g5
tp232
sS'*UNDERTAKERS'
p233
(I0
g39
tp234
sS'DISTRIBUTORS-ADVERTISINGMATTER'
p235
(I0
g5
tp236
sS'FURNITUREMFRS'
p237
(I0
g54
tp238
sS'*PLUMBINGCONTRACTORS7'
p239
(I0
g5
tp240
sS'TAILORS-CONTRACTING'
p241
(I0
g2
tp242
sS'*WALLBOARDANDPLASTERBOARD'
p243
(I0
g27
tp244
sS'CONTRACTORS-SEWERANDDRAIN'
p245
(I0
g27
tp246
sS'SEEDS-WHOL'
p247
(I0
S'TRUCKING'
p248
tp249
sS'RESTAURANTS-CONTD'
p250
(I0
g39
tp251
sS'MODELAGENCIES'
p252
(I0
g5
tp253
sS'EXPRESSCOMPANIES'
p254
(I0
g27
tp255
sS'HARDWARE-RETAIL'
p256
(I0
S'48 Snow'
p257
tp258
sS'CREDITUNIONS'
p259
(I0
S'AV'
p260
tp261
sS'MEATS-RETAII.'
p262
(I0
g54
tp263
sS'ENGRAVERS-PHOTO'
p264
(I0
g2
tp265
sS'PAPERDEALERS-CONTD'
p266
(I0
g27
tp267
sS'STAMPINGWORKSANDDIECUTTERS'
p268
(I0
g5
tp269
sS'OILANDGASEXPLORATIONANDDEVELOPMENT'
p270
(I0
g5
tp271
sS'ORGANIZATIONS-BENEVOLENTANDFRATERNAL'
p272
(I0
g5
tp273
sS'BOATCHARTERINGANDRENTINGSERVICE'
p274
(I0
g5
tp275
sS'*AUTOMOBILECUSTOMIZING'
p276
(I0
g5
tp277
sS'CLUBS'
p278
(I0
g2
tp279
sS'IMPORTERS'
p280
(I0
S'BUILDING'
p281
tp282
sS'ARTIFICIALFLOWERSANDFRUITMFRS'
p283
(I0
g5
tp284
sS'CONTRACTORS-PLASTERING'
p285
(I0
g2
tp286
sS'LABORATORYAPPARATUSANDSUPPLIES'
p287
(I0
g104
tp288
sS'HATANDCAPDEALERS-RETAIL'
p289
(I0
g27
tp290
sS'BILLIARDROOMSANDCLUBS'
p291
(I0
g30
tp292
sS'TANKLINING'
p293
(I0
g2
tp294
sS'GROCERIESANDMEATS-RETAILCONTD'
p295
(I0
g27
tp296
sS'AUTOMOBILEREPAIRING'
p297
(I0
g5
tp298
sS'STEAMBOATLINES'
p299
(I0
g27
tp300
sS'*UNIFORMDEALERS'
p301
(I0
g5
tp302
sS'TRUCKS-LEASINGANDRENTALS'
p303
(I0
g5
tp304
sS'OPTICALGOODSMFRS'
p305
(I0
g5
tp306
sS'*FURRIERS'
p307
(I0
g2
tp308
sS'YARNS-RETAIL'
p309
(I0
g2
tp310
sS'CLAIMAGENTS'
p311
(I0
g155
tp312
sS'CELLULOSEPRODUCTS'
p313
(I0
g19
tp314
sS'BLUEPRINTS'
p315
(I0
g2
tp316
sS'CHEMICALMFRS'
p317
(I0
g27
tp318
sS'NURSERYMEN'
p319
(I0
S'HALLS'
p320
tp321
sS'ADVERTISING-DIRECTMAIL'
p322
(I0
g5
tp323
sS'OILPRODUCERSANDSHIPPERS'
p324
(I0
g104
tp325
sS'RIGGERS'
p326
(I0
g2
tp327
sS'NOVELTIES-MFRS'
p328
(I0
g27
tp329
sS'*PETGROOMING'
p330
(I0
g223
tp331
sS'BAGMFRS'
p332
(I0
g178
tp333
sS'WOOLCOMBERS'
p334
(I0
g19
tp335
sS'ICECREAMMFRS'
p336
(I0
g155
tp337
sS'INSURANCE-MARINE-CONTDGAMMONSJOHNAINC-CONTD'
p338
(I0
g5
tp339
sS'GLAZIERS'
p340
(I0
g2
tp341
sS'ESCORTSERVICE'
p342
(I0
g2
tp343
sS'HEATTREATING'
p344
(I0
g223
tp345
sS'HEALTHFOODS-DEALERS'
p346
(I0
g19
tp347
sS'NOVELTIES-RETAIL'
p348
(I0
g2
tp349
sS'SHOPPINGCENTERS'
p350
(I0
g2
tp351
sS'LEATHERGOODS-RETAIL'
p352
(I0
g5
tp353
sS'CONTRACTORS-WRECKING'
p354
(I0
g2
tp355
sS'TYPEWRITERREPAIRING'
p356
(I0
g223
tp357
sS'BEVERAGEMFRS'
p358
(I0
g178
tp359
sS'MEASURES-LINEALANDFLUID-MFRS'
p360
(I0
g5
tp361
sS'MERCANTILEAGENCIES'
p362
(I0
g5
tp363
sS'FURNISHEDROOMS-CONTD'
p364
(I0
g205
tp365
sS'NOVELTIES-WHOL'
p366
(I0
g2
tp367
sS'PUMPMFRSANDDISTRIBUTORS'
p368
(I0
g30
tp369
sS'TAVERNS'
p370
(I0
g2
tp371
sS'"\'MILLSUPPLIES"'
p372
(I0
g22
tp373
sS'FUNERALDIRECTORS'
p374
(I0
g104
tp375
sS'*PHOTOCOPYING'
p376
(I0
S'Barbers'
p377
tp378
sS'PLASTICPRODUCTS-RETAIL'
p379
(I0
g104
tp380
sS'RESTHOMES'
p381
(I0
g19
tp382
sS'*STEREOPHONICANDHIGHFIDELITYSOUNDEQUIPMENT'
p383
(I0
g5
tp384
sS'DELIVERYSERVICE'
p385
(I0
g2
tp386
sS'CLUBS-CONTD'
p387
(I0
S'AIR'
p388
tp389
sS'CONSULTANTS-CONTD'
p390
(I0
g39
tp391
sS'BELTINGMFRS'
p392
(I0
g205
tp393
sS'RADIOPROGRAMPRODUCERS'
p394
(I0
g5
tp395
sS'CONTRACTORS-DRYWALL'
p396
(I0
S'EQUIPMENT'
p397
tp398
sS'LOANS-AUTOMOBILE'
p399
(I0
g5
tp400
sS'COMMUNITYCENTERS'
p401
(I0
g260
tp402
sS'POLISHMFRS'
p403
(I0
g27
tp404
sS'NEWSDEALERS-WHOLESALE'
p405
(I0
g19
tp406
sS'WIREGOODSMFRS'
p407
(I0
g155
tp408
sS'CARPETANDRUGCLEANERS'
p409
(I0
g39
tp410
sS'AUDIO-VISUALAIDS.'
p411
(I0
S'T ENN'
p412
tp413
sS'ICE-MFRSANDWHOL'
p414
(I0
g27
tp415
sS'FURNISHEDROOMS'
p416
(I0
g205
tp417
sS'WAREHOUSEEQUIPMENTANDSUPPLIES'
p418
(I0
g5
tp419
sS'TYPESETTING'
p420
(I0
g2
tp421
sS'LETTERSHOPS'
p422
(I0
g2
tp423
sS'*EPOXYPRODUCTS'
p424
(I0
g19
tp425
sS'CLOTHING-RENTAL'
p426
(I0
g2
tp427
sS'PIANOTUNERSANDREPAIRERS'
p428
(I0
g104
tp429
sS'LANDCOMPANIES'
p430
(I0
g27
tp431
sS'CONTRACTORS-HEATING'
p432
(I0
g2
tp433
sS'ADVERTISINGAGENCIES'
p434
(I0
g5
tp435
sS'PILOTS-MARINE'
p436
(I0
g27
tp437
sS'NURSINGHOMES'
p438
(I0
g205
tp439
sS'COLDSTORAGEWAREHOUSES'
p440
(I0
g178
tp441
sS'CONTRACTORS-AIRCONDITIONING'
p442
(I0
g5
tp443
sS'AUTOMOBILEPAINTERS'
p444
(I0
g5
tp445
sS'ORIENTALGOODS'
p446
(I0
g5
tp447
sS'"SCHOOISANDCOLLEGL\'B-CONTD"'
p448
(I0
g218
tp449
sS'PHARMACIES'
p450
(I0
g54
tp451
sS'STORMDOORSANDWINDOWS'
p452
(I0
g27
tp453
sS'RADIOSUPPLIES-WHOLESALE'
p454
(I0
g104
tp455
sS'AUTOMOBILEDEALERS-CONTD'
p456
(I0
g5
tp457
sS'AIRCONDITIONINGEQUIPMENTANDSUPPLIES-SALESANDSERVICE'
p458
(I0
g5
tp459
sS'SALVAGECOMPANIES'
p460
(I0
g5
tp461
sS'"RAILROADPASSENGER\'STATIONS"'
p462
(I0
g5
tp463
sS'PARKSANDPLAYGROUNDS'
p464
(I0
g39
tp465
sS'PATENTATTORNEYS'
p466
(I0
g2
tp467
sS'SOCIALSERVICEAGENCIES'
p468
(I0
g2
tp469
sS'CABINETMAKERS'
p470
(I0
g54
tp471
sS'CASKETMFRS'
p472
(I0
g19
tp473
sS'TAPES,BINDINGSANDNARROWFABRICS-MFRS'
p474
(I0
g5
tp475
sS'MACHINERYDEALERS'
p476
(I0
g27
tp477
sS'HOUSEANDBUILDING'
p478
(I0
S'*Rooms'
p479
tp480
sS'DIEMAKERS'
p481
(I0
g155
tp482
sS'COURTHOUSE)'
p483
(I0
g2
tp484
sS'POULTRYDEALERS-WHOL'
p485
(I0
g19
tp486
sS'SOUNDSYSTEMSANDEQUIPMENT'
p487
(I0
g5
tp488
sS'"SCREWMACHINEPRODUCI\'S-CONTD"'
p489
(I0
g5
tp490
sS'LUMBER-RETAIL'
p491
(I0
g257
tp492
sS'LOCKSMITHS'
p493
(I0
g205
tp494
sS'BUSLINW'
p495
(I0
g2
tp496
sS'CONFECTIONERS-MFG'
p497
(I0
g205
tp498
sS'ORGANIZATIONS-PATRIOTICANDVETERANS'
p499
(I0
g5
tp500
sS'ADVERTISINGSPECIALTIES'
p501
(I0
g5
tp502
sS'CLOTHING-RETAIL'
p503
(I0
g2
tp504
sS'PLASTICPRODUCTS-MFRS'
p505
(I0
g30
tp506
sS'RUBBERPRODUCTS-RETAIL'
p507
(I0
g104
tp508
sS'"\'GREETINGCARDS"'
p509
(I0
g5
tp510
sS'BAKERS-RETAIL'
p511
(I0
g2
tp512
sS'PESTCONTROL'
p513
(I0
g2
tp514
sS'RETAURANTS-CONTD'
p515
(I0
g39
tp516
sS'STEAMFITTERS'
p517
(I0
g54
tp518
sS'TEXTILEMFRS'
p519
(I0
g74
tp520
sS'CONTD'
p521
(I0
g377
tp522
sS'COFFEEROASTERS'
p523
(I0
g2
tp524
sS'BOOKINGAGENTS'
p525
(I0
g2
tp526
sS'MILLINERS'
p527
(I0
g22
tp528
sS'*PAPERBOXMFRS'
p529
(I0
g19
tp530
sS'CONTRACTORS-MASON'
p531
(I0
g27
tp532
sS'LUMBER-WHOL'
p533
(I0
g19
tp534
sS'TICKETAGENCIES'
p535
(I0
g2
tp536
sS'LIBRARIES'
p537
(I0
g2
tp538
sS'AUCTIONEERS\\N\\N*L..'
p539
(I0
g2
tp540
sS'STABLES-TRAINING'
p541
(I0
g2
tp542
sS'"CLOTHINGMFRS-WOMEN\'SANDMISSES\'"'
p543
(I0
g5
tp544
sS'CHURCHEANDSYNAGOGUE-CONTD'
p545
(I0
g39
tp546
sS'HOMEMAINTENANCESERVICE'
p547
(I0
g27
tp548
sS'ARMOREDCARSERVICE'
p549
(I0
g27
tp550
sS'VENETIANBLINDMFRS'
p551
(I0
g27
tp552
sS'OPTICALGOODS-WHOLESALE'
p553
(I0
g5
tp554
sS'CONTRACTORS-FLOORSURFACING'
p555
(I0
g2
tp556
sS'JEWELERS'
p557
(I0
g2
tp558
sS'BOOKBINDERS'
p559
(I0
g205
tp560
sS'HOUSEHOLDAPPLIANCES-MFRS'
p561
(I0
g5
tp562
sS'RADIOEQUIPMENT-SALESANDSERVICE'
p563
(I0
g5
tp564
sS'SPRINKLERSYSTEMS-FIRE'
p565
(I0
g74
tp566
sS'SHOEDEALERS-RETAIL'
p567
(I0
g27
tp568
sS'DRESSMAKERS'
p569
(I0
g19
tp570
sS'SHOEDEALERS-WHOLANDJOBBERS'
p571
(I0
g27
tp572
sS'BICYCLESALESAND,2SERVICE'
p573
(I0
g27
tp574
sS'ARMATURERE-WINDING'
p575
(I0
S'2296. 735 Camp'
p576
tp577
sS'HATCLEANERSANDBLOCKERS'
p578
(I0
g27
tp579
sS'ARTGOODS'
p580
(I0
g178
tp581
sS'SAILMAKERS'
p582
(I0
g27
tp583
sS'LAMPSANDLAMPSHADES-DEALERS'
p584
(I0
g27
tp585
sS'MANUFACTURERSREPRHENTATIVCONTD'
p586
(I0
g5
tp587
sS'FLORISTS-RETAIL'
p588
(I0
g2
tp589
sS'DELICATESSEN'
p590
(I0
g2
tp591
sS'BEAUTYSHOPSUPPLIES'
p592
(I0
g2
tp593
sS'AUTHORSANDCOMPOSERS'
p594
(I0
g39
tp595
sS'WALLPAPER-WHOL'
p596
(I0
g2
tp597
sS'SAFETYDEVICESANDEQUIPMENT'
p598
(I0
g5
tp599
sS'BANKSANDTRUSTCOMPANIES'
p600
(I0
g5
tp601
sS'BOLTANDNUTMFRSANDDISTRIBUTORS,'
p602
(I0
g30
tp603
sS'MOBILETELEPHONESERVICE'
p604
(I0
g27
tp605
sS'PHOTOGRAPHERS'
p606
(I0
g2
tp607
sS'PATTERNMAKERS'
p608
(I0
g54
tp609
sS'ELECTRONICEQUIPMENTANDSUPPLIES'
p610
(I0
g5
tp611
sS'DAIRI.'
p612
(I0
g223
tp613
sS'PLATERS'
p614
(I0
g2
tp615
sS'AUTOMOBILEPARKING'
p616
(I0
g5
tp617
sS'*OFFICEEQUIPMENT'
p618
(I0
g320
tp619
sS'ENTERTAINMENTBUREAUS'
p620
(I0
g54
tp621
sS'VETERINARIANS'
p622
(I0
g2
tp623
sS'CONTRACTORS-BUILDING-GENERALCONTD'
p624
(I0
g5
tp625
sS'GOLDBUYERS'
p626
(I0
g19
tp627
sS'DANCINGSCHOOLSANDTEACHERS'
p628
(I0
g5
tp629
sS'CONTRACTORS-ROOFING-CONTD'
p630
(I0
g5
tp631
sS'FUELOIL-CONTD'
p632
(I0
g377
tp633
sS'GYMNASIUMS'
p634
(I0
S'CLERGY'
p635
tp636
sS'BAILBONDS'
p637
(I0
S'AND VEE TYPE'
p638
tp639
sS'SCREWMACHINEPRODUCTS'
p640
(I0
g5
tp641
sS'PRINTERS-BOOKANDCOMMERCIAL'
p642
(I0
g27
tp643
sS'HARDWARE-WHOL'
p644
(I0
g19
tp645
sS'LAWYERS-CONTD'
p646
(I0
g27
tp647
sS'COLUMBARIUMS'
p648
(I0
g412
tp649
sS'SUBSCRIPTIONAGENCIES'
p650
(I0
g2
tp651
sS'NEWSPAPERS-CONTDPROVIDENCEJOURNAL&OPROVLDENCESUNDAYJOURNAL'
p652
(I0
g104
tp653
sS'ENGINEERS-MECHANICAL'
p654
(I0
g5
tp655
sS'WASTE-COTTON,WOOLETC'
p656
(I0
g2
tp657
sS'ADVERTISING-OUTDOOR'
p658
(I0
S'2296, 7 35 Camp'
p659
tp660
sS'RADIOSALESANDSERVICE'
p661
(I0
g27
tp662
sS'ENGINEERS-SANITARY'
p663
(I0
g2
tp664
sS'MATERIALHANDLINGEQUIPMENT'
p665
(I0
g5
tp666
sS'GARDENANDLAWNIMPLEMENTDEALERS'
p667
(I0
g27
tp668
sS'CHEMICALS-WHOL'
p669
(I0
g27
tp670
sS'HOTELANDRESTAURANTSUPPLIESANDEQUIPMENT'
p671
(I0
g5
tp672
sS'*FUELOILBURNERS'
p673
(I0
g2
tp674
sS'"FISHANDSEAFOOD\'DEALERS-WHOLESALE"'
p675
(I0
g27
tp676
sS'BURGLARANDFIREALARMSYSTEMS'
p677
(I0
g5
tp678
sS'TUTORINGSERVICE'
p679
(I0
g2
tp680
sS'GIFTSHOPS'
p681
(I0
S'Clergyme'
p682
tp683
sS'WIREMFRS'
p684
(I0
g155
tp685
sS'"CIGARS\'ANDTOBACCO-RETAIL"'
p686
(I0
g5
tp687
sS'ARTISTS'
p688
(I0
g2
tp689
sS'GROCERS-WHOL'
p690
(I0
g2
tp691
sS'TOWINGCOMPANIES'
p692
(I0
g5
tp693
sS'BANKOFRHODE..ISLANDONETURKSHEADPLACE'
p694
(I0
g5
tp695
sS'PHYSICIANSANDSURGEONS-OSTEOPATHIC'
p696
(I0
g5
tp697
sS'APPRAISERS'
p698
(I0
g2
tp699
sS'INSURANCE'
p700
(I0
g2
tp701
sS'HEARINGAIDS'
p702
(I0
g91
tp703
sS'FINANCIALAGENTS'
p704
(I0
g2
tp705
sS'MUSICTEACHERS'
p706
(I0
g54
tp707
sS'TELEVISIONPROGRAMPRODUCERS'
p708
(I0
g5
tp709
sS'FIREEXTINGUISHERS'
p710
(I0
g2
tp711
sS'CONTRACTORHWIMMINGPOOL'
p712
(I0
g5
tp713
sS'LIGHTINGEQUIPMENTDEALERS'
p714
(I0
g5
tp715
sS'CONTRACTORS-FLOORING'
p716
(I0
g2
tp717
sS'FURNITUREREPAIRING'
p718
(I0
g2
tp719
sS'FRUITBUYERS,PACKERSANDSHIPPERS'
p720
(I0
g104
tp721
sS'DEPARTMENTSTORES'
p722
(I0
g27
tp723
sS'ELECTRICMOTORSAND*GENERATORS-MFRS'
p724
(I0
g5
tp725
sS'LUNCHES-PREPAREDANDSUPPLIED'
p726
(I0
g104
tp727
sS'ORGANIZATIONS-MISCELLANEOUS'
p728
(I0
g5
tp729
sS'RESTAURANTS'
p730
(I0
g2
tp731
sS'*MAILADVERTISING'
p732
(I0
g5
tp733
sS'*WATERPROOFINGCONTRACTORS'
p734
(I0
g2
tp735
sS'DETECTIVEAGENCIES'
p736
(I0
g2
tp737
sS'RADIOSALEANDSERVICE-CONTD'
p738
(I0
g27
tp739
sS'INVESTMENTCOUNSEL'
p740
(I0
g388
tp741
sS'PIPELINEEQUIPMENT'
p742
(I0
S'*Bars'
p743
tp744
sS'AUTOMOBILEACCESSORIESANDPARTS-WHOLESALEANDJOBBERS'
p745
(I0
g5
tp746
sS'*EXTERMINATORS-BUGANDVERMIN'
p747
(I0
g5
tp748
sS'BATTERYDEALERSAND'
p749
(I0
g27
tp750
sS'*INSURANCE-MARINE'
p751
(I0
g54
tp752
sS'VENETIANBLINDCLEANERSANDREPAIRERS'
p753
(I0
g27
tp754
sS'SHOPPINGSERVICE'
p755
(I0
g2
tp756
sS'INSURANCEAGENTS-CONTD'
p757
(I0
g5
tp758
sS'DAIRYBARS'
p759
(I0
g2
tp760
sS'OPTOMETRISTS'
p761
(I0
g27
tp762
sS'HOMESANDSANITARIUMS-CONTD'
p763
(I0
g30
tp764
sS'ARCHITECTS'
p765
(I0
g2
tp766
sS'SPORTINGGOODS-RETAIL'
p767
(I0
g5
tp768
sS'DRUGGISTS-RETAIL'
p769
(I0
g2
tp770
sS'SCULPTORS'
p771
(I0
g2
tp772
sS'BROKERS-CUSTOMHOUSE'
p773
(I0
g19
tp774
sS'RPSTAURANTS-CONTD'
p775
(I0
g39
tp776
sS'BEAUTYSHOPS-CONTD'
p777
(I0
g39
tp778
sS'*TRUSSDEALERS'
p779
(I0
g19
tp780
sS'METALDEALERS'
p781
(I0
g19
tp782
sS'GENERALMERCHANDISE-USED'
p783
(I0
g5
tp784
sS'"FUNERALDIRECTORS\'SUPPLIES"'
p785
(I0
g5
tp786
sS'VENDINGMACHINES'
p787
(I0
g5
tp788
sS'PAINT-RETAIL'
p789
(I0
g2
tp790
sS'LADDERMFRS'
p791
(I0
g19
tp792
sS'WATERCOOLERSANDFILTERS'
p793
(I0
g27
tp794
sS'BUILDINGS-OFFICEANDPUBLICCONTD'
p795
(I0
g5
tp796
sS'EGGDEALERS-WHOL'
p797
(I0
g178
tp798
sS'COSMETICS'
p799
(I0
g205
tp800
sS'SCALPTREATMENTS'
p801
(I0
g27
tp802
sS'PSYCHOLOGISTS'
p803
(I0
g2
tp804
sS'JEWELERS-MFG-CONTD'
p805
(I0
g39
tp806
sS'SWIMMINGPOOLS'
p807
(I0
g91
tp808
sS'PAINT-WHOLESALE'
p809
(I0
g2
tp810
sS'EQUIPMENT'
p811
(I0
g320
tp812
sS'*PLUMBERS'
p813
(I0
g19
tp814
sS'PHYSICALCULTURE'
p815
(I0
g2
tp816
sS'VIOLINMAKERSANDREPAIRERS'
p817
(I0
g27
tp818
sS'CLEANERSANDDYERS'
p819
(I0
g155
tp820
sS'OPTICIANS'
p821
(I0
g2
tp822
sS'CONTRACTORS-TILE'
p823
(I0
g2
tp824
sS'"SIGNPAINTERSAND\'MFRS"'
p825
(I0
g5
tp826
sS'*HARDWARE'
p827
(I0
g223
tp828
sS'MOVERS-HOUSEHOLDGOODS'
p829
(I0
g178
tp830
sS'INTERIORDECORATORSANDDESIGNERS'
p831
(I0
g5
tp832
sS'CONTRACTORS-PAINTINGANDDECORATING-CONTD'
p833
(I0
g5
tp834
sS'DIVINGEQUIPMENT'
p835
(I0
g320
tp836
sS'DATAPROCESSING'
p837
(I0
g2
tp838
sS'INVESTMENTSECURITIES'
p839
(I0
g54
tp840
sS'INVESTMENTBANKERS'
p841
(I0
g54
tp842
sS'FILMLABORATORIES-MOTIONPICTURE'
p843
(I0
g5
tp844
sS'*PLASTICS-MOLDERS'
p845
(I0
g27
tp846
sS'"TRUSTCOMPANI\'"'
p847
(I0
S'JEWELERS'
p848
tp849
sS'CONTRACTORS-PAINTINGANDDECORATING'
p850
(I0
g5
tp851
sS'DENTALSUPPLIESANDEQUIPMENT'
p852
(I0
g5
tp853
sS'FINANCECOMPANIES'
p854
(I0
g27
tp855
sS'SCHOOLS-PAROCHIAL'
p856
(I0
g2
tp857
sS'FRUITDEALERS-RETAIL'
p858
(I0
g104
tp859
sS'AUTOMOBILEDRIVINGINSTRUCTION'
p860
(I0
g5
tp861
sS'INSULATINGMATERIALS'
p862
(I0
g5
tp863
sS'NURSES'
p864
(I0
g2
tp865
sS'AMUSEMENTCOMPANIES'
p866
(I0
g5
tp867
sS'STOREFIXTURESANDFITTINGS'
p868
(I0
g5
tp869
sS'"TOOLS,DI\',JIGSANDFIXTURES"'
p870
(I0
g5
tp871
sS'"WINEMAKERS\'EQUIPMENTANDSUPPLIES*"'
p872
(I0
g5
tp873
sS'POULTRYDEALERS-RETAIL'
p874
(I0
g104
tp875
sS'INVESTMENTCOMPANIES-'
p876
(I0
g27
tp877
sS'"STEAMFITTERS\'SUPPLIES"'
p878
(I0
g74
tp879
sS'CONTRACTORS-PLUMBING'
p880
(I0
g5
tp881
sS'POTTERIES'
p882
(I0
g2
tp883
sS'*INSTALLMENTLOANS'
p884
(I0
g27
tp885
sS'MACHINERYDEALERS-USED'
p886
(I0
g5
tp887
sS'FENCEMFRS'
p888
(I0
g205
tp889
sS'CHINA,CROCKERY,GLASSWAREANDEARTHENWARE'
p890
(I0
g5
tp891
sS'CREMATORIES'
p892
(I0
g27
tp893
sS'PAPERDEALERS'
p894
(I0
g19
tp895
sS'MUTUALFUNDS'
p896
(I0
S'cm ERVICI'
p897
tp898
sS'SLIPCOVERMFRS'
p899
(I0
g27
tp900
sS'*SAVINGSBANKS'
p901
(I0
g2
tp902
sS'AUTOMOBILEDEALERS'
p903
(I0
g5
tp904
sS'STAMPDEALERSANDPHILATELICSUPPLIES'
p905
(I0
g5
tp906
sS'*AUTOMOBILEPARTS'
p907
(I0
g5
tp908
sS'INCCATHEDRALMARS(W)'
p909
(I0
g27
tp910
sS'"TEXTILEMFRS\'SUPPLIESANDEQUIPMENT"'
p911
(I0
g5
tp912
sS'SAWFILERS,SETTERSANDREPAIRERS'
p913
(I0
g27
tp914
sS'*PIZZERIAS'
p915
(I0
g2
tp916
sS'DESIGNERS'
p917
(I0
g2
tp918
sS'BOILERCLEANERSANDREPAIRERS'
p919
(I0
g27
tp920
sS'HOUSEFURNISHINGS-RETAIL'
p921
(I0
g2
tp922
sS'HOUSEHOLDAPPLIANCES-DEALERS'
p923
(I0
g104
tp924
sS'SCHOOLS-PUBLIC.'
p925
(I0
g2
tp926
sS'DRYGOODS-RETAIL'
p927
(I0
g5
tp928
sS'APARTMENTSANDTOWNHOUSES'
p929
(I0
g39
tp930
sS'*ELECTRICALCONTRACTORS'
p931
(I0
g2
tp932
sS'*PAPERDEALERS-PRINT'
p933
(I0
g27
tp934
sS'DAIRYSUPPLIESANDEQUIPMENT-DEALERS'
p935
(I0
g5
tp936
sS'AQUARIUMS-PUBLIC'
p937
(I0
g74
tp938
sS'ORTHOPEDICAPPLIANCES'
p939
(I0
g27
tp940
sS'PAWNBROKERS'
p941
(I0
g2
tp942
sS'CHURCHEANDSYNAGOGUB-CONTD'
p943
(I0
g39
tp944
sS'ANTIQUES-DEALERSANDRESTORERS'
p945
(I0
g104
tp946
sS'SCHOOLS-PRIVATE'
p947
(I0
g2
tp948
sS'BATTERYMFRS'
p949
(I0
g19
tp950
sS'PRINTERS-CONTD'
p951
(I0
g12
tp952
sS'BARRELANDDRUMDEALERS'
p953
(I0
g39
tp954
sS'CHAINMFRS'
p955
(I0
g54
tp956
sS'CONTRACTORS-INSULATING'
p957
(I0
g2
tp958
sS'DAIRYPRODUCTS-WHOL'
p959
(I0
g104
tp960
sS'*POLISHING-METAL'
p961
(I0
g5
tp962
sS'WELDINGANDCUTTINGEQUIPMENTANDSUPPLIES'
p963
(I0
g5
tp964
sS'*TELEPHONEWAKE-UPSERVICE'
p965
(I0
g2
tp966
sS'FOUNDRIES'
p967
(I0
g22
tp968
sS'CONSULTANTS'
p969
(I0
g2
tp970
sS'RENTALAGENTS-CONTD'
p971
(I0
g39
tp972
sS'MACHINERY;MFRS'
p973
(I0
g54
tp974
sS'.TOBACCO-WHOLESALE'
p975
(I0
g2
tp976
sS'FURDEALERSANDFURRIERS'
p977
(I0
g5
tp978
sS'MILKDEALERS'
p979
(I0
g27
tp980
sS'SPRINGMFRS'
p981
(I0
g22
tp982
sS'COLFAXSTCITYLINE'
p983
(I0
g2
tp984
sS'PENANDPENCILMFRS'
p985
(I0
g27
tp986
sS'"DIAMONDSANDPRECIOUSSTON\'"'
p987
(I0
g5
tp988
sS'PLUMBINGFIXTURESANDSUPPLIES-MFRSANDDISTRIBUTORSl'
p989
(I0
g5
tp990
sS'GRANITEANDMARBLEWORKERS'
p991
(I0
g27
tp992
sS'UNDERWRITERS'
p993
(I0
g205
tp994
sS'METALGOODSMFRS'
p995
(I0
g178
tp996
sS'BANDSANDORCHESTRAS'
p997
(I0
g27
tp998
sS'"ADVERTISINGAGENCIL\'B-CONTD"'
p999
(I0
g5
tp1000
sS'CONTRACTORS-CONCRETE'
p1001
(I0
g2
tp1002
sS'ADJUSTERS'
p1003
(I0
g19
tp1004
sS'BANKOFRHODEISLANDONETURKSHEADPLACE'
p1005
(I0
g5
tp1006
sS'MARINAS'
p1007
(I0
g54
tp1008
sS'JEWELERS-CONTD'
p1009
(I0
g27
tp1010
sS'ELECTRICALEQUIPMENTANDSUPPLIES-MFRS'
p1011
(I0
g5
tp1012
sS'HOTELS'
p1013
(I0
g2
tp1014
sS'JUDO,KARATEANDJUIJITSUINSTRUCTION'
p1015
(I0
g104
tp1016
sS'ANODIZING'
p1017
(I0
g377
tp1018
sS'FUELOIL'
p1019
(I0
g2
tp1020
sS'ALUMINUMPRODUCTSDEALERS'
p1021
(I0
g5
tp1022
sS'CHURCHESANDSYNAGOGUES'
p1023
(I0
g39
tp1024
sS'BRIDALSHOPS'
p1025
(I0
g91
tp1026
sS'INSURANCEADJUSTERS'
p1027
(I0
g104
tp1028
sS'*TERMITECONTROL'
p1029
(I0
g27
tp1030
sS'PUBLICATIONS'
p1031
(I0
g2
tp1032
sS'ASPHALTMFRS'
p1033
(I0
g19
tp1034
sS'BUILDINGWRECKERS'
p1035
(I0
g260
tp1036
sS'TRAVELAGENCIES'
p1037
(I0
g2
tp1038
sS'*PROPERTYMANAGEMENT'
p1039
(I0
g223
tp1040
sS'AUTOMOBILEACCESSORIESANDPARTS-RETAIL'
p1041
(I0
g5
tp1042
sS'TELEVISIONSYSTEMSANDEQUIPMENT-CLOSEDCIRCUIT'
p1043
(I0
g5
tp1044
sS'PHOTOGRAPHERS-CONTD'
p1045
(I0
g39
tp1046
sS'*FOODPRODUCTS'
p1047
(I0
g19
tp1048
sS'ARTIFICIALEYES,'
p1049
(I0
g2
tp1050
sS'SEALINGCOMPOUNDS'
p1051
(I0
g91
tp1052
sS'*BANKS-NATIONAL'
p1053
(I0
g2
tp1054
sS'DAYNURSERIES'
p1055
(I0
g2
tp1056
sS'DOGGROOMINGSERVICE'
p1057
(I0
g205
tp1058
sS'CARPETS,RUGSANDFLOORCOVERINGS-RETAIL'
p1059
(I0
g5
tp1060
sS'CONTRACTORS-CARPENTEK-CUNTU'
p1061
(I0
g2
tp1062
sS'TELEVISIONSETS-SALESANDSERVICE-CONTD'
p1063
(I0
g27
tp1064
sS'AUTOMOBILERADIATORREPAIRERS'
p1065
(I0
g5
tp1066
sS'PACKING-STEAM,WATERANDAIR'
p1067
(I0
g5
tp1068
sS'LANDSCAPEARCHITECTS'
p1069
(I0
g27
tp1070
sS'CONTRACTORS-HOMEIMPROVEMENT'
p1071
(I0
g27
tp1072
sS'RADIOBROADCASTINGSTATIONS'
p1073
(I0
g5
tp1074
sS'BARBERSHOPS-CONTD'
p1075
(I0
g12
tp1076
sS'TROPHIES'
p1077
(I0
g2
tp1078
sS'ELASTICGOODSMFRS'
p1079
(I0
g5
tp1080
sS'PHOTOGRAPHICEQUIPMENT-DEALERSANDREPAIRING'
p1081
(I0
g5
tp1082
sS'FURNITURE-WHOL'
p1083
(I0
g2
tp1084
sS'ENAMELERS-CONTD'
p1085
(I0
g27
tp1086
sS'ELECTRICALAPPLIANCES-SALESANDSERVICE'
p1087
(I0
g27
tp1088
sS'*ENGRAVERS'
p1089
(I0
g2
tp1090
sS'DENTISTS'
p1091
(I0
g2
tp1092
sS'NATIONALBANK-CONTD'
p1093
(I0
g218
tp1094
sS'PLASTICPRODUCTS-WHOLESALE'
p1095
(I0
g104
tp1096
sS'STEAMSHIPAGENTS'
p1097
(I0
g5
tp1098
sS'BUSSTATIONS'
p1099
(I0
g682
tp1100
sS'FLORISTS-WHOL'
p1101
(I0
g2
tp1102
sS'BOOKS-USED'
p1103
(I0
g19
tp1104
sS'AMUSEMENTPLACES'
p1105
(I0
g39
tp1106
sS'COTTONDEALERS'
p1107
(I0
g27
tp1108
sS'PHOTOGRAPHICDEVELOPINGANDPRINTING'
p1109
(I0
S'ms'
p1110
tp1111
sS'LAUNDRYSUPPLIESANDEQUIPMENTDEALERS'
p1112
(I0
g5
tp1113
sS'CONTRACTORS-WATERPROOFING'
p1114
(I0
g2
tp1115
sS'MACARONIMFRS'
p1116
(I0
g12
tp1117
sS'"ORGANIZATIONS-BUSINI\'BS,CIVICANDPROFESSIONAL-CONTD"'
p1118
(I0
g5
tp1119
sS'BARBERSHOPS'
p1120
(I0
g2
tp1121
sS'TELEGRAPHCOMPANIES'
p1122
(I0
g5
tp1123
sS'GASOLINESTATIONS-CONTD'
p1124
(I0
g27
tp1125
sS'ENGINEERS-DESIGNING'
p1126
(I0
g205
tp1127
sS'FRUITANDVEGETABLEJUICE'
p1128
(I0
g1110
tp1129
sS'NEWSPAPERS'
p1130
(I0
g2
tp1131
sS'HOMESANDSANITARIUMS'
p1132
(I0
g30
tp1133
sS'ORGANIZATIONS-WELFAREANDRELIEF-CONTD'
p1134
(I0
g5
tp1135
sS'CLERGYMEN'
p1136
(I0
g320
tp1137
sS'UNIFORMMFRS'
p1138
(I0
g155
tp1139
sS'PLATERS-CONTD'
p1140
(I0
g27
tp1141
sS'BOTTLERS-CARBONATEDIBEVERAGES'
p1142
(I0
g5
tp1143
sS'CLOTHING-USED'
p1144
(I0
g260
tp1145
sS'"JEWELERS\'SUPPLIES-CONTD"'
p1146
(I0
g260
tp1147
sS'TEXTILEPRINTERSANDDECORATORS'
p1148
(I0
g27
tp1149
sS'TAILORS'
p1150
(I0
g2
tp1151
sS'"BAKERS-RBI\'AIL-CONTD"'
p1152
(I0
g27
tp1153
sS'OFFICE'
p1154
(I0
S'RESTAURANTS'
p1155
tp1156
sS'TAVERNS-CONTD'
p1157
(I0
g12
tp1158
sS'GLASSWAREMFRS'
p1159
(I0
g19
tp1160
sS'*PAINTERSANDDECORATORS'
p1161
(I0
g27
tp1162
sS'WATCH,CLOCKANDJEWELRYREPAIRING'
p1163
(I0
g1110
tp1164
sS'PUBLICITYCOUNSELANDSERVICE'
p1165
(I0
g104
tp1166
sS'"BAKERS\'SUPPLIESANDEQUIPMENT"'
p1167
(I0
g5
tp1168
sS'INVESTMENTTRUSTS'
p1169
(I0
S'LAW OFFICB'
p1170
tp1171
sS'YARNS-WHOL'
p1172
(I0
g2
tp1173
sS'CORSETIERES'
p1174
(I0
g2
tp1175
sS'PARKINGLOTMAINTENANCEANDMARKING'
p1176
(I0
g5
tp1177
sS'CONTRACTORS-BUILDINGCLEANING'
p1178
(I0
g5
tp1179
sS'*SERVICESTATIONS'
p1180
(I0
g2
tp1181
sS'FURNACEDEALERS-SALESANDSERVICE'
p1182
(I0
g104
tp1183
sS'MOLDINGMFRS'
p1184
(I0
g205
tp1185
sS'PLANETARIUMS'
p1186
(I0
g30
tp1187
sS'COSTUMEJEWELRY'
p1188
(I0
g19
tp1189
sS'YARNS-MFRS'
p1190
(I0
g155
tp1191
sS'MOTELS'
p1192
(I0
g248
tp1193
sS'BROKERS-FOODPRODUCTS'
p1194
(I0
g19
tp1195
sS'TRANSLATORSANDINTERPRETERS'
p1196
(I0
g27
tp1197
sS'FISHINGCAMPS'
p1198
(I0
g91
tp1199
sS'*ANSWERINGSERVICE'
p1200
(I0
g2
tp1201
sS'WINDOWSHADEDEALERS'
p1202
(I0
g27
tp1203
sS'"PLATERS\'SUPPLIESANDEQUIPMENT"'
p1204
(I0
g5
tp1205
sS'FACTORS'
p1206
(I0
g2
tp1207
sS'CAULKINGCOMPOUNDSANDEQUIPMENT'
p1208
(I0
g5
tp1209
sS'MARKETS-PUBLIC'
p1210
(I0
g74
tp1211
sS'*PRINTERS'
p1212
(I0
g2
tp1213
sS'TOWEL,APRON,COATANDLINENSUPPLY'
p1214
(I0
g104
tp1215
sS'TIREDEALERS-WHOL'
p1216
(I0
g27
tp1217
sS'BEAUTYSHOPS'
p1218
(I0
g2
tp1219
sS'MARINESUPPLIESANDEQUIPMENT'
p1220
(I0
g5
tp1221
sS'"AUTOMOBILEACCESORI-ANDPARTS-WHOLI\'BALEANDJOBBERS-CONTD"'
p1222
(I0
g5
tp1223
sS'LOANS-MORTGAGE'
p1224
(I0
g155
tp1225
sS'APIARISTS'
p1226
(I0
g2
tp1227
sS'CURTAINSANDDRAPERIES'
p1228
(I0
g104
tp1229
sS'VARIETYSTORES'
p1230
(I0
g2
tp1231
sS'*INSURANCE-AUTOMOBILE'
p1232
(I0
g5
tp1233
sS'CATERERS'
p1234
(I0
g2
tp1235
sS'ELECTRICALEQUIPMENTANDSUPPLIES-DEALERS'
p1236
(I0
g5
tp1237
sS'TRUCKS-MFRS'
p1238
(I0
g19
tp1239
sS'CREDITREPORTINGAGENCIES'
p1240
(I0
g5
tp1241
sS'OBSERVATORIES'
p1242
(I0
g2
tp1243
sS'*MARKINGDEVICES'
p1244
(I0
g5
tp1245
sS'NEWSDEALERS'
p1246
(I0
g19
tp1247
sS'BUSINESSMACHINES'
p1248
(I0
g54
tp1249
sS'"ABRASIVI\'B-MFRS"'
p1250
(I0
g54
tp1251
sS'PRODUCEDEALERS-RETAIL'
p1252
(I0
g104
tp1253
sS'LANDSCAPECONTRACTORS'
p1254
(I0
g27
tp1255
sS'LIQUORANDWINES-'
p1256
(I0
g104
tp1257
sS'*AUTOMOBILEHARDWARE'
p1258
(I0
g5
tp1259
sS'BUSINESSFORMSANDSYSTEMS'
p1260
(I0
g5
tp1261
sS'STORAGE'
p1262
(I0
g223
tp1263
sS'BEERDISTRIBUTORS'
p1264
(I0
g260
tp1265
sS'PACKAGING.CRATINGANDSHIPPING'
p1266
(I0
g5
tp1267
sS'*HOSPITALBEDS-RENTAL'
p1268
(I0
g27
tp1269
sS'MICROFILMINGEQUIPMENTANDSERVICE'
p1270
(I0
g5
tp1271
sS'WEATHERSTRIPMFRS'
p1272
(I0
g54
tp1273
sS'CARPETLAYERS'
p1274
(I0
g2
tp1275
sS'*OILS-FUELPETROLEUMHEAT&POWERCOOF'
p1276
(I0
g5
tp1277
sS'APARTMENTSANDTOWNHOUSESCONTD'
p1278
(I0
g39
tp1279
sS'SEEDS-RETAIL'
p1280
(I0
g27
tp1281
sS'DAIRYPRODUCTS-RETAIL'
p1282
(I0
g104
tp1283
sS'*BONDS-SURETYANDFIDELITY'
p1284
(I0
g5
tp1285
sS'STEELPRODUCTS-MFRS'
p1286
(I0
g19
tp1287
sS'AMBULANCESERVICE'
p1288
(I0
g5
tp1289
sS'INSURANCE-CONTD'
p1290
(I0
g104
tp1291
sS'ENGINEERS-CONSULTING'
p1292
(I0
g2
tp1293
sS'"(ELECI\'ROPLATERSOFNON-"'
p1294
(I0
g2
tp1295
sS'AUTOMOBILEPARKING-CONTD'
p1296
(I0
g5
tp1297
sS'PHYSICIANSANDSURGEONS-MJ).CONTD'
p1298
(I0
g5
tp1299
sS'PHOTOPRINTING'
p1300
(I0
g223
tp1301
sS'*RAILINGS'
p1302
(I0
g2
tp1303
sS'HOSPITALS'
p1304
(I0
g2
tp1305
sS'"PRINTERS\'SUPPLIESANDEQUIPMENT"'
p1306
(I0
g5
tp1307
sS'GENEALOGICALRESEARCH'
p1308
(I0
g2
tp1309
sS'INSURANCECOMPANYTITLEGUARANTEEOFRHODEISLANDDIVISION'
p1310
(I0
g5
tp1311
sS'LOANS-COLLATERAL'
p1312
(I0
g2
tp1313
sS'SCREWMFRS'
p1314
(I0
g19
tp1315
sS'GUARDANDPATROLSERVICE'
p1316
(I0
g104
tp1317
sS'COURTREPORTERS'
p1318
(I0
g2
tp1319
sS'*MEDICALCLINICS'
p1320
(I0
g91
tp1321
sS'NOTARIESPUBLIC'
p1322
(I0
g2
tp1323
sS'PHYSICIANSANDSURGEONS-M.D.CONTD'
p1324
(I0
g5
tp1325
sS'PHYSICIANSANDSURGEONS-MD.CONTD'
p1326
(I0
g5
tp1327
sS'MUSICALINSTRUMENTMFRS'
p1328
(I0
g5
tp1329
sS'OFFICESUPPLIESANDEQUIPMENT'
p1330
(I0
g5
tp1331
sS'"CLEANERS\'ANDDYERS\'EQUIPMENTANDSUPPLIES"'
p1332
(I0
g5
tp1333
sS'LIGHTINGEQUIPMENTMFRS'
p1334
(I0
g74
tp1335
sS'UPHOLSTERINGFABRICSANDMATERIAL'
p1336
(I0
g5
tp1337
sS'CHARGEACCOUNTSYSTEMS'
p1338
(I0
g39
tp1339
sS'BOILERINSTALLERSANDL-SETTERS'
p1340
(I0
g27
tp1341
sS'CHEESEMFRS'
p1342
(I0
g19
tp1343
sS'"NURSES\'REGISTRY"'
p1344
(I0
g2
tp1345
sS'WINERIES'
p1346
(I0
g2
tp1347
sS'DENTALLABORATORIES'
p1348
(I0
g2
tp1349
sS'*OFFSETPRINTERS'
p1350
(I0
g2
tp1351
sS'CONTRACTORS-FARMLABOR'
p1352
(I0
g27
tp1353
sS'TOOLMFRSANDDISTRIBUTORS'
p1354
(I0
g30
tp1355
sS'HUCKSTERS'
p1356
(I0
g2
tp1357
sS'SIGNANDCARDWRITERS'
p1358
(I0
g5
tp1359
sS'DRYICE-MFRSANDWHOLHALE'
p1360
(I0
g27
tp1361
sS'HEATINGAPPARATUSANDAPPLIANCES'
p1362
(I0
g5
tp1363
sS'BROKERHTOCKSANDBONDS'
p1364
(I0
g27
tp1365
sS'FASTENERMFRS'
p1366
(I0
g155
tp1367
sS'WOODCARVERS'
p1368
(I0
g19
tp1369
sS'AUTOMOBILESEATCOVER5DEALERS'
p1370
(I0
g5
tp1371
sS'HOUSEHOLDAPPLIANCES-REPAIRERS'
p1372
(I0
g104
tp1373
sS'*HEATINGANDAIRCONDITIONING'
p1374
(I0
S'MUSEUMS'
p1375
tp1376
sS'WEAVERSANDREWEAVERS-GARMENT'
p1377
(I0
g155
tp1378
sS'DENTISTS-CONTD'
p1379
(I0
S'Glergyme'
p1380
tp1381
sS'CLERGYMEN-CONTD'
p1382
(I0
g320
tp1383
sS'FISHANDSEAFOODDEALERS-RETAIL'
p1384
(I0
g27
tp1385
sS'"CONSULATES,EMBASSI\'ANDLEGATIONS"'
p1386
(I0
g5
tp1387
sS'*MOVINGANDSTORAGE'
p1388
(I0
g5
tp1389
sS'"\'*MOVING-LOCALANDLONGDISTANCE"'
p1390
(I0
g5
tp1391
sS'POWERTOOLSANDEQUIPMENT'
p1392
(I0
g5
tp1393
sS'MEATS-REPAIL-CONTD'
p1394
(I0
g27
tp1395
sS'TANKMFRS'
p1396
(I0
g155
tp1397
sS'DRYGOODS-WHOL'
p1398
(I0
g178
tp1399
sS'CHURCHGOODS'
p1400
(I0
S'TAVERN'
p1401
tp1402
sS'"SHOEMFRS\'GOODSANDSUPPLIES"'
p1403
(I0
g5
tp1404
sS'"CONFECTIONERS\'SUPPLIESANDEQUIPMENT"'
p1405
(I0
g5
tp1406
sS'SAUSAGEMFRS'
p1407
(I0
g178
tp1408
sS'LACEANDEMBROIDERY-MFRSANDWHOL-'
p1409
(I0
g27
tp1410
sS'CONTRACTORS-ROAD'
p1411
(I0
g27
tp1412
sS'SURGICALAPPLIANCESANDSUPPLIES'
p1413
(I0
g5
tp1414
sS'*APPLIANCES-HOUSEHOLD'
p1415
(I0
g104
tp1416
sS'UPHOLSTERERS'
p1417
(I0
g2
tp1418
sS'CHIMNEYCLEANERS'
p1419
(I0
g27
tp1420
sS'GLASSMFRS'
p1421
(I0
g19
tp1422
sS'BAKERS-WHOLESALEANDMANUFACTURING'
p1423
(I0
g5
tp1424
sS'LIQUORANDWINES-WHOL'
p1425
(I0
g104
tp1426
sS'COALANDCOKEDEALERS-RETAIL'
p1427
(I0
g27
tp1428
sS'"\'*INSURANCEAGENTS"'
p1429
(I0
g2
tp1430
sS'REPAIRSHOPS'
p1431
(I0
g2
tp1432
sS'MATTRESSMFRS'
p1433
(I0
g19
tp1434
sS'STATIONERS-MFG'
p1435
(I0
g5
tp1436
sS'"PAINTMFRS\'EQUIPMENTANDSUPPLIES"'
p1437
(I0
g5
tp1438
sS'MAILORDERHOUSES'
p1439
(I0
S'BwaY'
p1440
tp1441
sS'STEVEDORECOMPANIES'
p1442
(I0
g27
tp1443
sS'OILBURNERS-MFRS'
p1444
(I0
g22
tp1445
sS'CUTLERYMFRS'
p1446
(I0
g19
tp1447
sS'WATCECLOCKANDJEWELRYRBPAIRLNG-CONTD'
p1448
(I0
g1110
tp1449
sS'"JANITORS\'SUPPLIES"'
p1450
(I0
g2
tp1451
sS'"CLOTHING-RE\'I\'AIL-CONTD"'
p1452
(I0
g1110
tp1453
sS'ENGINEERS-CIVIL'
p1454
(I0
g2
tp1455
sS'ORGANIZATIONS-YOUTH'
p1456
(I0
g2
tp1457
sS'SILVERSMITHS'
p1458
(I0
g205
tp1459
sS'DISINFECTINGANDDEODORIZINGSERVICE'
p1460
(I0
g5
tp1461
sS'METALSTAMPING'
p1462
(I0
S'Roofers'
p1463
tp1464
sS'WELDERSANDBRAZERS'
p1465
(I0
g27
tp1466
sS'ELECTRICCOMPANYTHE'
p1467
(I0
g27
tp1468
sS'SCHOOLSANDCOLLEGES'
p1469
(I0
g39
tp1470
sS'BRANCHOFFIC-ATWELLSAVENUE'
p1471
(I0
g2
tp1472
sS'JEWELRYBURNISHERS'
p1473
(I0
g2
tp1474
sS'ENGINEERS-CONSTRUCTION'
p1475
(I0
g2
tp1476
sS'CONTRACTORS-BLASTINGANDLANDCLEARING'
p1477
(I0
g5
tp1478
sS'BUILDINGMATERIALSANDSUPPLIES'
p1479
(I0
g5
tp1480
sS'ESTATEPLANNINGANDMANAGEMENT'
p1481
(I0
g5
tp1482
sS'LUGGAGE-DEALERSANDREPAIRERS'
p1483
(I0
g5
tp1484
sS'*AUTOMOBILEINSURANCE'
p1485
(I0
g5
tp1486
sS'ALTERATIONSHOPS'
p1487
(I0
g2
tp1488
sS'AMUSEMENTMACHINES-COINOPERATED'
p1489
(I0
g5
tp1490
sS'GROCERIESANDMEATS-RETAIL'
p1491
(I0
g27
tp1492
sS'*CAULKINGCONTRACTORS'
p1493
(I0
g2
tp1494
sS'ENGRAVERS-CARDANDSTATIONERY'
p1495
(I0
g5
tp1496
sS'AUTOMOBILERENTINGANDLEASING'
p1497
(I0
g5
tp1498
sS'TOYSANDGAMES-MFRS'
p1499
(I0
g155
tp1500
sS'PHOTOGRAPHERS-COMMERCIAL'
p1501
(I0
g5
tp1502
sS'HALLS'
p1503
(I0
g682
tp1504
sS'INVESTIGATORS'
p1505
(I0
g2
tp1506
sS'CONTRACTORS-ELECTRICAL'
p1507
(I0
g2
tp1508
sS'WINDOWCLEANERS'
p1509
(I0
g27
tp1510
sS'ORGANIZATIONS-MISCELLANEOUSCONTD'
p1511
(I0
g5
tp1512
sS'KITCHENCABINETS'
p1513
(I0
g2
tp1514
sS'MACHINISTS'
p1515
(I0
g1380
tp1516
sS'ROOFINGMATERIALSANDSUPPLIES'
p1517
(I0
g5
tp1518
sS'LOOMMFRS'
p1519
(I0
g19
tp1520
sS'FISHINGTACKLEANDRODS-MFRS'
p1521
(I0
g5
tp1522
sS'COCKTAILLOUNGES'
p1523
(I0
g2
tp1524
sS'GLOVEANDMITTENMFRS'
p1525
(I0
g27
tp1526
sS'"PICTUREFRAM\'ANDPICTURES-DEALERS"'
p1527
(I0
g5
tp1528
sS'*BANKS'
p1529
(I0
g682
tp1530
sS'COLLECTIONAGENCIES'
p1531
(I0
g2
tp1532
sS'"SHEETMETALWORKERS\'EQUIPMENTANDSUPPLIES"'
p1533
(I0
g5
tp1534
sS'ORGANIZATIONS-WELFAREANDRELIEF'
p1535
(I0
g5
tp1536
sS'UNDERWEARMFRS'
p1537
(I0
g155
tp1538
sS'"HARDWARE-RE\'I\'AIL-CONTD"'
p1539
(I0
g1110
tp1540
sS'OILBURNERS-SALESANDSERVICE'
p1541
(I0
g104
tp1542
sS'PODIATRISTS'
p1543
(I0
g27
tp1544
sS'ACCOUNTANTS-PUBLIC-CONTD'
p1545
(I0
g30
tp1546
sS'FURNITURE-USED'
p1547
(I0
g260
tp1548
sS'BROKERS-SHIPANDYACHT'
p1549
(I0
g27
tp1550
sS'ALUMINUMPRODUCTSMFRS'
p1551
(I0
g1440
tp1552
sS'FURNITURE-RETAIL'
p1553
(I0
g2
tp1554
sS'STEELFABRICATORS'
p1555
(I0
g2
tp1556
sS'GARBAGECOLLECTIONSERVICE'
p1557
(I0
g2
tp1558
sS'LABORATORIES'
p1559
(I0
g2
tp1560
sS'*AIRCONDITIONINGCONTRACTORS'
p1561
(I0
g5
tp1562
sS'RUBBERSTAMPSANDSEALS'
p1563
(I0
g39
tp1564
sS'PHYSICALTHERAPISTS'
p1565
(I0
g2
tp1566
sS'CONCRETE-READYMIXED'
p1567
(I0
g257
tp1568
sS'ENGRAVERS-JEWELRY'
p1569
(I0
g2
tp1570
sS'RESUMESERVICE'
p1571
(I0
g54
tp1572
sS'BOXMFRS'
p1573
(I0
g19
tp1574
sS'ADOPTIONAGENCIES'
p1575
(I0
g5
tp1576
sS'"ACCOUNTCON\'I\'D"'
p1577
(I0
S'jewelERS-MFG'
p1578
tp1579
sS'CONTRACTORS-SHEETMETAL'
p1580
(I0
g27
tp1581
sS'GENERALMERCHANDISE-RETAIL'
p1582
(I0
g27
tp1583
sS'ICEDEALERS'
p1584
(I0
g27
tp1585
sS'ELECTRICMOTORSANDGENERATORS-DLRSANDREPAIRING'
p1586
(I0
g5
tp1587
sS'JEWELRYMFRS-CONTD'
p1588
(I0
g27
tp1589
sS'*WINESANDLIQUORS-WHOL'
p1590
(I0
g576
tp1591
sS'MORTGAGELOANS-CONTDCOLUMBUSNATIONALBANKOFRHODELSLAND-CONTD'
p1592
(I0
g5
tp1593
sS'ARTIFICIALFLOWERSANDFRUITDEALERS'
p1594
(I0
g5
tp1595
sS'BAITDEALERS'
p1596
(I0
g27
tp1597
sS'"CONTRACTORS\'SUPPLIESANDEQUIPMENT-DEALERSANDREPAIRING"'
p1598
(I0
g5
tp1599
sS'ALLOYS'
p1600
(I0
g2
tp1601
sS'MUSEUMS'
p1602
(I0
g19
tp1603
sS'TRANSPORTATIONLINES'
p1604
(I0
g2
tp1605
sS'CONTRACTORS-MARINE'
p1606
(I0
g27
tp1607
sS'TEXTILEWORKERSUNIONAFL-'
p1608
(I0
g2
tp1609
sS'CONTRACTORS-SIDING'
p1610
(I0
g5
tp1611
sS'UNIVERSITYOFRHODEISLAND'
p1612
(I0
g5
tp1613
sS'WATCHMFRS'
p1614
(I0
g19
tp1615
sS'MEATPACKERS'
p1616
(I0
g19
tp1617
sS'"MEN\'SCHRISTIANASSOCIATION"'
p1618
(I0
g27
tp1619
sS'METALLURGISTS'
p1620
(I0
g74
tp1621
sS'RUBBERPRODUCTS-MFRS'
p1622
(I0
g19
tp1623
sS'JEWELRYMFRS'
p1624
(I0
g19
tp1625
sS'STATIONERS-WHOL'
p1626
(I0
g2
tp1627
sS'*ORGANIZATIONS-HEALTHMETROPOLITANNURSING&HEALTHSERVIC-ASSOCIATIONOF'
p1628
(I0
g5
tp1629
sS'ICECREAMANDFROZENDESSERTS-RETAIL'
p1630
(I0
g27
tp1631
sS'INVETMENTCOUNSEL-CONTD'
p1632
(I0
g388
tp1633
sS'BUILDINGMAINTENANCE'
p1634
(I0
g5
tp1635
sS'FROZENFOODPROCESSORS'
p1636
(I0
g27
tp1637
sS'*SCRAPMETALDEALERS'
p1638
(I0
g19
tp1639
sS'SHOEREPAIRERS'
p1640
(I0
g2
tp1641
sS'FORGING-IRONANDSTEEL'
p1642
(I0
g5
tp1643
sS'"\'POTATOES-WHOLANDCOMMISSION"'
p1644
(I0
g27
tp1645
sS'PUBLICRELATIONSCOUNSEL'
p1646
(I0
g2
tp1647
sS'WALLPAPER-RETAIL'
p1648
(I0
g2
tp1649
sS'WAREHOUSES-MERCHANDISE'
p1650
(I0
g5
tp1651
sS'COINDEALERSANDNUMISMATICSUPPLIES'
p1652
(I0
g5
tp1653
sS'FOODPRODUCTSMFRS'
p1654
(I0
g19
tp1655
sS'JEWELRY-WHOLESALEANDIMPORTING'
p1656
(I0
g5
tp1657
sS'*BARBERANDBEAUTYSHOPEQUIPMENTANDSUPPLIES'
p1658
(I0
g5
tp1659
sS'GLASSDEALERS-WINDOWANDPLATE'
p1660
(I0
g27
tp1661
sS'WIGSANDTOUPEES'
p1662
(I0
g5
tp1663
sS'TELEVISIONBROADCASTINGSTATIONS'
p1664
(I0
g5
tp1665
sS'STOVESANDRANGES-RETAIL'
p1666
(I0
g5
tp1667
sS'BADG-ANDIDENTIFICATIONCARDS'
p1668
(I0
g5
tp1669
sS'COMMUNICATIONSYSTEMS'
p1670
(I0
g5
tp1671
sS'VARIABLEANNUITYLIFE'
p1672
(I0
g2
tp1673
sS'CONTRACTORS-CUTSTONE'
p1674
(I0
g2
tp1675
sS'STATIONERS-RETAIL'
p1676
(I0
g2
tp1677
sS'"PIPESANDSMOKERS\'ARTICLES-DEALERS"'
p1678
(I0
g27
tp1679
sS'ANALYSIS'
p1680
(I0
g2
tp1681
sS'ACCOUNTANTS-PUBLIC'
p1682
(I0
g2
tp1683
sS'ARMORIES'
p1684
(I0
g205
tp1685
sS'JEWELERS-MFG'
p1686
(I0
g178
tp1687
sS'*DROPFORGINGS'
p1688
(I0
g22
tp1689
sS'AUTOMOBILEDEALERS-USEDCARSCONTD'
p1690
(I0
g5
tp1691
sS'CORDAGEANDTWINE-MFRSANDWHOLESALE'
p1692
(I0
g5
tp1693
sS'PRINTERSROLLERS-MFRS'
p1694
(I0
g27
tp1695
sS'RAYONFABRICMFRS'
p1696
(I0
S'TELEPHON E'
p1697
tp1698
sS'*SHEETMETALWORKERS'
p1699
(I0
g19
tp1700
sS'ELECTROLYTICTREATMENT'
p1701
(I0
g27
tp1702
sS'WASHERANDDRYERSALESANDSERVICE'
p1703
(I0
g27
tp1704
sS'DRUGGISTS-WHOL'
p1705
(I0
g2
tp1706
sS'WOODPRODUCTSMFRS'
p1707
(I0
g19
tp1708
sS'MISSIONS'
p1709
(I0
g635
tp1710
sS'CLINICS'
p1711
(I0
g2
tp1712
sS'SURVEYORS-LAND'
p1713
(I0
g39
tp1714
sS'DUPLICATINGMACHINESANDSUPPLIES'
p1715
(I0
g5
tp1716
sS'FINANCIALANDBUSINESSREPORTS'
p1717
(I0
g104
tp1718
sS'CONTRACTORS-ROOFING'
p1719
(I0
g2
tp1720
sS'BABYSITTERS'
p1721
(I0
g2
tp1722
sS'*ORCHESTRAS'
p1723
(I0
g2
tp1724
sS'TAXICABS'
p1725
(I0
S'CLERGYMEN'
p1726
tp1727
sS'THEATRES'
p1728
(I0
g2
tp1729
sS'OILSANDLUBRICANTS-DEALERS'
p1730
(I0
g104
tp1731
sS'ENGINEERS-MANAGEMENT'
p1732
(I0
g155
tp1733
sS'"ARTISTS\'MATERIALS"'
p1734
(I0
g27
tp1735
sS'SCRAPIRONANDMETALS'
p1736
(I0
g27
tp1737
sS'FUNDRAISERS'
p1738
(I0
g104
tp1739
sS'MEDICINES'
p1740
(I0
g205
tp1741
sS'CONTRACTORS-CARPENTER'
p1742
(I0
g2
tp1743
sS'*FUNERALHOMES'
p1744
(I0
g39
tp1745
sS'PIPELINECOMPANIES'
p1746
(I0
g27
tp1747
sS'PULPWOODDEALERS'
p1748
(I0
g19
tp1749
sS'TRASHREMOVALCONTRACTORS'
p1750
(I0
g27
tp1751
sS'LABELMFRS'
p1752
(I0
g19
tp1753
sS'CONVENTS'
p1754
(I0
g2
tp1755
sS'CHECKPROTECTORMFRS'
p1756
(I0
g19
tp1757
sS'JUNKDEALERS'
p1758
(I0
g39
tp1759
sS'TATTOOING'
p1760
(I0
g223
tp1761
sS'FRUITDEALERS-WHOLANDBROKERS'
p1762
(I0
g104
tp1763
sS'GRINDINGANDSHARPENING'
p1764
(I0
g5
tp1765
sS'LAUNDRIES-SELFSERVE'
p1766
(I0
g659
tp1767
sS'BUCKLEANDCLASPMFRS'
p1768
(I0
g39
tp1769
sS'BEARINGS'
p1770
(I0
g2
tp1771
sS'HOBBYSHOPSANDSUPPLIES'
p1772
(I0
g104
tp1773
sS'MACHINERYDEALERS-CONTD'
p1774
(I0
g27
tp1775
sS'PRODUCECOMMISSIONMERCHANTS'
p1776
(I0
g5
tp1777
sS'TRUCKS-FORKLIFT'
p1778
(I0
g2
tp1779
sS'JEWELERS1SUPPLIES'
p1780
(I0
g2
tp1781
sS'"BOOKS-RETAIL\\N\\N\'*A"'
p1782
(I0
g2
tp1783
sS'SHOESHINERS'
p1784
(I0
g2
tp1785
sS'INFORMATIONBUREAUS'
p1786
(I0
g5
tp1787
sS'SEWERCLEANERS'
p1788
(I0
g2
tp1789
sS'AUTOMOBILEWASHINGANDPOLISHLNG-CONTD'
p1790
(I0
g5
tp1791
sS'BUILDINGS-OFFICEANDPUBLIC'
p1792
(I0
g5
tp1793
sS'CELLOPHANEPRODUCTS'
p1794
(I0
g39
tp1795
sS'INDUSTRIALSUPPLIES'
p1796
(I0
g104
tp1797
s.