(dp0
S'PUBLISHERS'
p1
(S'PUBLIC ST'
p2
I63
I15942
tp3
sS'353 WEYBOSSET'
p4
(S'WEYBOSSET ST'
p5
I86
I15992
tp6
sS'BRAMAN'
p7
(S'BRAMAN ST'
p8
I90
I16907
tp9
sS'ORMS'
p10
(S'ORMS ST'
p11
I86
I16384
tp12
sS'HARRIS AV'
p13
(S'HARRIS AVE'
p14
I97
I15869
tp15
sS'WI11ARD AV'
p16
(S'WARD AVE'
p17
I75
I16530
tp18
sS'NORTH MAIN'
p19
(S'NORTH MAIN ST'
p20
I93
I15916
tp21
sS"CHAIN CO 144 PINT'A 4TH FL"
p22
(S'CHAPIN AVE'
p23
I67
I17800
tp24
sS'OF NEW YORK THE'
p25
(S'NEW YORK AVE'
p26
I87
I16751
tp27
sS'WESTMINSTER 3D FLOOR'
p28
(S'WESTMINSTER ST'
p29
I85
I15991
tp30
sS'COURTLAND'
p31
(S'COURTLAND ST'
p32
I93
I17806
tp33
sS'BROAD-FOR FURTHER INFORMATION SEE PAGE 142 BUYERY GUIDE'
p34
(S'NORMAN DR'
p35
I48
I16362
tp36
sS'LISBON'
p37
(S'LISBON ST'
p38
I90
I17569
tp39
sS'GMMRNOR'
p40
(S'GOVERNOR ST'
p41
I61
I16983
tp42
sS'WESTMINSTEF RM'
p43
(g29
I85
I15991
tp44
sS'MEADOW'
p45
(S'MEADOW ST'
p46
I90
I15906
tp47
sS'BORDEN AND ALLEN,S AV'
p48
(S'BORDEN ST'
p49
I76
I15787
tp50
sS'CAM- DEN AV'
p51
(S'CAMDEN AVE'
p52
I78
I17421
tp53
sS'SABIN PAWTUCKET'
p54
(S'PAWTUXET AV'
p55
I68
I16771
tp56
sS'POWER'
p57
(S'POWER ST'
p58
I88
I15939
tp59
sS'-BATES'
p60
(S'BATTEY ST'
p61
I72
I15778
tp62
sS'A THAYER'
p63
(S'THAYER ST'
p64
I85
I17112
tp65
sS'WEYBOSSET RMS 212 AND 401'
p66
(g5
I79
I15992
tp67
sS'INC KILVERT ST'
p68
(S'GILBERT ST'
p69
I69
I17867
tp70
sS'- THAYER'
p71
(g64
I90
I17112
tp72
sS'WEST RIVER'
p73
(S'WEST RIVER ST'
p74
I93
I16541
tp75
sS"REGENT AV'"
p76
(S'REGENT AVE'
p77
I97
I17642
tp78
sS'RES- ERVOIR AV'
p79
(S'RESERVOIR AVE'
p80
I86
I17303
tp81
sS'CUM- ERFORD'
p82
(S'CUMERFORD ST'
p83
I81
I17812
tp84
sS'BYTIELD'
p85
(S'BYFIELD ST'
p86
I78
I16607
tp87
sS'COMSTOCK AV'
p88
(S'COMSTOCK AVE'
p89
I98
I16631
tp90
sS'ROCHAMBEAU AV'
p91
(S'ROCHAMBEAU AVE'
p92
I98
I17088
tp93
sS'POEM AND 589 CHARLES'
p94
(S'CHARLES ST'
p95
I73
I16096
tp96
sS'35 OXFORD'
p97
(S'OXFORD ST'
p98
I83
I16764
tp99
sS"' ASH"
p100
(S'WASHINGTON ST'
p101
I86
I21700
tp102
sS'WAVERLY'
p103
(S'WAVERLY ST'
p104
I91
I17351
tp105
sS'ATLANTIC AV'
p106
(S'ATLANTIC AVE'
p107
I98
I16035
tp108
sS'PEACE'
p109
(S'PEACE ST'
p110
I88
I17286
tp111
sS'MAJOR'
p112
(S'MASSO DR'
p113
I61
I16322
tp114
sS'WISDOM AV'
p115
(S'WISDOM AVE'
p116
I97
I17721
tp117
sS'WHIT- MARSH'
p118
(S'WHITMARSH ST'
p119
I76
I17355
tp120
sS'ALGONQUIN'
p121
(S'ALGONQUIN ST'
p122
I93
I17151
tp123
sS'EATON'
p124
(S'EATON ST'
p125
I88
I17478
tp126
sS'GALLUP'
p127
(S'GALLUP ST'
p128
I90
I16668
tp129
sS'HUBER AV'
p130
(S'HUBER AVE'
p131
I97
I17902
tp132
sS'PORTLAND'
p133
(S'PORTLAND ST'
p134
I92
I17293
tp135
sS'73 EAGLE'
p136
(S'EAGLE ST'
p137
I81
I17477
tp138
sS'-222 ATWELLS AV'
p139
(S'ATWELLS AVE'
p140
I90
I15775
tp141
sS'BROADCASTING STATION 15 CHESTNUT'
p142
(S'BROCKTON ST'
p143
I53
I16070
tp144
sS'POTTER1S AV'
p145
(S'POTTERS AVE'
p146
I92
I16786
tp147
sS'11 HIGH, PAWTUCKET'
p148
(g55
I66
I16771
tp149
sS'INC 150-152 DOR- RANCE'
p150
(S'DORRANCE ST'
p151
I63
I15829
tp152
sS'PINE 2D FL'
p153
(S'PINE ST'
p154
I79
I15933
tp155
sS'PRESIDENT AV'
p156
(S'PRESIDENT AVE'
p157
I98
I17079
tp158
sS'MATHEWSON 11'
p159
(S'MATHEWSON ST'
p160
I91
I15904
tp161
sS'LAURIS- TON'
p162
(S'LAURISTON ST'
p163
I81
I17020
tp164
sS"' ATWELLS AV"
p165
(g140
I97
I15775
tp166
sS'86 WEYBOSSET'
p167
(g5
I87
I15992
tp168
sS'-1 ORMS'
p169
(g11
I81
I16384
tp170
sS'COLE AV'
p171
(S'COLE AVE'
p172
I96
I16928
tp173
sS'MAMON AV'
p174
(S'MARION AV'
p175
I77
I16723
tp176
sS'WASH-'
p177
(g101
I100
I21700
tp178
sS'POST ROAD, APPO- NAUG'
p179
(S'POST RD'
p180
I77
I16785
tp181
sS'RUGBY'
p182
(S'BUSBY ST'
p183
I53
I6702
tp184
sS'RICE'
p185
(S'RICE ST'
p186
I86
I17304
tp187
sS'THOS S & VINCENT LUONGO MEM SQ'
p188
(S'VINCENT AVE'
p189
I71
I16522
tp190
sS'AN- THONY AV'
p191
(S'ANTHONY AVE'
p192
I87
I17155
tp193
sS'CHESTNUT'
p194
(S'CHESTNUT ST'
p195
I92
I15807
tp196
sS'HAROLD'
p197
(S'ARGOL ST'
p198
I65
I6657
tp199
sS'REGENT AV'
p200
(g77
I97
I17642
tp201
sS'PAWTUCKET AV'
p202
(g55
I84
I16771
tp203
sS'; WEYBOSSET'
p204
(g5
I93
I15992
tp205
sS'WEST. MINSTER'
p206
(g29
I81
I15991
tp207
sS'N MAIN 1 PROMENADE, 85 RESERVOIR AV'
p208
(S'WESTERN PROMENADE'
p209
I72
I16858
tp210
sS'BWAY RM2'
p211
(S'BROADWAY'
p212
I83
I21699
tp213
sS'HOLDEN'
p214
(S'HOLDEN ST'
p215
I90
I17532
tp216
sS'BYRON'
p217
(S'BROWN ST'
p218
I71
I16073
tp219
sS'100-112 WESTMINSTER'
p220
(g29
I83
I15991
tp221
sS'INC 150452 DOR- RANCE'
p222
(S'I 195'
p223
I38
I15880
tp224
sS'SILVER SPRING'
p225
(S'SILVER SPRING ST'
p226
I95
I16454
tp227
sS'POMONA AV'
p228
(S'POMONA AVE'
p229
I97
I17628
tp230
sS'BLAINE'
p231
(S'BLAINE ST'
p232
I90
I16061
tp233
sS'INDUS-'
p234
(S'INDIA ST'
p235
I61
I15883
tp236
sS'160 DOR- RANCE AND 76-78 WEYBOSSET'
p237
(g5
I70
I15992
tp238
sS'GARNET 3D FL'
p239
(S'GARNET ST'
p240
I83
I15862
tp241
sS'HUNT- INGTON AV'
p242
(S'HUNTINGTON AVE'
p243
I84
I17236
tp244
sS'RICHMAND 3D FL'
p245
(S'RICHMOND ST'
p246
I76
I15946
tp247
sS'EDENDALE AV'
p248
(S'VERNDALE AVE'
p249
I76
I16846
tp250
sS'SMITH-'
p251
(S'SMITH ST'
p252
I88
I16457
tp253
sS'EXCHANGE PL'
p254
(S'EXCHANGE ST'
p255
I91
I15845
tp256
sS"OFFICE 526 POWER RD 'FACTORY 310 OWEN AV"
p257
(S'OBSERVATORY AVE'
p258
I48
I17058
tp259
sS'GEORGIA. AV'
p260
(S'GEORGIA AVE'
p261
I97
I16671
tp262
sS'ELM- WOOD AV'
p263
(S'ELMWOOD AVE'
p264
I82
I17207
tp265
sS'0 WESTMINSTER'
p266
(g29
I90
I15991
tp267
sS'W1 STER'
p268
(S'WESTERN ST'
p269
I66
I17127
tp270
sS'WEYBOSSET RM'
p271
(g5
I91
I15992
tp272
sS'BARNES'
p273
(S'BARNES ST'
p274
I90
I16898
tp275
sS'WESTMINSTER RM3'
p276
(g29
I91
I15991
tp277
sS"W'ESTMIN-"
p278
(S'WEST ST'
p279
I69
I15990
tp280
sS'.334- WESTMINSTER RM'
p281
(g29
I87
I15991
tp282
sS'RICHMOND'
p283
(g246
I92
I15946
tp284
sS'-10-12 ARCADE BLDZ'
p285
(S'ARCADE ST'
p286
I77
I15773
tp287
sS'WASH, 358 WESTMINSTER AND 147 WEYBOSSET'
p288
(g29
I77
I15991
tp289
sS'WATER-'
p290
(S'WAITE ST'
p291
I71
I17707
tp292
sS'BRAYTON'
p293
(S'BRAYTON AVE'
p294
I89
I15791
tp295
sS'CLEMENCE 3D FL'
p296
(S'CLEMENCE ST'
p297
I86
I15810
tp298
sS'DORRANCE CORNER WESTMINSTER'
p299
(g29
I77
I15991
tp300
sS'LEDGE 0'
p301
(S'LEDGE ST'
p302
I90
I16275
tp303
sS'CANAL 7'
p304
(S'CANAL ST'
p305
I90
I15798
tp306
sS"'CHARLES"
p307
(g95
I91
I16096
tp308
sS'365 ATWELLS AV'
p309
(g140
I90
I15775
tp310
sS'CRAN- STON ARLINGTON'
p311
(S'ARLINGTON AVE'
p312
I78
I16892
tp313
sS'JACKSON'
p314
(S'JACKSON ST'
p315
I91
I16253
tp316
sS'UNION'
p317
(S'UNION ST'
p318
I88
I15977
tp319
sS'ANDEM'
p320
(S'ANDEM ST'
p321
I88
I17376
tp322
sS'CANAL'
p323
(g305
I88
I15798
tp324
sS'ATWELLS'
p325
(g140
I89
I15775
tp326
sS'BROAD AND 354 FRIENDSHIP'
p327
(S'FRIENDSHIP ST'
p328
I77
I15858
tp329
sS'CHARLES FIELD'
p330
(g95
I85
I16096
tp331
sS'206 WASHINGTON COR EMPIRE'
p332
(S'WASHINGTON PL'
p333
I81
I15986
tp334
sS'PROGRESS. AV'
p335
(S'PROGRESS AVE'
p336
I98
I18001
tp337
sS'PINE AND 236 FRIENDSHIP'
p338
(S'WEST FRIENDSHIP ST'
p339
I79
I17345
tp340
sS'S MAIN'
p341
(S'SOUTH MAIN ST'
p342
I93
I15948
tp343
sS'-130 W EXCHANGE 4TH FL'
p344
(S'WEST EXCHANGE ST'
p345
I87
I15982
tp346
sS'CRANS- TON'
p347
(S'CRANSTON ST'
p348
I78
I15817
tp349
sS'PLAINFXELD'
p350
(S'PLAINFIELD ST'
p351
I84
I17994
tp352
sS'CRANSTON, CRANSTON RI'
p353
(g348
I85
I15817
tp354
sS'WARREN'
p355
(S'WARREN WY'
p356
I90
I16851
tp357
sS'WEYQBOSSET'
p358
(g5
I88
I15992
tp359
sS', 754-756 BROAD'
p360
(S'BROAD ST'
p361
I74
I15793
tp362
sS'BLOUNT'
p363
(S'BELMONT AVE'
p364
I68
I17398
tp365
sS'FOUNTAIN 2D FL'
p366
(S'FOUNTAIN ST'
p367
I86
I15853
tp368
sS'WEYBOS- SET'
p369
(g5
I81
I15992
tp370
sS'VI MINSTER'
p371
(S'MINER ST'
p372
I69
I16342
tp373
sS'TURKS HEAD'
p374
(S'TURKS HEAD PL'
p375
I93
I15976
tp376
sS'RHODES COR ALLEWS AV'
p377
(S'RHODES AV'
p378
I81
I16792
tp379
sS'WASH- INGTON, ANTHONY RI'
p380
(g192
I74
I17155
tp381
sS'WESTMINSTER)'
p382
(g29
I94
I15991
tp383
sS'BENELITT'
p384
(S'BENEFIT ST'
p385
I79
I15781
tp386
sS'HARLAM'
p387
(S'HARLAM ST'
p388
I90
I17885
tp389
sS'WESTMIN- TER'
p390
(g29
I79
I15991
tp391
sS'DE- , SOTO'
p392
(S'DESOTO ST'
p393
I77
I17823
tp394
sS'15 WESTMINSTER'
p395
(g29
I89
I15991
tp396
sS'FRIENDSHIP'
p397
(g328
I93
I15858
tp398
sS'MAGNOLIA'
p399
(S'MAGNOLIA ST'
p400
I92
I17944
tp401
sS'INC'
p402
(S'FINCH AVE'
p403
I62
I16180
tp404
sS'WEYBOSSET'
p405
(g5
I93
I15992
tp406
sS'CRANSTON'
p407
(g348
I92
I15817
tp408
sS'S DRIVE-IN THEATRE FT WHITE ST'
p409
(S'STATE ST'
p410
I52
I17672
tp411
sS'HARTFORD AV'
p412
(S'WHITFORD AVE'
p413
I76
I7109
tp414
sS'HOPKINS'
p415
(S'HOPKINS ST'
p416
I91
I15876
tp417
sS'RESERVOIR AV'
p418
(g80
I98
I17303
tp419
sS'LESTER'
p420
(S'LESTER ST'
p421
I90
I17245
tp422
sS'OGDEN'
p423
(S'OGDEN ST'
p424
I88
I17059
tp425
sS'-66 BROAD'
p426
(g361
I81
I15793
tp427
sS'MONTICELLO'
p428
(S'MONTICELLO ST'
p429
I93
I16348
tp430
sS'W EX- CHANGE'
p431
(g345
I86
I15982
tp432
sS'DABOLL'
p433
(S'DABOLL ST'
p434
I90
I17191
tp435
sS'WESTMINS- TER'
p436
(g29
I84
I15991
tp437
sS'WEST- MINSTER 3D FL'
p438
(g29
I76
I15991
tp439
sS'MARIETTA'
p440
(S'MARIETTA ST'
p441
I92
I16314
tp442
sS'WAR- REN'
p443
(g17
I76
I16530
tp444
sS'ADELAIDE AV'
p445
(S'ADELAIDE AVE'
p446
I98
I17148
tp447
sS'7TH'
p448
(S'7TH ST'
p449
I83
I16877
tp450
sS'HOME'
p451
(S'HOME AVE'
p452
I83
I17534
tp453
sS'BURNSIDE'
p454
(S'BURNSIDE ST'
p455
I92
I16606
tp456
sS'MYRTLE'
p457
(S'MYRTLE ST'
p458
I90
I17269
tp459
sS'MEETING'
p460
(S'MEETING ST'
p461
I91
I15907
tp462
sS'FED- ERAL'
p463
(S'FEDERAL ST'
p464
I75
I15848
tp465
sS'LOWELL AV'
p466
(S'LOWELL AVE'
p467
I97
I17938
tp468
sS'WELL'
p469
(S'HOWELL ST'
p470
I71
I17002
tp471
sS'POINT'
p472
(S'POINT ST'
p473
I88
I15936
tp474
sS'AMERICA 2D FL'
p475
(S'AMERICA ST'
p476
I85
I15770
tp477
sS'N MAIN'
p478
(S'NORTH VIEW TERR'
p479
I78
I18651
tp480
sS'ARNOLD'
p481
(S'ARNOLD CT'
p482
I90
I16028
tp483
sS'OHIO AV'
p484
(S'OHIO AVE'
p485
I96
I16762
tp486
sS'WESTMINSTER ,'
p487
(g29
I94
I15991
tp488
sS'UPDIKE'
p489
(S'UPDIKE ST'
p490
I90
I17342
tp491
sS'MTPLEASANT AV'
p492
(S'PLEASANT AV'
p493
I90
I16399
tp494
sS'U MON'
p495
(S'AUMOND ST'
p496
I62
I16569
tp497
sS'6'
p498
(S'6TH ST'
p499
I39
I16876
tp500
sS'ORANGE'
p501
(S'ORANGE ST'
p502
I90
I15921
tp503
sS'096 WESTMINSTER'
p504
(g29
I88
I15991
tp505
sS'ROCHAM- BEAU AV'
p506
(g92
I84
I17088
tp507
sS'AMERICA'
p508
(g476
I91
I15770
tp509
sS'PRINTERY'
p510
(S'PRINTERY ST'
p511
I92
I16408
tp512
sS'V CHARLES'
p513
(g95
I87
I16096
tp514
sS'EMPIRE 2ND'
p515
(S'EMPIRE ST'
p516
I87
I15840
tp517
sS'BATES'
p518
(g61
I72
I15778
tp519
sS'NARRAGANSETT'
p520
(S'NARRAGANSETT ST'
p521
I94
I16747
tp522
sS'PROMENADE -'
p523
(S'PROMENADE ST'
p524
I93
I17630
tp525
sS'FEDERAL'
p526
(g464
I91
I15848
tp527
sS'PLAIN'
p528
(S'PLAIN ST'
p529
I88
I15934
tp530
sS'ROGER WIL LIAMS AV'
p531
(S'ROGER ST'
p532
I77
I17089
tp533
sS"PUB'LI"
p534
(g2
I67
I15942
tp535
sS"WEYBOSSET YARD 500 ALLEN'S AV"
p536
(g5
I76
I15992
tp537
sS'CRAN-'
p538
(S'CRESANT DR'
p539
I65
I16127
tp540
sS'N MAIN RM4'
p541
(g20
I90
I15916
tp542
sS'LOUIS AV'
p543
(S'LOUIS AVE'
p544
I97
I17253
tp545
sS'- STEWART'
p546
(S'STEWART ST'
p547
I91
I15963
tp548
sS'.12 WAELL AV'
p549
(g467
I70
I17938
tp550
sS'MATHEW- SON'
p551
(S'MATTHEW ST'
p552
I86
I17587
tp553
sS'ORCHARD. E PROVIDENCE'
p554
(S'PROVIDENCE ST'
p555
I78
I17299
tp556
sS'; SMITH'
p557
(g252
I88
I16457
tp558
sS"ATWOO'DF"
p559
(S'ATWOOD ST'
p560
I81
I17752
tp561
sS'EXCHANGE'
p562
(g255
I92
I15845
tp563
sS'144 SABIN'
p564
(S'SABIN ST'
p565
I79
I15950
tp566
sS'WESTMINSTH'
p567
(g29
I80
I15991
tp568
sS'MATHEWSON RM'
p569
(g160
I91
I15904
tp570
sS'ALLEN,S AV'
p571
(S'ALLENS AVE'
p572
I83
I15768
tp573
sS"WASH' INGTON"
p574
(g333
I79
I15986
tp575
sS'-111 MEDWAY'
p576
(S'MEDWAY ST'
p577
I81
I17040
tp578
sS'MARI'
p579
(S'MARIE CT'
p580
I78
I16313
tp581
sS'WESTMIN-L STER'
p582
(g29
I78
I15991
tp583
sS'EARLY'
p584
(S'EAST EARLE ST'
p585
I62
I7747
tp586
sS'IVES'
p587
(S'IVES ST'
p588
I86
I17007
tp589
sS'WESTMIN& TER'
p590
(g29
I79
I15991
tp591
sS'MATHEWSON'
p592
(g160
I93
I15904
tp593
sS'FOUNTAIN'
p594
(g367
I92
I15853
tp595
sS'SARATOGA'
p596
(S'SARATOGA ST'
p597
I92
I16807
tp598
sS'COMMODORE'
p599
(S'COMMODORE ST'
p600
I93
I16115
tp601
sS'PAGE'
p602
(S'PAGE ST'
p603
I86
I15923
tp604
sS'MILL CRANSTON R I'
p605
(g348
I82
I15817
tp606
sS'THE 62 PAGE 4TH 11'
p607
(g603
I74
I15923
tp608
sS'MALVERN'
p609
(S'MALVERN ST'
p610
I91
I16307
tp611
sS'ELLERY'
p612
(S'ELLERY ST'
p613
I90
I17844
tp614
sS'RICH- MOND'
p615
(g246
I73
I15946
tp616
sS'RINGGOLD'
p617
(S'RINGGOLD ST'
p618
I92
I15947
tp619
sS'DUKE'
p620
(S'DUKE ST'
p621
I86
I17475
tp622
sS'48-50 WEY-'
p623
(S'DEWEY ST'
p624
I55
I17197
tp625
sS"HOPE AND 73 MAN' NING"
p626
(S'HOPE ST'
p627
I68
I15875
tp628
sS"AL- LEN'S AV"
p629
(S'SOUTH CT'
p630
I76
I15959
tp631
sS'S ANGELI'
p632
(S'SOUTH ANGELL ST'
p633
I82
I17093
tp634
sS'TOP'
p635
(S'HOPE ST'
p636
I48
I6846
tp637
sS'-631 ATWELLS AV'
p638
(g140
I90
I15775
tp639
sS'ACADE- MY AV'
p640
(S'ACADEMY AVE'
p641
I87
I17365
tp642
sS'PINEHURST AV'
p643
(S'PINEHURST AVE'
p644
I98
I17626
tp645
sS'SWISS'
p646
(S'SWISS ST'
p647
I88
I18061
tp648
sS'THAYER -'
p649
(g64
I90
I17112
tp650
sS'A POCASSET AV'
p651
(S'POCASSET AVE'
p652
I94
I17995
tp653
sS'CALLA'
p654
(S'CALLA ST'
p655
I88
I16611
tp656
sS'BOGMAN'
p657
(S'BOGMAN ST'
p658
I90
I16597
tp659
sS'IN- DIA'
p660
(g235
I73
I15883
tp661
sS'BRIDGHAM'
p662
(S'BRIDGHAM ST'
p663
I92
I17169
tp664
sS'SPRA- GUE'
p665
(S'SPRAGUE ST'
p666
I75
I17327
tp667
sS'ARMINGTON AV'
p668
(S'ARMINGTON AVE'
p669
I98
I17384
tp670
sS'ASHBURTON'
p671
(S'ASHBURTON ST'
p672
I93
I16032
tp673
sS'GILLEN'
p674
(S'GILLEN ST'
p675
I90
I16203
tp676
sS'-585 HARRIS AV'
p677
(g14
I89
I15869
tp678
sS'N MAIN 1ST FL'
p679
(g20
I93
I15916
tp680
sS'ATWEILS AV'
p681
(g140
I86
I15775
tp682
sS"JEWEIL '"
p683
(S'JEWELL ST'
p684
I75
I17911
tp685
sS'HANOVER'
p686
(S'HANOVER ST'
p687
I91
I17225
tp688
sS'HUGO'
p689
(S'HUGO ST'
p690
I86
I16242
tp691
sS'CANDACE'
p692
(S'CANDACE ST'
p693
I91
I17422
tp694
sS'SABIN'
p695
(g565
I88
I15950
tp696
sS'AR-'
p697
(S'ARK CT'
p698
I65
I17382
tp699
sS'LEDGE AND 6035 CHARLES'
p700
(g95
I72
I16096
tp701
sS'28 GORDON AV'
p702
(S'GORDON AVE'
p703
I91
I16675
tp704
sS'WASHINGTON, ANTHONY RI'
p705
(S'WASHINGTON ST'
p706
I85
I15987
tp707
sS'ACORN'
p708
(S'ACORN ST'
p709
I88
I15764
tp710
sS'WAINWRIGHT'
p711
(S'WAINWRIGHT ST'
p712
I93
I17706
tp713
sS'VIRGINIA AV'
p714
(S'VIRGINIA AVE'
p715
I98
I16849
tp716
sS'WESTMINSTER KM 408'
p717
(g29
I87
I15991
tp718
sS'EDDY TOP 11'
p719
(S'EDDY ST'
p720
I83
I15834
tp721
sS'WINTHROP AV'
p722
(S'WINTHROP AVE'
p723
I98
I17720
tp724
sS'MATHEWSON, RM7'
p725
(g160
I90
I15904
tp726
sS"E MARKET 'CANVAS PRODUCTS"
p727
(S'EAST APPROACH'
p728
I50
I15832
tp729
sS'E MANNING'
p730
(S'EAST MANNING ST'
p731
I94
I16951
tp732
sS'SESSIONS'
p733
(S'SESSIONS ST'
p734
I92
I17098
tp735
sS'ALLEN1S AV'
p736
(g572
I91
I15768
tp737
sS'RALPH'
p738
(S'RALPH ST'
p739
I88
I18005
tp740
sS'DIKE'
p741
(S'DIKE ST'
p742
I86
I17827
tp743
sS'EASTWOOD AV'
p744
(S'EASTWOOD AVE'
p745
I98
I17839
tp746
sS'WESTMINSTER AT DORRANCE'
p747
(g29
I85
I15991
tp748
sS'PEARL'
p749
(S'PEARL AV'
p750
I88
I16774
tp751
sS'RICHMOND 4TH II'
p752
(g246
I88
I15946
tp753
sS'LEDGE'
p754
(g302
I88
I16275
tp755
sS'MATHEWSON AND 109 WASH'
p756
(g160
I82
I15904
tp757
sS'KING'
p758
(S'KING AV'
p759
I86
I16711
tp760
sS'GANO'
p761
(S'GANO ST'
p762
I86
I15861
tp763
sS'BRADFORD'
p764
(S'BRADFORD ST'
p765
I92
I15790
tp766
sS"' WILLARD AV"
p767
(S'WILLARD AVE'
p768
I97
I16863
tp769
sS'-137 PARADE'
p770
(S'PARADE ST'
p771
I81
I17278
tp772
sS"'FRIENDSHIP"
p773
(g328
I93
I15858
tp774
sS"P'OTTEFS AV"
p775
(g146
I79
I16786
tp776
sS'BLACKSTONE'
p777
(S'BLACKSTONE PL'
p778
I93
I15784
tp779
sS'INC 157 WESTMINSTER'
p780
(g29
I83
I15991
tp781
sS'- N MAIN'
p782
(g20
I93
I15916
tp783
sS'WESTMINSTER 4TH FL'
p784
(g29
I90
I15991
tp785
sS'SALEM'
p786
(S'SALEM DR'
p787
I88
I16442
tp788
sS'-WESTMINSTER'
p789
(g29
I94
I15991
tp790
sS'WEYBOSSET, EDDY PINE & GARNET'
p791
(g5
I79
I15992
tp792
sS'WEST- MINSTER 5TH 11'
p793
(g29
I78
I15991
tp794
sS'BWAY AND'
p795
(g212
I83
I21699
tp796
sS'DORA'
p797
(S'DORA ST'
p798
I86
I17830
tp799
sS'DORRANCE COR WASH- INGTON'
p800
(g151
I81
I15829
tp801
sS'& BWAY'
p802
(g212
I100
I21699
tp803
sS'LENOX AV'
p804
(S'LENOX AVE'
p805
I97
I17244
tp806
sS'S WATER TE-LS GASPEE 3569-9653-F0R FURTHER INFOR- MATION SEE PAGE 36 BUYERY GUIDE'
p807
(S"CUTTER'S GREEN"
p808
I44
I16131
tp809
sS'AND 275 W EX- CHANGE'
p810
(g345
I77
I15982
tp811
sS'A CAMP'
p812
(S'CAMP ST'
p813
I81
I16917
tp814
sS'; POCASSET AV'
p815
(g652
I98
I17995
tp816
sS'211 BROAD'
p817
(g361
I79
I15793
tp818
sS'EMPIRE RM9'
p819
(g516
I87
I15840
tp820
sS'ROYAL'
p821
(S'ROYAL ST'
p822
I88
I17091
tp823
sS'HAYES'
p824
(S'HAYES ST'
p825
I88
I17522
tp826
sS'OXFORD'
p827
(g98
I90
I16764
tp828
sS'S ANGELL'
p829
(g633
I94
I17093
tp830
sS'TURKS HEAD BLDG'
p831
(g375
I93
I15976
tp832
sS'HILTON'
p833
(S'HILTON ST'
p834
I90
I16693
tp835
sS'ALLEYS AV'
p836
(g572
I83
I15768
tp837
sS'TELL'
p838
(S'TELL ST'
p839
I86
I18068
tp840
sS'UNIVERSITY AV'
p841
(S'UNIVERSITY AVE'
p842
I98
I17119
tp843
sS'ANZELL'
p844
(S'ANGELL RD'
p845
I75
I16022
tp846
sS'-152 DOR-'
p847
(g223
I50
I15880
tp848
sS'EDDY 3D 11'
p849
(g720
I79
I15834
tp850
sS'111 WESTMINSTER'
p851
(g29
I88
I15991
tp852
sS'TOBEY'
p853
(S'TOBEY ST'
p854
I88
I18076
tp855
sS'PIKE'
p856
(S'PIKE ST'
p857
I86
I15932
tp858
sS'DEXTER N'
p859
(S'DEXTER ST'
p860
I88
I17198
tp861
sS'& PRAIRIE AV'
p862
(S'PRAIRIE AVE'
p863
I97
I16787
tp864
sS'SHARON AND 109 WATERMAN'
p865
(S'WATERMAN ST'
p866
I73
I15988
tp867
sS'BROAD PAWTUCKET'
p868
(g55
I68
I16771
tp869
sS'DONELSON'
p870
(S'DONELSON ST'
p871
I92
I17470
tp872
sS'AT- LANTIC AV'
p873
(g107
I89
I16035
tp874
sS'PLAINFIELD'
p875
(g351
I93
I17994
tp876
sS'95 PLEAS- ANT VALLEY PKWY'
p877
(S'VALLEY ST'
p878
I71
I17693
tp879
sS'SEEKONK'
p880
(S'SEEKONK ST'
p881
I91
I17097
tp882
sS'I- ALLEN6S AV'
p883
(g572
I87
I15768
tp884
sS'VEAZIE'
p885
(S'VEAZIE ST'
p886
I90
I16515
tp887
sS'WESTMINSTER 16TH'
p888
(g29
I93
I15991
tp889
sS'J CO THE 236 ABORN TE-L DEXTER LOOO-FOR FURTHER INFORMATION SEE PAGE 31 BUYERS GUIDE'
p890
(g35
I44
I16362
tp891
sS'SPRING'
p892
(S'SPRING ST'
p893
I90
I16465
tp894
sS'ABBOTT PARK D1'
p895
(S'ABBOTT PARK PL'
p896
I93
I15762
tp897
sS'STJAMES'
p898
(S'ST JAMES CT'
p899
I80
I16468
tp900
sS'INC 29 WEYBOSSET'
p901
(g5
I82
I15992
tp902
sS'W CLIFFORD'
p903
(S'WEST CLIFFORD ST'
p904
I95
I17344
tp905
sS'WESTMINSTER VRM 1002'
p906
(g29
I85
I15991
tp907
sS'LYMAH'
p908
(S'LYMAN ST'
p909
I71
I15897
tp910
sS'DE- SOTO'
p911
(g393
I77
I17823
tp912
sS'TORONTO AV'
p913
(S'TORONTO AVE'
p914
I97
I16840
tp915
sS'BROAD'
p916
(g361
I88
I15793
tp917
sS'GROOM'
p918
(S'BROOM ST'
p919
I71
I16605
tp920
sS'MINER'
p921
(g372
I88
I16342
tp922
sS"WEYBOSSET RMS 525-526-FOR FURTHER INFORMA- TION SEE PAGE 94 BUYERS' GUIDE"
p923
(g5
I64
I15992
tp924
sS'CROSS'
p925
(S'CROSS ST'
p926
I88
I16129
tp927
sS'2D'
p928
(S'2ND ST'
p929
I65
I16872
tp930
sS'CRANSTON AT FIELD, CRANSTON'
p931
(g348
I79
I15817
tp932
sS', CRANSTON'
p933
(g348
I92
I15817
tp934
sS'PINE 2ND FL'
p935
(g154
I78
I15933
tp936
sS'OLNEY'
p937
(S'OLNEY ST'
p938
I88
I16377
tp939
sS'MINSTER'
p940
(g372
I75
I16342
tp941
sS'ROBINSON'
p942
(S'ROBINSON ST'
p943
I92
I16798
tp944
sS'WESTMINSTER RM8'
p945
(g29
I91
I15991
tp946
sS'WASHINGTON AV'
p947
(S'WASHINGTON AVE'
p948
I98
I16854
tp949
sS'EDDY 2D'
p950
(g720
I85
I15834
tp951
sS'PAYTON'
p952
(S'PAYTON ST'
p953
I90
I16773
tp954
sS'HARRISON'
p955
(S'HARRISON ST'
p956
I92
I17226
tp957
sS'318 BWAY'
p958
(g212
I83
I21699
tp959
sS'CLUB 143 WASH'
p960
(S'COLUMBIA AV'
p961
I58
I16627
tp962
sS'ABORN'
p963
(S'ABORN ST'
p964
I88
I15763
tp965
sS'WEI TER'
p966
(S'WEISS CT'
p967
I71
I16855
tp968
sS'WESTMINSTER AND 572 ELMWOOD AV'
p969
(g29
I77
I15991
tp970
sS'MAWNEY'
p971
(S'MAWNEY ST'
p972
I90
I17261
tp973
sS'-1086 WESTMINSTER'
p974
(g29
I86
I15991
tp975
sS'LAURA'
p976
(S'LAUDER AVE'
p977
I70
I6877
tp978
sS'KINGSLEY AV.'
p979
(S'KINSLEY AVE'
p980
I92
I15889
tp981
sS'NELSON'
p982
(S'NELSON ST'
p983
I90
I17603
tp984
sS'MATHEW- SON AND 286 WESTMINSTER'
p985
(g29
I75
I15991
tp986
sS'PLAIN AND 76 DORRANCE'
p987
(g151
I75
I15829
tp988
sS'CRARY'
p989
(S'CRARY ST'
p990
I88
I15818
tp991
sS'-211'
p992
(S'11TH ST'
p993
I48
I16869
tp994
sS'ELMWOOD'
p995
(g264
I89
I17207
tp996
sS'WILLIAMS'
p997
(S'WILLIAMS ST'
p998
I92
I15997
tp999
sS'18-24 CLIFF'
p1000
(S'CLIFF ST'
p1001
I76
I17441
tp1002
sS'ABBOTT PARK 01 AND 46 CHESTNUT'
p1003
(g195
I69
I15807
tp1004
sS'AT- WELLS AV'
p1005
(g140
I87
I15775
tp1006
sS'WESTMIN- STER'
p1007
(g29
I81
I15991
tp1008
sS'DERRY'
p1009
(S'DERRY ST'
p1010
I88
I17466
tp1011
sS'LAVAUGHN'
p1012
(S'LAVAUGHN ST'
p1013
I92
I17927
tp1014
sS'E1 CHANGE PL'
p1015
(g255
I78
I15845
tp1016
sS'DOUGLAS AV'
p1017
(S'DOUGLAS AVE'
p1018
I97
I16154
tp1019
sS"' PLAINFIELD"
p1020
(g351
I93
I17994
tp1021
sS'-39-41 ONTARIO'
p1022
(S'ONTARIO ST'
p1023
I80
I17277
tp1024
sS'EAST AV'
p1025
(S'EAST ST'
p1026
I85
I15833
tp1027
sS'STENTON AV'
p1028
(S'STENTON AVE'
p1029
I97
I17104
tp1030
sS'69 RICHMOND'
p1031
(g246
I86
I15946
tp1032
sS'WEYBOSSET TELAGASPEE 1391 -FOR FURTHER INFORMATION SEE PAGE'
p1033
(g35
I46
I16362
tp1034
sS'WESTMINSTER 5TH FL'
p1035
(g29
I90
I15991
tp1036
sS'71 RICHMOND'
p1037
(g246
I86
I15946
tp1038
sS'COLFAX'
p1039
(S'COLFAX ST'
p1040
I90
I16626
tp1041
sS'AR- CADE BLDG'
p1042
(g286
I73
I15773
tp1043
sS'WHITEHALL'
p1044
(S'WHITEHALL ST'
p1045
I93
I18106
tp1046
sS"BROOK J *G'ARBURETOR & FUEL PUMP SERVICE"
p1047
(S'ARBOR DR'
p1048
I51
I17380
tp1049
sS'WAYLAND AV'
p1050
(S'WAYLAND AVE'
p1051
I97
I17125
tp1052
sS'WESTMINSTEPTELS GASPEE 6952 AND 6956'
p1053
(g29
I62
I15991
tp1054
sS'WEY- DOSSGT'
p1055
(g5
I58
I15992
tp1056
sS'GREENE'
p1057
(S'GREENE ST'
p1058
I90
I15866
tp1059
sS'THE 236 ABORNTTET DEXTER'
p1060
(g964
I57
I15763
tp1061
sS'WE STER'
p1062
(g269
I72
I17127
tp1063
sS'PINE 3DFL'
p1064
(g154
I81
I15933
tp1065
sS'REAR 825 HOPE'
p1066
(S'PEARL AVE'
p1067
I56
I16394
tp1068
sS'STEWART'
p1069
(g547
I91
I15963
tp1070
sS'WASH LST 11'
p1071
(g101
I76
I21700
tp1072
sS'MORRIS AV'
p1073
(S'MORRIS AVE'
p1074
I97
I17047
tp1075
sS"FOUNTAIN TOWER I'OOIIL"
p1076
(g367
I80
I15853
tp1077
sS'ALTHEA'
p1078
(S'ALTHEA ST'
p1079
I90
I17152
tp1080
sS'MONT- GOMERY AV'
p1081
(S'MONTGOMERY AV'
p1082
I85
I16739
tp1083
sS'ACORN, 59 BALBO AV, 555 CHARLES AND 281 P0- CASSET AV'
p1084
(g95
I66
I16096
tp1085
sS'INC 93 BUCKLIN'
p1086
(S'BUCKLIN ST'
p1087
I79
I17171
tp1088
sS'WASHINGTON'
p1089
(g333
I93
I15986
tp1090
sS'PLAINIIELD'
p1091
(g351
I84
I17994
tp1092
sS'HOMESTEAD AV'
p1093
(S'HOMESTEAD AVE'
p1094
I98
I17234
tp1095
sS'ALGER AV'
p1096
(S'ALGER AVE'
p1097
I97
I17150
tp1098
sS'DYER'
p1099
(S'DYER ST'
p1100
I86
I15831
tp1101
sS'ARMINGTON EDGEWOOD RI'
p1102
(g669
I82
I17384
tp1103
sS"198 PRAIRIE AV'"
p1104
(g863
I90
I16787
tp1105
sS'THE 434 CENTRAL AV'
p1106
(S'CENTRAL AVE'
p1107
I84
I16095
tp1108
sS'FORD'
p1109
(S'FORD ST'
p1110
I86
I17212
tp1111
sS'KNIGHT STREET CENTER 376 KNIGHT'
p1112
(S'KNIGHT ST'
p1113
I72
I15890
tp1114
sS'PECK 6TH A'
p1115
(S'PECK ST'
p1116
I85
I15928
tp1117
sS'ALLENS AV'
p1118
(g572
I97
I15768
tp1119
sS'-197 WESTMINSTER'
p1120
(g29
I88
I15991
tp1121
sS'BLACK- STONE BLVD'
p1122
(S'BLACKSTONE BLVD'
p1123
I82
I16904
tp1124
sS'SANSOUCI'
p1125
(S'SAN SOUCI DR'
p1126
I78
I18028
tp1127
sS"EDDY 'SAMPLE TRAYS-JEWELERS"
p1128
(g684
I52
I17911
tp1129
sS'OXFORD-'
p1130
(g98
I90
I16764
tp1131
sS'N MAIN 4TH,TL'
p1132
(g20
I90
I15916
tp1133
sS'MANTON AV'
p1134
(S'MANTON AVE'
p1135
I97
I17947
tp1136
sS'SABIN RMS 9-10'
p1137
(g565
I82
I15950
tp1138
sS'BRAY- TON AV'
p1139
(g294
I82
I15791
tp1140
sS'ORMS AND 166 OAK- LAND AV'
p1141
(g11
I66
I16384
tp1142
sS'INC 157 WESTMINSTER RM'
p1143
(g29
I83
I15991
tp1144
sS'CRAWFORD'
p1145
(g765
I69
I15790
tp1146
sS'HOSPITAL'
p1147
(S'HOSPITAL ST'
p1148
I92
I15878
tp1149
sS'H TOOL SUPPLY CO 190 S WATER'
p1150
(S'POLLY ST'
p1151
I45
I17996
tp1152
sS'-359 FOUNTAIN'
p1153
(g367
I85
I15853
tp1154
sS'DELAINE'
p1155
(S'DELAINE ST'
p1156
I91
I17822
tp1157
sS'N MAIN 4TH 2'
p1158
(g20
I91
I15916
tp1159
sS'GREENWICH'
p1160
(S'GREENWICH ST'
p1161
I93
I17220
tp1162
sS'OLNEYVILLE SQ RM3'
p1163
(S'OLNEYVILLE SQ'
p1164
I93
I17978
tp1165
sS'ORMSBEE AV'
p1166
(g11
I66
I16384
tp1167
sS'202 NATIONAL . BANK OF COMMERCE BLDG'
p1168
(S'NATURAL HISTORY WY'
p1169
I51
I16748
tp1170
sS'THURBERS AV'
p1171
(S'THURBERS AVE'
p1172
I98
I16839
tp1173
sS'WEST AV'
p1174
(g279
I85
I15990
tp1175
sS'ATWELLS AV'
p1176
(g140
I97
I15775
tp1177
sS'-30 GREENE'
p1178
(g1058
I83
I15866
tp1179
sS'PALLAS'
p1180
(S'PALLAS ST'
p1181
I90
I15924
tp1182
sS'CHESTER AV'
p1183
(S'CHESTER AVE'
p1184
I97
I16619
tp1185
sS'CANAL, 26 N MAIN'
p1186
(g305
I76
I15798
tp1187
sS'S WATER'
p1188
(S'SOUTH WATER ST'
p1189
I94
I15949
tp1190
sS'PAVILION AV'
p1191
(S'PAVILION AVE'
p1192
I98
I16770
tp1193
sS'SHARON'
p1194
(S'SHARON DR'
p1195
I90
I16447
tp1196
sS'CO 387 CHARLES'
p1197
(g95
I79
I16096
tp1198
sS'CRANSTOXF'
p1199
(g348
I76
I15817
tp1200
sS'OAK'
p1201
(S'OAK ST'
p1202
I83
I17974
tp1203
sS'PARADE'
p1204
(g771
I90
I17278
tp1205
sS'SMITH- FIELD AV'
p1206
(S'SMITH HILL ST'
p1207
I83
I15956
tp1208
sS'BROWN'
p1209
(g218
I88
I16073
tp1210
sS'ALLEMS AV'
p1211
(g572
I83
I15768
tp1212
sS'SHIP 2D FL'
p1213
(S'SHIP ST'
p1214
I79
I15955
tp1215
sS'WTIYBOSSET'
p1216
(g5
I78
I15992
tp1217
sS'WHITTIER AV'
p1218
(S'WHITTIER AVE'
p1219
I98
I18107
tp1220
sS'GESLER'
p1221
(S'GESLER ST'
p1222
I90
I17864
tp1223
sS'SMITH MOFFITT WM A 278 PUBLIC MOORE ANGUS M 910 MANTON AV'
p1224
(S'MOTT ST'
p1225
I47
I17966
tp1226
sS'BRANCH AV'
p1227
(S'BRANCH AVE'
p1228
I97
I16067
tp1229
sS'FARMINGTON'
p1230
(S'FARMINGTON AVE'
p1231
I91
I17853
tp1232
sS'CHALK- STONE AV'
p1233
(S'CHARLTON AVE'
p1234
I69
I6719
tp1235
sS'RICHMOND AND 169 PINE'
p1236
(g246
I78
I15946
tp1237
sS'LORIMER AV'
p1238
(S'LORIMER AVE'
p1239
I97
I17028
tp1240
sS"WESTMG'PSTER"
p1241
(g279
I77
I15990
tp1242
sS'WELLINGTON AV'
p1243
(S'WELLINGTON AVE'
p1244
I98
I17352
tp1245
sS'PENNSYLVANIA AV'
p1246
(S'PENNSYLVANIA AVE'
p1247
I98
I16776
tp1248
sS'. WASH'
p1249
(g101
I100
I21700
tp1250
sS'SOMERSET'
p1251
(S'SOMERSET ST'
p1252
I92
I17325
tp1253
sS'10TH'
p1254
(S'10TH ST'
p1255
I86
I16868
tp1256
sS'-149 WASH'
p1257
(g101
I83
I21700
tp1258
sS'URWSEA 115 EMPIRE'
p1259
(S'SUNRISE DR'
p1260
I53
I17677
tp1261
sS'LINDEN'
p1262
(S'LINDEN DR'
p1263
I90
I17023
tp1264
sS'PRAIRIE AV'
p1265
(g863
I97
I16787
tp1266
sS'CENTRAL'
p1267
(S'CENTRAL ST'
p1268
I91
I16616
tp1269
sS'NIANTIC AV'
p1270
(S'NIANTIC AVE'
p1271
I97
I17274
tp1272
sS'HUMBOLDT AV'
p1273
(S'HUMBOLDT AVE'
p1274
I98
I17003
tp1275
sS'CHALKSTON'
p1276
(S'CHALKSTONE AVE'
p1277
I86
I17433
tp1278
sS'160 DOR- RANCE'
p1279
(g151
I72
I15829
tp1280
sS'FOUNTAIN AND 5 EDDY'
p1281
(g367
I80
I15853
tp1282
sS'ROSEDALE'
p1283
(S'ROSEDALE ST'
p1284
I92
I18017
tp1285
sS'BRAYTON AV'
p1286
(g294
I97
I15791
tp1287
sS'WASH RM  23'
p1288
(g101
I78
I21700
tp1289
sS'BURRINGTON'
p1290
(S'BURLINGTON ST'
p1291
I84
I16914
tp1292
sS'MA.- THEWSON AND 26 SNOW'
p1293
(g160
I76
I15904
tp1294
sS'ORMSBEE 2D FL'
p1295
(g11
I61
I16384
tp1296
sS'SHIP'
p1297
(g1214
I86
I15955
tp1298
sS'287-289 PEARL'
p1299
(g750
I74
I16774
tp1300
sS'CALHOUN AV'
p1301
(S'CALHOUN AVE'
p1302
I97
I17176
tp1303
sS'PLAIN- FIELD'
p1304
(g529
I81
I15934
tp1305
sS'WYESTMINSR TER'
p1306
(g29
I82
I15991
tp1307
sS'CRANSTON CRANSTON'
p1308
(g348
I89
I15817
tp1309
sS'DIA- MOND'
p1310
(S'DIAMOND ST'
p1311
I75
I17199
tp1312
sS'AND 250 WESTMINSTER AND 130 WASH'
p1313
(g29
I78
I15991
tp1314
sS'DOR- RANCE'
p1315
(g151
I78
I15829
tp1316
sS'NARRAGANSET AV'
p1317
(S'NARRAGANSETT AV'
p1318
I96
I17270
tp1319
sS'TRANSIT'
p1320
(S'TRANSIT ST'
p1321
I91
I15975
tp1322
sS'WEST EXCHANGE'
p1323
(g345
I95
I15982
tp1324
sS'SLOCUM'
p1325
(S'SLOCUM ST'
p1326
I90
I18043
tp1327
sS'BROADCASTING STATIONS 15 CHESTNUT'
p1328
(g143
I52
I16070
tp1329
sS'A N MAIN'
p1330
(g20
I90
I15916
tp1331
sS'PROMEN- ADE'
p1332
(g524
I81
I17630
tp1333
sS'JUDITH'
p1334
(S'JUDITH ST'
p1335
I90
I17913
tp1336
sS'EXDHANGE'
p1337
(g255
I81
I15845
tp1338
sS'ALBEE THEATRE 320 WESTMINSTER'
p1339
(g29
I75
I15991
tp1340
sS'KILLINGLY'
p1341
(S'KILLINGLY ST'
p1342
I93
I17917
tp1343
sS'BRIDGE'
p1344
(S'BRIDGE ST'
p1345
I90
I15792
tp1346
sS'WESTMIN-'
p1347
(g29
I72
I15991
tp1348
sS'87-93 EMPIRE, 22-30 ABORN'
p1349
(S'EMPIRE PLAZA'
p1350
I72
I15839
tp1351
sS'-955 EDDY'
p1352
(g720
I76
I15834
tp1353
sS'ATWELL GASPEE 3358'
p1354
(g140
I77
I15775
tp1355
sS'ELMHURST AV'
p1356
(S'ELMHURST AVE'
p1357
I98
I17482
tp1358
sS'EDDY AND 3 LOCKWOOD'
p1359
(S'LOCKWOOD ST'
p1360
I76
I15895
tp1361
sS'STANIFORD'
p1362
(S'STANIFORD ST'
p1363
I93
I16824
tp1364
sS'CHAPIN AV'
p1365
(g23
I97
I17800
tp1366
sS'TX- CHANGE PL'
p1367
(g255
I78
I15845
tp1368
sS'.BROAD'
p1369
(g361
I88
I15793
tp1370
sS'WESTMIN- STER AND 109 WASH'
p1371
(g29
I72
I15991
tp1372
sS'-673 WEST- MINSTER'
p1373
(g29
I75
I15991
tp1374
sS'ALLERFS AV'
p1375
(g572
I78
I15768
tp1376
sS'EMPIRE'
p1377
(g516
I90
I15840
tp1378
sS"WESTMINSTER'RM 16"
p1379
(g29
I88
I15991
tp1380
sS"LAURISTON'"
p1381
(g163
I93
I17020
tp1382
sS'CUM- BERLAND'
p1383
(S'CUMBERLAND ST'
p1384
I82
I17457
tp1385
sS'WEYBOSSET 300 GROSVE- NOR BLDG'
p1386
(g5
I77
I15992
tp1387
sS'EMNIRE'
p1388
(g516
I75
I15840
tp1389
sS"'N MAIN"
p1390
(g20
I93
I15916
tp1391
sS'WATERMAN'
p1392
(g866
I92
I15988
tp1393
sS'EMPIRE 3D FL'
p1394
(g1350
I83
I15839
tp1395
sS'POT- TEFS AV'
p1396
(g146
I68
I16786
tp1397
sS'.ABORN'
p1398
(g964
I88
I15763
tp1399
sS'CAMP'
p1400
(g813
I86
I16917
tp1401
sS'MILES AV'
p1402
(S'MILES AVE'
p1403
I97
I17044
tp1404
sS'LAUREL AV'
p1405
(S'LAUREL AVE'
p1406
I97
I17018
tp1407
sS'PINE 5TH FL'
p1408
(g154
I83
I15933
tp1409
sS'BEN- EFIT'
p1410
(g385
I75
I15781
tp1411
sS'HOWELL'
p1412
(g470
I90
I17002
tp1413
sS'N MAIN 4TH 11'
p1414
(g20
I90
I15916
tp1415
sS'EDDY 3D FL'
p1416
(g720
I79
I15834
tp1417
sS'-14 SMITH'
p1418
(g252
I81
I16457
tp1419
sS'POE'
p1420
(S'POE ST'
p1421
I83
I16783
tp1422
sS'CUSTOM HOUSE-ST'
p1423
(S'CUSTOM HOUSE ST'
p1424
I100
I15820
tp1425
sS'W ESTMINSTER'
p1426
(g29
I85
I15991
tp1427
sS'204 HARTFORD AV'
p1428
(S'HARTFORD AVE'
p1429
I90
I17889
tp1430
sS'WOOLWORTH .BLDG 187 WESTMINSTER'
p1431
(g29
I75
I15991
tp1432
sS'BERKSHIRE'
p1433
(S'BERKSHIRE ST'
p1434
I93
I17402
tp1435
sS'THOS S & VINCENT LU- ONGO MEM SQ'
p1436
(S'VINCENT ST'
p1437
I71
I17701
tp1438
sS'JULIAN'
p1439
(S'JULIAN ST'
p1440
I90
I17914
tp1441
sS'PINE 4TH FL'
p1442
(g154
I83
I15933
tp1443
sS'A PRAIRIE AV'
p1444
(g863
I93
I16787
tp1445
sS'TAUNTON AV'
p1446
(g1135
I78
I17947
tp1447
sS'WEYBOS- SET RM1'
p1448
(g5
I78
I15992
tp1449
sS'PLEASANT'
p1450
(g493
I92
I16399
tp1451
sS'- WATERMAN'
p1452
(g866
I92
I15988
tp1453
sS'WES MINSTER'
p1454
(g29
I79
I15991
tp1455
sS'HEATH'
p1456
(S'HEATH ST'
p1457
I88
I17891
tp1458
sS'1153-1155 WESTMINSTER'
p1459
(g29
I81
I15991
tp1460
sS'FRANK- LIN'
p1461
(S'FRANK ST'
p1462
I85
I15855
tp1463
sS'BURRILL'
p1464
(S'BURRS LN'
p1465
I67
I16076
tp1466
sS'POTTERS AV'
p1467
(g146
I97
I16786
tp1468
sS'CONGDON'
p1469
(S'CONGDON ST'
p1470
I91
I16932
tp1471
sS'MATHEWSON RM. 201'
p1472
(g160
I85
I15904
tp1473
sS'BELLEVUE AV'
p1474
(S'BELLEVUE AVE'
p1475
I98
I16051
tp1476
sS'ALLELFS AV'
p1477
(g572
I78
I15768
tp1478
sS'ATWELPS AV'
p1479
(g140
I86
I15775
tp1480
sS'754-756 BROAD'
p1481
(g361
I74
I15793
tp1482
sS'AND 214 PRAIRIE AV'
p1483
(g863
I84
I16787
tp1484
sS"WESTMINSTER I'IIL 305"
p1485
(g29
I84
I15991
tp1486
sS'171 ANGELL'
p1487
(g845
I81
I16022
tp1488
sS'SABIN ELEV A'
p1489
(g565
I80
I15950
tp1490
sS'SAWYER'
p1491
(S'SLATER ST'
p1492
I60
I7046
tp1493
sS"WESTMINSTER TEL4 GASPEE 9282-F0R FURTHER INFORMA- TION SEE PAGE 103 BUYERS' GUIDE AND LEFT TOP LINES"
p1494
(g29
I62
I15991
tp1495
sS'PEARSON AV'
p1496
(S'PATERSON ST'
p1497
I73
I17069
tp1498
sS'BWAY RM'
p1499
(g212
I86
I21699
tp1500
sS'ALLEWS AV'
p1501
(g572
I83
I15768
tp1502
sS'UDELL'
p1503
(S'UDELL ST'
p1504
I88
I16506
tp1505
sS'WESTMINSI TER'
p1506
(g29
I80
I15991
tp1507
sS'FRIENDSHIP 2ND'
p1508
(g328
I90
I15858
tp1509
sS'OSBORN'
p1510
(S'OSBORN ST'
p1511
I90
I17616
tp1512
sS'PROSPECT'
p1513
(S'PROSPECT ST'
p1514
I92
I16409
tp1515
sS'ARCADE BLDG'
p1516
(g286
I85
I15773
tp1517
sS'MATHEWSON RMS 605-606'
p1518
(g160
I83
I15904
tp1519
sS'WEYBOS SET'
p1520
(g5
I81
I15992
tp1521
sS'SISSON'
p1522
(S'SISSON ST'
p1523
I90
I18042
tp1524
sS'POTTEFS AV'
p1525
(g146
I86
I16786
tp1526
sS'& BROAD'
p1527
(g361
I88
I15793
tp1528
sS'-814 ALLENS AV'
p1529
(g572
I89
I15768
tp1530
sS'A SMITH'
p1531
(g252
I83
I16457
tp1532
sS'CLAREMONT AV'
p1533
(S'CLAREMONT AVE'
p1534
I98
I17438
tp1535
sS'ARCADE BLDS'
p1536
(g286
I90
I15773
tp1537
sS"BROAD-FOR FURTHER INFORMATION SEE PAGE 142 BUYERS' GUIDE"
p1538
(g35
I48
I16362
tp1539
sS"EXCHANGE PL 'RM 509"
p1540
(S'EXCHANGE TER'
p1541
I83
I15846
tp1542
sS'70 SHIP'
p1543
(g1214
I78
I15955
tp1544
sS'MARLBOROUGH AV'
p1545
(S'MARLBOROUGH AVE'
p1546
I98
I17259
tp1547
sS'& THAYER'
p1548
(g64
I90
I17112
tp1549
sS'WEY- BOSSET OPP THE ARCADE'
p1550
(g5
I69
I15992
tp1551
sS'IVES AND 355 AN-'
p1552
(g588
I72
I17007
tp1553
sS'BROOLI'
p1554
(S'BROOK ST'
p1555
I65
I15795
tp1556
sS'186 BWAY'
p1557
(g212
I83
I21699
tp1558
sS'WESTMINSTER COR DORRANCE'
p1559
(g29
I81
I15991
tp1560
sS'VIOLA'
p1561
(S'VIOLA ST'
p1562
I88
I18091
tp1563
sS'GLENBRIDGE AV'
p1564
(S'GLENBRIDGE AVE'
p1565
I98
I17868
tp1566
sS'" CALVERLEY'
p1567
(S'CALVERLY ST'
p1568
I87
I17419
tp1569
sS'GLOBE'
p1570
(S'GLOBE ST'
p1571
I88
I15865
tp1572
sS'CHARLES'
p1573
(g95
I91
I16096
tp1574
sS'LANGDON'
p1575
(S'LANGDON ST'
p1576
I91
I16272
tp1577
sS'LLOYD AV'
p1578
(S'LLOYD AVE'
p1579
I97
I17025
tp1580
sS'ALDRICH'
p1581
(S'ALDRICH ST'
p1582
I91
I16559
tp1583
sS'BUSH'
p1584
(S'BRUSH HILL RD'
p1585
I68
I17786
tp1586
sS'G POLK'
p1587
(g1151
I55
I17996
tp1588
sS'LENNON'
p1589
(S'LENNON ST'
p1590
I90
I17563
tp1591
sS'POWER RD FACTORY 310 OWEN AV'
p1592
(g258
I53
I17058
tp1593
sS'CHARLES, 771 N MAIN AND 1055 SMITH'
p1594
(g95
I71
I16096
tp1595
sS'8'
p1596
(S'8TH ST'
p1597
I39
I16878
tp1598
sS'WESTMINSTER AM 201'
p1599
(g29
I87
I15991
tp1600
sS'FRANCIS'
p1601
(S'FRANCIS ST'
p1602
I91
I17503
tp1603
sS'I RESERVOIR AV'
p1604
(g80
I94
I17303
tp1605
sS'VIR-V GINIA AV'
p1606
(g715
I81
I16849
tp1607
sS'; GORDON AV'
p1608
(g703
I97
I16675
tp1609
sS"'DORRANCE"
p1610
(g151
I92
I15829
tp1611
sS'TAPPAN'
p1612
(S'TAPPAN ST'
p1613
I90
I17680
tp1614
sS'HAM'
p1615
(S'OLDHAM ST'
p1616
I58
I15920
tp1617
sS'CRANSTON AT FIELD CRANSTON'
p1618
(g348
I79
I15817
tp1619
sS'EXCHANGE PLACE'
p1620
(g1541
I88
I15846
tp1621
sS'A1- LEN,S AV'
p1622
(g630
I76
I15959
tp1623
sS'WESTMINSTER,'
p1624
(g29
I94
I15991
tp1625
sS'369 ELMWOOD AV'
p1626
(g264
I90
I17207
tp1627
sS'TERMINAL WAY'
p1628
(S'TERMINAL RD'
p1629
I89
I16838
tp1630
sS"A'TWELLS AV"
p1631
(g140
I91
I15775
tp1632
sS'HAMILTON'
p1633
(S'HAMILTON ST'
p1634
I92
I17223
tp1635
sS'HAWK- INS'
p1636
(S'HAWKINS ST'
p1637
I75
I16223
tp1638
sS'CAMDEN AV'
p1639
(g52
I97
I17421
tp1640
sS'SARGENT AV'
p1641
(S'SARGENT AVE'
p1642
I97
I17095
tp1643
sS'-BEVERLY'
p1644
(S'BEVERLY ST'
p1645
I91
I15783
tp1646
sS'WEY- BOSSET'
p1647
(g5
I81
I15992
tp1648
sS'5 MANTON AV'
p1649
(g1135
I93
I17947
tp1650
sS'792 WESTMINSTER'
p1651
(g29
I88
I15991
tp1652
sS'-61 CANAL'
p1653
(g305
I81
I15798
tp1654
sS'WARMERS 1A'
p1655
(S'WARNERS LN'
p1656
I78
I15985
tp1657
sS'JEWETT'
p1658
(S'JEWETT ST'
p1659
I90
I17549
tp1660
sS'& J ACKSON'
p1661
(g315
I85
I16253
tp1662
sS'AND 472 SMITH 291'
p1663
(g252
I74
I16457
tp1664
sS'9'
p1665
(S'I 95'
p1666
I53
I15881
tp1667
sS'WINTER .'
p1668
(S'WINTER ST'
p1669
I90
I15999
tp1670
sS'PROMENADE'
p1671
(g524
I93
I17630
tp1672
sS'WICKENDEN'
p1673
(S'WICKENDEN ST'
p1674
I93
I15995
tp1675
sS'I POCASSET-AV'
p1676
(g652
I94
I17995
tp1677
sS'X ALGONQUIN'
p1678
(g122
I89
I17151
tp1679
sS'SPOONER'
p1680
(S'SPOONER ST'
p1681
I91
I17326
tp1682
sS'INC 136 RHODES'
p1683
(S'RHODES ST'
p1684
I76
I15945
tp1685
sS'LONGMONT'
p1686
(S'LONGMONT ST'
p1687
I92
I17571
tp1688
sS'WESTMINSTER 227 HOWARD BLDG'
p1689
(g29
I79
I15991
tp1690
sS'SAYLES'
p1691
(S'SAYLES ST'
p1692
I90
I16809
tp1693
sS'GORDON AV'
p1694
(g703
I97
I16675
tp1695
sS'ALMY'
p1696
(S'ALMY ST'
p1697
I86
I17741
tp1698
sS'FRIEND- SHIP 3D FL'
p1699
(g328
I74
I15858
tp1700
sS'GILES 61'
p1701
(g1403
I69
I17044
tp1702
sS'CHESTNUT, 123 CLIFFORD AND 64 ATWELLS AV'
p1703
(g195
I70
I15807
tp1704
sS'TRAVERSE'
p1705
(S'TRAVERSE ST'
p1706
I92
I17117
tp1707
sS"W'ESTMINSTER"
p1708
(g29
I85
I15991
tp1709
sS'BASSETT'
p1710
(S'BASSETT ST'
p1711
I91
I15777
tp1712
sS'SHAWMUT'
p1713
(S'SHAW ST'
p1714
I72
I16448
tp1715
sS"ANGELL, 434 SMITH AND 1 OLNEYVILLE SQ-FOR FURTHER IN- FORMATION SEE PAGE 25 BUYERS' GUIDE AND LEFT BOTTOM LINES"
p1716
(g1164
I60
I17978
tp1717
sS'CHEST- NUT'
p1718
(g195
I78
I15807
tp1719
sS'WASH AND 109-111 MATHEWSON'
p1720
(g160
I73
I15904
tp1721
sS'KNIGHT W'
p1722
(g1113
I95
I15890
tp1723
sS'GLOBE AT WATER FRONT'
p1724
(g1571
I75
I15865
tp1725
sS'FRUIT HILL AV'
p1726
(S'FRUIT HILL AVE'
p1727
I98
I16192
tp1728
sS'12TH FLOOR TURKS HEAD BLDG'
p1729
(S'FLORA ST'
p1730
I57
I16182
tp1731
sS'STANWOOD'
p1732
(S'STANWOOD ST'
p1733
I92
I17331
tp1734
sS'ARMISTICE BLVD PAWTUCKET'
p1735
(S'KRISTEN CT'
p1736
I55
I16269
tp1737
sS'VERMONT AV'
p1738
(S'VERMONT AVE'
p1739
I97
I16845
tp1740
sS'MELROSE'
p1741
(S'MELROSE ST'
p1742
I91
I17263
tp1743
sS'EAGLE'
p1744
(g137
I88
I17477
tp1745
sS'FOUNTAIN COR ABORN'
p1746
(g367
I81
I15853
tp1747
sS"WOONASQUATUC KET AV'"
p1748
(S'WOONASQUATUCKET AV'
p1749
I93
I18113
tp1750
sS'MATHEW 504'
p1751
(g552
I81
I17587
tp1752
sS'-236 BUTLER AV'
p1753
(S'BUTLER AVE'
p1754
I89
I16915
tp1755
sS'217 CHAPMAN'
p1756
(S'CHAPMAN ST'
p1757
I83
I16617
tp1758
sS'& POCAS- SET AV'
p1759
(g652
I84
I17995
tp1760
sS'POINT AND 183 PUBLIC'
p1761
(S'NOT A PUBLIC WAY'
p1762
I80
I17057
tp1763
sS'LAUREL HILL AV'
p1764
(S'LAUREL ST'
p1765
I80
I6878
tp1766
sS'3'
p1767
(S'3RD ST'
p1768
I39
I16873
tp1769
sS'BROAD, 165 CHARLES, 81 DYER, 51 FOX POINT BLVD AND 40 RESERVOIR AV'
p1770
(g80
I66
I17303
tp1771
sS'PINE 3D FL'
p1772
(g154
I79
I15933
tp1773
sS'; DEXTER'
p1774
(S'DEXTER CT'
p1775
I90
I6756
tp1776
sS'CODDING'
p1777
(S'GOULDING ST'
p1778
I61
I16982
tp1779
sS'258-262 PINE PAWTUCKET R I'
p1780
(g55
I62
I16771
tp1781
sS'ELMGROVE AV'
p1782
(S'ELMGROVE AVE'
p1783
I98
I16960
tp1784
sS'-232 WEYBOSSET'
p1785
(g5
I86
I15992
tp1786
sS'WATER- MAN'
p1787
(g866
I78
I15988
tp1788
sS'P0'
p1789
(g1421
I32
I16783
tp1790
sS'EDDY M 508'
p1791
(g720
I79
I15834
tp1792
sS'BUYERS4 GUIDE AND RIGHT TOP CORNER CARDS'
p1793
(S'BURNS ST'
p1794
I46
I16075
tp1795
sS'BWAY, 68 DORRANDE, 191 WASH AND 785 WESTMINSTER'
p1796
(g29
I68
I15991
tp1797
sS'-10 ORMS .'
p1798
(g11
I78
I16384
tp1799
sS'; CHESTNUT'
p1800
(g195
I92
I15807
tp1801
sS"S MAIN '"
p1802
(g342
I93
I15948
tp1803
sS'NATIONAL BANK OF COMMERCE BLDG'
p1804
(g1169
I52
I16748
tp1805
sS'ACAD- EMY AV'
p1806
(g641
I82
I17365
tp1807
sS'WEST- MINSTER.'
p1808
(g29
I81
I15991
tp1809
sS'RIVER AV'
p1810
(S'RIVER AVE'
p1811
I97
I16423
tp1812
sS'DOYLE AV'
p1813
(S'DOYLE AVE'
p1814
I97
I16946
tp1815
sS'WESTMINSTER AND 11 WEYBOSSET'
p1816
(g29
I83
I15991
tp1817
sS'A1- LEN S AV'
p1818
(g630
I76
I15959
tp1819
sS'CLIFFORD'
p1820
(S'CLIFFORD ST'
p1821
I92
I15811
tp1822
sS"WAFVLAND'AV"
p1823
(g1051
I81
I17125
tp1824
sS'LAWRENCE'
p1825
(S'LAWRENCE ST'
p1826
I92
I16274
tp1827
sS'A BROAD'
p1828
(g361
I83
I15793
tp1829
sS'OXFORD.'
p1830
(g98
I90
I16764
tp1831
sS'PETTEYS AV'
p1832
(S'PETTEYS AVE'
p1833
I97
I17990
tp1834
sS'GREELEY'
p1835
(S'GREELEY ST'
p1836
I91
I16212
tp1837
sS'WESTMINSTER RMB'
p1838
(g29
I91
I15991
tp1839
sS'EDDY AND 71 WILLARD'
p1840
(S'WILLARD ST'
p1841
I74
I16545
tp1842
sS'BAS- SETT'
p1843
(g1711
I75
I15777
tp1844
sS'BOWEN'
p1845
(S'BOWEN ST'
p1846
I88
I15789
tp1847
sS'DORRANCE 5TH'
p1848
(g151
I93
I15829
tp1849
sS"E'DDY"
p1850
(S'EAST DR'
p1851
I90
I16159
tp1852
sS'PONTIAC'
p1853
(S'PONTIAC AVE'
p1854
I89
I17292
tp1855
sS'ORMSBEE LST FL'
p1856
(g11
I70
I16384
tp1857
sS'MTPLEASANT M'
p1858
(g493
I83
I16399
tp1859
sS'APPLETON'
p1860
(S'APPLETON ST'
p1861
I92
I17749
tp1862
sS'; EDDY'
p1863
(g720
I86
I15834
tp1864
sS'NICHOLS AND 137 CANAL'
p1865
(S'NICHOLAS BROWN YARD ST'
p1866
I72
I17054
tp1867
sS'WESTMINSTER MM 1706'
p1868
(g29
I86
I15991
tp1869
sS'DEVONSHIRE'
p1870
(S'DEVONSHIRE ST'
p1871
I93
I17467
tp1872
sS'WEYL'
p1873
(g624
I58
I17197
tp1874
sS'RANKIN'
p1875
(S'RANKIN AVE'
p1876
I87
I17636
tp1877
sS'CLIFFORD RETAIL STORE 105 WEST- MINSTERTEL GASPEE 7350'
p1878
(g29
I53
I15991
tp1879
sS'A MANTON AV'
p1880
(g1135
I93
I17947
tp1881
sS'CUSTOM IVIOUSE ST'
p1882
(g1424
I59
I15820
tp1883
sS'CARLE- TON'
p1884
(S'CARL ST'
p1885
I82
I17792
tp1886
sS'FARRAGUT AV'
p1887
(S'FARRAGUT AVE'
p1888
I98
I16659
tp1889
sS'S MAIN -'
p1890
(g342
I93
I15948
tp1891
sS'CHALKSTONE AV'
p1892
(g1277
I98
I17433
tp1893
sS'MURRAY'
p1894
(S'MURRAY ST'
p1895
I90
I17968
tp1896
sS'MCDONOUGH'
p1897
(g1546
I55
I17259
tp1898
sS'KEN- YON'
p1899
(S'KENYON ST'
p1900
I71
I15888
tp1901
sS"C'RANDALL"
p1902
(S'RANDALL RD'
p1903
I87
I16415
tp1904
sS'N MAIN 4TL'
p1905
(g20
I94
I15916
tp1906
sS'AND 37C BOSSET'
p1907
(g5
I63
I15992
tp1908
sS'LEXINGTON AV'
p1909
(S'LEXINGTON AVE'
p1910
I98
I16281
tp1911
sS"POTTER'S AV"
p1912
(g146
I84
I16786
tp1913
sS'CHURCH'
p1914
(S'CHURCH ST'
p1915
I90
I16103
tp1916
sS'68'
p1917
(g499
I32
I16876
tp1918
sS'"EXCHANGE'
p1919
(g255
I92
I15845
tp1920
sS'POCAS- SET AV'
p1921
(g652
I84
I17995
tp1922
sS'260 ELMWOOD AV'
p1923
(g264
I90
I17207
tp1924
sS'5 EDDY'
p1925
(g720
I81
I15834
tp1926
sS'KIMBALL'
p1927
(S'KIMBALL ST'
p1928
I91
I17556
tp1929
sS'-12 HAY'
p1930
(S'HAY ST'
p1931
I75
I15871
tp1932
sS'I MANTC'
p1933
(S'MANTON CT'
p1934
I68
I17948
tp1935
sS'-21 MAGNOLIA'
p1936
(g400
I86
I17944
tp1937
sS'CHERRY'
p1938
(S'CHERRY ST'
p1939
I90
I16100
tp1940
sS'A11E1FS AV'
p1941
(g572
I53
I15768
tp1942
sS'JOB'
p1943
(S'JOB ST'
p1944
I83
I16257
tp1945
sS'ROOMS WITH BATH, 4 FAMOUS PUBLIC ROOMS SERVING FOOD AND BEVERAGES 11 DORRANCE COR WASHINGTON'
p1946
(g706
I60
I15987
tp1947
sS'WEST-'
p1948
(g279
I86
I15990
tp1949
sS'BOWDOIN'
p1950
(S'BOWDOIN ST'
p1951
I91
I17778
tp1952
sS'PRATT'
p1953
(S'PRATT ST'
p1954
I88
I16406
tp1955
sS'UNIT'
p1956
(S'UNIT ST'
p1957
I86
I18082
tp1958
sS'PENN'
p1959
(S'PENN ST'
p1960
I86
I17989
tp1961
sS'VICTOR'
p1962
(S'VICTOR ST'
p1963
I90
I17699
tp1964
sS'4'
p1965
(S'4TH ST'
p1966
I39
I16874
tp1967
sS'WESTMIM STER'
p1968
(g279
I73
I15990
tp1969
sS'VINTON'
p1970
(S'VINTON ST'
p1971
I90
I15981
tp1972
sS'WALLACE'
p1973
(S'WALLACE ST'
p1974
I91
I18095
tp1975
sS'BROWNELL'
p1976
(S'BROWNELL ST'
p1977
I92
I17414
tp1978
sS'JOHN'
p1979
(S'JOHN ST'
p1980
I86
I16259
tp1981
sS'WESTN'
p1982
(g279
I78
I15990
tp1983
sS'FRIENDSHIN'
p1984
(g328
I84
I15858
tp1985
sS'WESTL'
p1986
(g279
I78
I15990
tp1987
sS'N'
p1988
(S'NORTH CT'
p1989
I88
I15918
tp1990
sS'; IVES'
p1991
(g588
I86
I17007
tp1992
sS'GEORGIA AV'
p1993
(g261
I97
I16671
tp1994
sS"TAUN'TON AV"
p1995
(S'WABUN AVE'
p1996
I63
I17705
tp1997
sS'STEEPLE'
p1998
(S'STEEPLE ST'
p1999
I91
I15962
tp2000
sS'-288 POCASSET AV'
p2001
(g652
I90
I17995
tp2002
sS"BRANCH 485'ANGE11"
p2003
(g1228
I83
I16067
tp2004
sS'INC 19-25 TURNER'
p2005
(S'TURNER ST'
p2006
I74
I17689
tp2007
sS'DOUG- LAS AV'
p2008
(g1018
I82
I16154
tp2009
sS'MRS 139 MATHEWSON'
p2010
(g160
I81
I15904
tp2011
sS'THE 1226 N MAIN'
p2012
(g20
I81
I15916
tp2013
sS'WINTER'
p2014
(g1669
I90
I15999
tp2015
sS'210-'
p2016
(g1255
I48
I16868
tp2017
sS'-84 FOUNTAIN'
p2018
(g367
I86
I15853
tp2019
sS'OLNEY- VILLE SQ'
p2020
(g938
I82
I16377
tp2021
sS'80 EMPIRE'
p2022
(g516
I83
I15840
tp2023
sS'PROVIDENCE, W WAR- WICK'
p2024
(g555
I85
I17299
tp2025
sS'MURRAY AND 56 TOURO'
p2026
(g1895
I78
I17968
tp2027
sS'AMHERST-'
p2028
(S'AMHERST ST'
p2029
I91
I17744
tp2030
sS'CHALKSTONE AV. .'
p2031
(g1277
I98
I17433
tp2032
sS'RANDALL'
p2033
(g1903
I91
I16415
tp2034
sS'REAL ES- TATE AND INSURANCE, SPECIALIZING IN FINE RESIDENTIAL PROPERTY 9 S ANGELL'
p2035
(S'STERLING AVE'
p2036
I41
I18055
tp2037
sS'; EARL'
p2038
(S'EARLY ST'
p2039
I78
I16646
tp2040
sS'PUBLIC'
p2041
(g2
I90
I15942
tp2042
sS'CRANSTON, CRANSTO'
p2043
(g348
I90
I15817
tp2044
sS'CUSTOM HOUSE'
p2045
(g1424
I94
I15820
tp2046
sS"N 'MAIN 4TH I1"
p2047
(g20
I90
I15916
tp2048
sS'-24-26 BLACK- STONE BLVD'
p2049
(g1123
I74
I16904
tp2050
sS'2 FREIGHT HOUSE'
p2051
(S'CREIGHTON ST'
p2052
I67
I16935
tp2053
sS'FARM- INGTON AV'
p2054
(g669
I84
I17384
tp2055
sS',143 SUMMER'
p2056
(S'SUMMER ST'
p2057
I81
I15965
tp2058
sS'VVEYBOSSET'
p2059
(g5
I78
I15992
tp2060
sS'PETTIS'
p2061
(S'PETTIS ST'
p2062
I90
I16396
tp2063
sS'-44 COLLEGE'
p2064
(S'COLLEGE ST'
p2065
I85
I15812
tp2066
sS'392 ORMS'
p2067
(g11
I76
I16384
tp2068
sS'TH DB, SEVENTH DAY BAPTIST'
p2069
(S'ROOSEVELT ST'
p2070
I53
I16432
tp2071
sS'EDDY 4TH 1T'
p2072
(g720
I83
I15834
tp2073
sS'N MAIN 2D 1'
p2074
(g20
I89
I15916
tp2075
sS'ETHAN'
p2076
(S'ETHAN ST'
p2077
I88
I17847
tp2078
sS"'WESTMINSTER"
p2079
(g29
I94
I15991
tp2080
sS'EX- CHANGE, 81 EXCHANGE PL, 176 MATHEW- SON, 79 WASHINGTON, 175 WESTMINSTER AND 275 MAIN PAWT'
p2081
(g29
I63
I15991
tp2082
sS'POND'
p2083
(S'POND ST'
p2084
I86
I15937
tp2085
sS'TOCKWOTTON'
p2086
(S'TOCKWOTTON ST'
p2087
I93
I15973
tp2088
sS'STATE OFFICE BLDG'
p2089
(S'POST OFFICE CT'
p2090
I82
I15938
tp2091
sS'ADMIRAL'
p2092
(S'ADMIRAL ST'
p2093
I91
I16005
tp2094
sS'BROAD RM'
p2095
(g361
I87
I15793
tp2096
sS'WIL- LARD AV'
p2097
(g768
I82
I16863
tp2098
sS'; ATWELLS AV'
p2099
(S'CAPWELL AVE'
p2100
I73
I6708
tp2101
sS'-261 ALLEMS AV'
p2102
(g572
I76
I15768
tp2103
sS'GAY'
p2104
(S'GAY ST'
p2105
I83
I16669
tp2106
sS'BWAY F'
p2107
(g212
I90
I21699
tp2108
sS'49 WESTMINSTER'
p2109
(g29
I89
I15991
tp2110
sS'.110 RLGNT BOTTOM NNES'
p2111
(S'BLOOM ST'
p2112
I57
I16062
tp2113
sS'INDIA'
p2114
(g235
I88
I15883
tp2115
sS'BROAD, EDGEWOOD'
p2116
(S'EDGEWOOD AV'
p2117
I82
I16650
tp2118
sS'PROVIDENCE'
p2119
(S'PROVIDENT PL'
p2120
I78
I2380
tp2121
sS'CENTRAL AV'
p2122
(g1107
I97
I16095
tp2123
sS'BEANIT'
p2124
(g385
I70
I15781
tp2125
sS"WESTMINSTER TE'L GASPEE 8300, 244 WEYBOSSET, 176 ANGELL, 434 SMITH AND 1 OLNEYVILLE SQ-FOR FURTHER IN- FORMATION SEE PAGE 25 BUYERS1 GUIDE AND LEFT BOTTOM LINES"
p2126
(g29
I58
I15991
tp2127
sS'PARKIS AV'
p2128
(S'PARKIS AVE'
p2129
I97
I17282
tp2130
sS'PLEAS- ANT'
p2131
(g493
I78
I16399
tp2132
sS'ADMIRAL 1190 BROAD 48B CAMP 1093 CHALKSTONE AV'
p2133
(g1277
I71
I17433
tp2134
sS'-12 BLACK- STONE BLVD'
p2135
(g1123
I77
I16904
tp2136
sS'WESLEYAN AV'
p2137
(S'WESLEYAN AVE'
p2138
I98
I17353
tp2139
sS'171 WESTMINSTER'
p2140
(g29
I88
I15991
tp2141
sS'THUR- HERS AV'
p2142
(g1172
I75
I16839
tp2143
sS'126-130 BROADWAY'
p2144
(S'GRAND BROADWAY'
p2145
I80
I16209
tp2146
sS'TABER AV'
p2147
(S'TABER AVE'
p2148
I97
I17107
tp2149
sS"CHALK'STONE AV"
p2150
(g1277
I80
I17433
tp2151
sS'BROOK'
p2152
(g1555
I88
I15795
tp2153
sS'CORLISS'
p2154
(S'CORLISS ST'
p2155
I91
I16123
tp2156
sS"NEW YORK' AV"
p2157
(g26
I98
I16751
tp2158
sS'N MAIN 4TH FL'
p2159
(g20
I90
I15916
tp2160
sS'ELM'
p2161
(S'ELM ST'
p2162
I83
I15837
tp2163
sS'BOURN'
p2164
(S'BOURNE AVE'
p2165
I79
I16066
tp2166
sS'REDWOOD'
p2167
(S'REDWOOD DR'
p2168
I91
I17640
tp2169
sS'JACK- S011'
p2170
(g315
I68
I16253
tp2171
sS'FEDERAL 7'
p2172
(g464
I92
I15848
tp2173
sS'387 CHARLES'
p2174
(g95
I83
I16096
tp2175
sS'A POTTEFS AV'
p2176
(g146
I82
I16786
tp2177
sS'W FRIENDSHIP'
p2178
(g339
I95
I17345
tp2179
sS'BALBO AV'
p2180
(S'ALBRO ST'
p2181
I71
I15767
tp2182
sS'ANGELL'
p2183
(g845
I90
I16022
tp2184
sS'RAYMOND'
p2185
(S'RAYMOND ST'
p2186
I91
I17639
tp2187
sS'ANGELI'
p2188
(S'ANGELA CT'
p2189
I75
I16021
tp2190
sS'EL- BOW'
p2191
(S'BOW ST'
p2192
I75
I16599
tp2193
sS"ELMWOOD AV'"
p2194
(g264
I97
I17207
tp2195
sS'AND 1477 BROAD, 596 ELMWOOD AV, 415 SMITH, 259 PRAIRIE AND 195 WAYLAND AV'
p2196
(g264
I63
I17207
tp2197
sS'PINE'
p2198
(g154
I86
I15933
tp2199
sS'ANGELL, 72 DORRANCE OFFICE AND PLANT 42 CYR'
p2200
(S'DORRANCE PLZ'
p2201
I70
I15828
tp2202
sS'1'
p2203
(g223
I41
I15880
tp2204
sS'A PONT'
p2205
(S'OAK POINT'
p2206
I84
I16369
tp2207
sS"PRAIRIE 'AV"
p2208
(g863
I97
I16787
tp2209
sS'WESTMINSTER ARCADE BUILDING'
p2210
(g29
I79
I15991
tp2211
sS'58 WEYBOSSET'
p2212
(g5
I87
I15992
tp2213
sS'I ATWELLS AV'
p2214
(g140
I93
I15775
tp2215
sS'-12 BEACH'
p2216
(S'BEACH ST'
p2217
I81
I16050
tp2218
sS'ALLEN4S AV'
p2219
(g572
I91
I15768
tp2220
sS'75 GRAHAM'
p2221
(S'GRAHAM ST'
p2222
I83
I16984
tp2223
sS'DEAN'
p2224
(S'DEAN ST'
p2225
I86
I15825
tp2226
sS'WASH AV'
p2227
(g101
I86
I21700
tp2228
sS'SUMMER'
p2229
(g2057
I90
I15965
tp2230
sS'FOURTH AV'
p2231
(S'FORT AV'
p2232
I84
I16664
tp2233
sS"WATERMAN I'M"
p2234
(g866
I89
I15988
tp2235
sS'CEN- TRAL AV'
p2236
(g1107
I82
I16095
tp2237
sS'PARK'
p2238
(S'PARK ST'
p2239
I86
I16391
tp2240
sS'V UNARLES'
p2241
(S'NAPLES AVE'
p2242
I65
I17602
tp2243
sS'BELL'
p2244
(S'BELL ST'
p2245
I86
I17768
tp2246
sS'FLORA'
p2247
(g1730
I88
I16182
tp2248
sS'247 ACADEMY AV'
p2249
(g641
I90
I17365
tp2250
sS'BR'
p2251
(g964
I48
I15763
tp2252
sS'SPRUCE'
p2253
(S'SPRUCE ST'
p2254
I90
I15961
tp2255
sS'WESTFIELD'
p2256
(S'WESTFIELD ST'
p2257
I93
I17354
tp2258
sS'PECK'
p2259
(g1116
I86
I15928
tp2260
sS'RNOA 48 SNOW'
p2261
(g361
I58
I15793
tp2262
sS'-33 ABORN'
p2263
(g964
I81
I15763
tp2264
sS'ALABAMA AV'
p2265
(S'ALABAMA AVE'
p2266
I97
I16556
tp2267
sS'WILSON'
p2268
(S'WILSON ST'
p2269
I90
I17359
tp2270
sS'BRIDGE, 170 ANGELL AND 895 CHALKSTONE AV'
p2271
(g1277
I74
I17433
tp2272
sS'MEDWAY'
p2273
(g577
I90
I17040
tp2274
sS"WESTMINSTER'RM 413"
p2275
(g29
I87
I15991
tp2276
sS'ARNOLD ,'
p2277
(g482
I90
I16028
tp2278
sS'DUDLEY'
p2279
(S'DUDLEY ST'
p2280
I90
I15830
tp2281
sS'STUART AND 712 WESTMINSTER'
p2282
(g29
I77
I15991
tp2283
sS'ARGOL'
p2284
(S'ARGOL ST'
p2285
I88
I16026
tp2286
sS'BOND'
p2287
(S'BOND ST'
p2288
I86
I15786
tp2289
sS'IV. SON'
p2290
(g2269
I60
I17359
tp2291
sS'SILVER LAKE AV'
p2292
(S'SILVER LAKE AVE'
p2293
I98
I18039
tp2294
sS'WEYBOSSET 3RD'
p2295
(g5
I90
I15992
tp2296
sS'GARNET'
p2297
(g240
I90
I15862
tp2298
sS'BALMORAL AV'
p2299
(S'BALMORAL AVE'
p2300
I98
I17394
tp2301
sS'ARLINGTON AV'
p2302
(g312
I98
I16892
tp2303
sS'STERLING AV'
p2304
(g2036
I98
I18055
tp2305
sS'VALLEY'
p2306
(g878
I90
I17693
tp2307
sS'BROAD- WAY'
p2308
(g361
I85
I15793
tp2309
sS'PUTNAM'
p2310
(S'PUTNAM ST'
p2311
I90
I18003
tp2312
sS'WESTMINSTER RM'
p2313
(g29
I93
I15991
tp2314
sS'STOKER'
p2315
(S'STOKES ST'
p2316
I75
I18058
tp2317
sS'MATTHEW- SOD'
p2318
(g552
I93
I17587
tp2319
sS'WILLARD A'
p2320
(g768
I95
I16863
tp2321
sS'-908 BROAD'
p2322
(g361
I79
I15793
tp2323
sS'WESTMINSTER PM 805'
p2324
(g29
I87
I15991
tp2325
sS'UXBRIDGE CRANSTON, RI FTEL UNION OLOO-FOR FURTHER INFORMA- TIN SEE PAGE 101 BUYERS, GUIDE'
p2326
(g1345
I52
I15792
tp2327
sS'GROVE'
p2328
(S'GROVE ST'
p2329
I88
I17876
tp2330
sS'RATHBONE'
p2331
(S'RATHBONE ST'
p2332
I92
I17637
tp2333
sS'BAKER'
p2334
(S'BAKER ST'
p2335
I88
I16576
tp2336
sS'WESTMIN'
p2337
(g29
I72
I15991
tp2338
sS'ELGIN'
p2339
(S'ELGIN ST'
p2340
I88
I16959
tp2341
sS'WESTMIL'
p2342
(g2257
I69
I17354
tp2343
sS'Y010 WEY- BOSSET'
p2344
(g5
I73
I15992
tp2345
sS'WEALTH AV'
p2346
(S'WEALTH AVE'
p2347
I97
I17714
tp2348
sS'2'
p2349
(g929
I39
I16872
tp2350
sS'CLEM- 81106'
p2351
(g1255
I34
I16868
tp2352
sS'LAFAYETTE'
p2353
(S'LAFAYETTE ST'
p2354
I93
I15891
tp2355
sS'-62 PINE'
p2356
(g154
I78
I15933
tp2357
sS'WALLING'
p2358
(g1244
I64
I17352
tp2359
sS'LTD BEVERAGE HILL AV AND BERRY 1 SORINZ ST'
p2360
(S'EVERGREEN ST'
p2361
I56
I16966
tp2362
sS'. UNION'
p2363
(g318
I88
I15977
tp2364
sS'STOKES'
p2365
(g2316
I90
I18058
tp2366
sS'CRANS- TON, ARLINGTON'
p2367
(g312
I78
I16892
tp2368
sS'PETER'
p2369
(S'PETER ST'
p2370
I88
I16395
tp2371
sS'INDUSTRIAL TRUST BLDG'
p2372
(S'INDUSTRIAL DR'
p2373
I85
I16249
tp2374
sS'HAR- RIS AV'
p2375
(g14
I78
I15869
tp2376
sS'EDDY 2ND FL'
p2377
(g720
I78
I15834
tp2378
sS'; BROAD'
p2379
(g361
I88
I15793
tp2380
sS"ATWELL'S AV"
p2381
(g140
I84
I15775
tp2382
sS'A S WATER'
p2383
(g1189
I90
I15949
tp2384
sS'CUSTOME HOUSE ST'
p2385
(g1424
I94
I15820
tp2386
sS'EXCHANGE PL RM ,18'
p2387
(g1541
I84
I15846
tp2388
sS'N MAIN RMM50'
p2389
(g20
I88
I15916
tp2390
sS'KINSLEY AV'
p2391
(g980
I97
I15889
tp2392
sS'INC THE- 237 EDDY'
p2393
(g720
I67
I15834
tp2394
sS'POTTER,S AV'
p2395
(g146
I84
I16786
tp2396
sS'MAIN'
p2397
(S'MAIDEN LN'
p2398
I71
I15899
tp2399
sS'POCASSET AV'
p2400
(g652
I98
I17995
tp2401
sS'E TRANSIT'
p2402
(S'EAST TRANSIT ST'
p2403
I94
I16954
tp2404
sS"WEYBOS- SET-TEL GASPEE 7000-FOR FURTHER IN FORMATION SEE PAGE 57 BUYERS' GUIDE AND LEFT SIDE LINES"
p2405
(S'WEST FOUNTAIN ST'
p2406
I43
I15983
tp2407
sS'N MAIN 4TH II'
p2408
(g20
I90
I15916
tp2409
sS'STANI- FORD'
p2410
(g1363
I76
I16824
tp2411
sS"WEST- MINST'ER"
p2412
(g29
I72
I15991
tp2413
sS'BWAY AND 64 KENYON'
p2414
(g1900
I72
I15888
tp2415
sS"BROAD '"
p2416
(g361
I88
I15793
tp2417
sS'6 GLOBE AT WATER FRONT'
p2418
(g1571
I73
I15865
tp2419
sS'-1444 OCEAN'
p2420
(S'OCEAN AV'
p2421
I78
I16756
tp2422
sS'SUMTER'
p2423
(S'SUMTER ST'
p2424
I90
I17333
tp2425
sS'DOUGLAS'
p2426
(g1018
I89
I16154
tp2427
sS'BATH'
p2428
(S'BATH ST'
p2429
I86
I17396
tp2430
sS'BEVERLY'
p2431
(g1645
I91
I15783
tp2432
sS'EDDY AND 120 UNION'
p2433
(g318
I69
I15977
tp2434
sS'MEADER'
p2435
(S'MEADER ST'
p2436
I90
I17957
tp2437
sS'263 RICHMOND'
p2438
(g246
I85
I15946
tp2439
sS'PARK AND 176 SMITH'
p2440
(g252
I69
I16457
tp2441
sS"'BENEFIT"
p2442
(g385
I91
I15781
tp2443
sS', GOVERNOR'
p2444
(g41
I92
I16983
tp2445
sS'SUTTON'
p2446
(S'SUTTON ST'
p2447
I90
I15966
tp2448
sS'WEEDEN, PAWTUCKET'
p2449
(g55
I67
I16771
tp2450
sS'-129 POST ROAD APPON- AUG'
p2451
(g1861
I56
I17749
tp2452
sS'BROWN COR ABORN'
p2453
(g218
I76
I16073
tp2454
sS'WENDELL'
p2455
(S'WENDELL ST'
p2456
I91
I16535
tp2457
sS'GEORGE APT 11'
p2458
(S'GEORGE ST'
p2459
I86
I16670
tp2460
sS'DANIEL AV'
p2461
(S'DANIEL AVE'
p2462
I97
I17817
tp2463
sS"PLAINMZLD '"
p2464
(g351
I69
I17994
tp2465
sS'BENOVOLENT'
p2466
(S'BENEVOLENT ST'
p2467
I84
I16902
tp2468
sS"BELLE'VUE AV"
p2469
(g1475
I84
I16051
tp2470
sS'BRO&'
p2471
(g2181
I65
I15767
tp2472
sS'-419 S MAIN'
p2473
(g342
I87
I15948
tp2474
sS'6 WATERMAN'
p2475
(g866
I88
I15988
tp2476
sS'210 WEYBOS- SET'
p2477
(g5
I74
I15992
tp2478
sS'170 WESTMINSTER'
p2479
(g29
I88
I15991
tp2480
sS'W 205'
p2481
(g279
I83
I15990
tp2482
sS'MATHEWSON,'
p2483
(g160
I93
I15904
tp2484
sS'ASH'
p2485
(g101
I86
I21700
tp2486
sS"CHESTNUT REL DEXTER 4903-FOR FURTHER INFORMA- TION SEE PAGE 105 BUYERS' GUIDE"
p2487
(g195
I61
I15807
tp2488
sS'EMPIRE 2ND FL'
p2489
(g1350
I82
I15839
tp2490
sS'CHAPMAN'
p2491
(g1757
I91
I16617
tp2492
sS"BUYERS' GUIDE"
p2493
(S'BUTLER DR'
p2494
I62
I16916
tp2495
sS'OCEAN'
p2496
(g2421
I88
I16756
tp2497
sS'WESTMINSTER RMS 604-605'
p2498
(g29
I85
I15991
tp2499
sS'WEBSTER AV'
p2500
(S'WEBSTER AVE'
p2501
I97
I18098
tp2502
sS'CLAVERICK'
p2503
(S'CLAVERICK ST'
p2504
I93
I15809
tp2505
sS'WESTMIN- STER AND 180 UNION'
p2506
(g29
I69
I15991
tp2507
sS'BENEFLT'
p2508
(g385
I78
I15781
tp2509
sS'EDDY 4TH N'
p2510
(g1989
I72
I15918
tp2511
sS'ELMDALE AV'
p2512
(S'ELMDALE AVE'
p2513
I97
I17845
tp2514
sS'-77 WEST- MINSTER'
p2515
(g29
I77
I15991
tp2516
sS'GUIDE'
p2517
(S'GRIDLEY ST'
p2518
I60
I16213
tp2519
sS'-110-119-138 BENE- FIT'
p2520
(g385
I60
I15781
tp2521
sS'DIAMOND'
p2522
(g1311
I91
I17199
tp2523
sS'WHITMARSH'
p2524
(g119
I93
I17355
tp2525
sS'SHERBURNE'
p2526
(S'SHERBURNE ST'
p2527
I93
I16819
tp2528
sS'47 MATHEWSON'
p2529
(g160
I87
I15904
tp2530
sS'CO 67 BENEVOLENT'
p2531
(g2467
I84
I16902
tp2532
sS'WOOD'
p2533
(S'WOOD ST'
p2534
I86
I18110
tp2535
sS'AMHERST'
p2536
(g2029
I91
I17744
tp2537
sS'MESSER'
p2538
(S'MESSER ST'
p2539
I90
I17961
tp2540
sS'WASH.'
p2541
(g101
I100
I21700
tp2542
sS'-185 BENE FLT'
p2543
(g385
I64
I15781
tp2544
sS'CLIT- FORD'
p2545
(g1821
I60
I15811
tp2546
sS'HOPE'
p2547
(g627
I86
I15875
tp2548
sS'WESTL, MINSTER 4TH FLOOR'
p2549
(g29
I74
I15991
tp2550
sS'SEEBELL'
p2551
(g2245
I65
I17768
tp2552
sS'HAWKINS'
p2553
(g1637
I91
I16223
tp2554
sS'WEST- MINSTER'
p2555
(g29
I81
I15991
tp2556
sS'SORRENTO'
p2557
(S'SORRENTO ST'
p2558
I92
I18046
tp2559
sS"' CHARLES"
p2560
(g95
I91
I16096
tp2561
sS'SPRAGUE'
p2562
(g666
I91
I17327
tp2563
sS'AND 425 ATWELLS AV'
p2564
(g140
I84
I15775
tp2565
sS'CLEMENCE'
p2566
(g297
I92
I15810
tp2567
sS'PALMER'
p2568
(S'PALMER DR'
p2569
I90
I16387
tp2570
sS'SMITH'
p2571
(g252
I88
I16457
tp2572
sS"ALLEN'S AV"
p2573
(g572
I83
I15768
tp2574
sS'WEYBOS- SET RM.706'
p2575
(g5
I74
I15992
tp2576
sS'I CHALKSTONE AV'
p2577
(g1277
I95
I17433
tp2578
sS'COD- DING AND 498 KINSLEY AV'
p2579
(g980
I76
I15889
tp2580
sS'POT-'
p2581
(g180
I73
I16785
tp2582
sS'JEFFERSON'
p2583
(S'JEFFERSON ST'
p2584
I93
I17548
tp2585
sS'-60 TAFT AV'
p2586
(S'TAFT AVE'
p2587
I89
I16484
tp2588
sS'CUSTOM HOME ST'
p2589
(g1424
I95
I15820
tp2590
sS'JOHN AND 5 EDDY'
p2591
(g1980
I72
I16259
tp2592
sS'184 BROAD'
p2593
(g361
I79
I15793
tp2594
sS'HOLLY'
p2595
(S'HOLLY ST'
p2596
I88
I16999
tp2597
sS'RING'
p2598
(S'RING ST'
p2599
I86
I18012
tp2600
sS'MOOREFLELD'
p2601
(S'MOOREFIELD ST'
p2602
I84
I17965
tp2603
sS'PB, SIX'
p2604
(g1214
I51
I15955
tp2605
sS'WESTMINCTER'
p2606
(g29
I85
I15991
tp2607
sS'LAWN'
p2608
(S'LAWN ST'
p2609
I86
I17560
tp2610
sS'FOX POINT BLVD'
p2611
(g2206
I80
I16369
tp2612
sS'WESTMINSTER 1M 55'
p2613
(g29
I88
I15991
tp2614
sS'WEST MINSTER'
p2615
(g29
I81
I15991
tp2616
sS'-80 BAKER'
p2617
(g2335
I81
I16576
tp2618
sS'FREMONT'
p2619
(S'FREMONT ST'
p2620
I91
I16975
tp2621
sS'CARPENTER'
p2622
(S'CARPENTER ST'
p2623
I93
I15801
tp2624
sS'MATHEWSON RML'
p2625
(g160
I90
I15904
tp2626
sS'; CRANSTON'
p2627
(g348
I92
I15817
tp2628
sS'RAN- DALL'
p2629
(g1903
I75
I16415
tp2630
sS'HAMLIN'
p2631
(S'HAMLIN ST'
p2632
I90
I16217
tp2633
sS'EDDY'
p2634
(g720
I86
I15834
tp2635
sS'LIVINGSTON'
p2636
(S'LIVINGSTON ST'
p2637
I93
I16287
tp2638
sS'EXCHALIEE PL RM'
p2639
(g1541
I65
I15846
tp2640
sS'GRAN'
p2641
(S'GRANDVIEW DR'
p2642
I56
I1333
tp2643
sS'LOCKWOOD'
p2644
(g1360
I92
I15895
tp2645
sS'EAST'
p2646
(g1026
I86
I15833
tp2647
sS'MITCHELL'
p2648
(S'MONTICELLO RD'
p2649
I62
I6939
tp2650
sS'EDDV'
p2651
(g720
I65
I15834
tp2652
sS'GOIERNOR'
p2653
(g41
I81
I16983
tp2654
sS'MERCY'
p2655
(S'MERCY ST'
p2656
I88
I17959
tp2657
sS'THOMAS'
p2658
(S'HOLMAN ST'
p2659
I67
I8950
tp2660
sS'I BROOK'
p2661
(g1555
I83
I15795
tp2662
sS'EDDY 5TH FL'
p2663
(g720
I83
I15834
tp2664
sS'9TH'
p2665
(S'9TH ST'
p2666
I83
I16879
tp2667
sS'CHAFFEE'
p2668
(S'CHAFFEE ST'
p2669
I91
I17798
tp2670
sS'ELMWOOD AV'
p2671
(g264
I97
I17207
tp2672
sS'-9 ITALY'
p2673
(S'ITALY ST'
p2674
I83
I17546
tp2675
sS'INDIANA AV'
p2676
(S'INDIANA AVE'
p2677
I97
I16702
tp2678
sS'CONGRESS AV'
p2679
(S'CONGRESS AVE'
p2680
I98
I17184
tp2681
sS'WESTMINSTER 4TH 11'
p2682
(g29
I90
I15991
tp2683
sS"MEET' ING"
p2684
(g461
I75
I15907
tp2685
sS'WESTMINSTER LOBBY 0'
p2686
(g29
I86
I15991
tp2687
sS'IRVING AV'
p2688
(S'IRVING AVE'
p2689
I97
I17006
tp2690
sS'BOWLETT'
p2691
(S'BOWLET ST'
p2692
I90
I17779
tp2693
sS'WESTMINSTER AND UNION STA'
p2694
(g29
I86
I15991
tp2695
sS'WEYBOSSET LOCAL 285'
p2696
(g5
I82
I15992
tp2697
sS'ACADEMY AV'
p2698
(g641
I97
I17365
tp2699
sS'SEABURY'
p2700
(S'SEABURY ST'
p2701
I91
I17320
tp2702
sS'CLIFFORD 3RD FL'
p2703
(g1821
I84
I15811
tp2704
sS'TH FLOOR TURKS HEAD BLDG'
p2705
(g1730
I59
I16182
tp2706
sS'CUSTONI'
p2707
(S'HOUSTON ST'
p2708
I65
I16696
tp2709
sS'A WEBSTER AV'
p2710
(g2501
I93
I18098
tp2711
sS'ACADEMY'
p2712
(g641
I89
I17365
tp2713
sS'LOCUST'
p2714
(S'LOCUST ST'
p2715
I90
I17027
tp2716
sS'COURT- LAND'
p2717
(g32
I76
I17806
tp2718
sS'RUSSO'
p2719
(S'RUSSO ST'
p2720
I88
I16439
tp2721
sS'BENEDICT'
p2722
(S'BENEDICT ST'
p2723
I92
I16053
tp2724
sS'- EAGLE'
p2725
(g137
I88
I17477
tp2726
sS'354 WEYBOSSET'
p2727
(g5
I86
I15992
tp2728
sS'FRANKLIN'
p2729
(S'FRANKLIN SQ'
p2730
I92
I15856
tp2731
sS'12-34 DUDLEY'
p2732
(g2280
I78
I15830
tp2733
sS'KNIGHT'
p2734
(g1113
I90
I15890
tp2735
sS'OF R I 109 WATERMAN'
p2736
(g866
I76
I15988
tp2737
sS'SASSAFRAS'
p2738
(S'SASSAFRAS ST'
p2739
I93
I17317
tp2740
sS'48-50 WGY- BOSSET'
p2741
(g5
I68
I15992
tp2742
sS'EDDY 2D FL'
p2743
(g720
I79
I15834
tp2744
sS'FARMINGTON AV'
p2745
(g1231
I98
I17853
tp2746
sS'AND 557 CHARLES'
p2747
(g95
I78
I16096
tp2748
sS'CLIFFORD *'
p2749
(g1821
I92
I15811
tp2750
sS'I MANTON AV'
p2751
(g1135
I93
I17947
tp2752
sS'W RIVER'
p2753
(g74
I93
I16541
tp2754
sS'69 SPRAGUE'
p2755
(g666
I85
I17327
tp2756
sS'N MAIN 4TH'
p2757
(g20
I94
I15916
tp2758
sS'HUNTINGTON AV'
p2759
(g243
I98
I17236
tp2760
sS'AURORA'
p2761
(S'AURORA AV'
p2762
I90
I16570
tp2763
sS'MANHASSET, CRANSTON'
p2764
(S'MANHATTAN ST'
p2765
I67
I16309
tp2766
sS'DORRANCE'
p2767
(g151
I92
I15829
tp2768
sS'PUB- LIC'
p2769
(g2
I71
I15942
tp2770
sS'BENEFIT'
p2771
(g385
I91
I15781
tp2772
sS'GOVERNOR'
p2773
(g41
I92
I16983
tp2774
sS'145 CRARY'
p2775
(g990
I79
I15818
tp2776
sS'CRANSTON, CRANSTON'
p2777
(g348
I89
I15817
tp2778
sS'ELMWOOD AV, 248 SHAYER AND 169 WESTMINSTER'
p2779
(g29
I70
I15991
tp2780
sS'RIDGE'
p2781
(S'RIDGE ST'
p2782
I88
I18010
tp2783
sS'EUCLID'
p2784
(S'EUCLID AVE'
p2785
I87
I16964
tp2786
sS'BEACON AV'
p2787
(S'BEACON AVE'
p2788
I97
I15779
tp2789
sS'DEXTER'
p2790
(g860
I90
I17198
tp2791
sS'418 BROAD'
p2792
(g361
I79
I15793
tp2793
sS'ARCADE'
p2794
(g286
I90
I15773
tp2795
sS'ROGER WILLIAMS AV'
p2796
(S'ROGER WILLIAMS AVE'
p2797
I98
I17306
tp2798
sS'72 WEYBOSSET'
p2799
(g5
I87
I15992
tp2800
sS'GARNET 1ST FL'
p2801
(g240
I91
I15862
tp2802
sS'OAKLAND AV'
p2803
(S'OAKLAND AVE'
p2804
I97
I17609
tp2805
sS'INC 728 VALLEY'
p2806
(g878
I76
I17693
tp2807
sS'LOMBARDI'
p2808
(S'LOMBARDI ST'
p2809
I92
I16290
tp2810
sS'CANTON'
p2811
(S'CANTON ST'
p2812
I90
I17424
tp2813
sS'MATHEW- SOIL'
p2814
(g552
I84
I17587
tp2815
sS'FOUN- TAIN'
p2816
(g367
I73
I15853
tp2817
sS'DORRANCE RMS 401-404'
p2818
(g151
I82
I15829
tp2819
sS'5'
p2820
(g1666
I53
I15881
tp2821
sS'WOOD- WARD RD'
p2822
(S'WOODWARD RD'
p2823
I81
I16553
tp2824
sS'CRAN- STON'
p2825
(g348
I73
I15817
tp2826
sS'A1-'
p2827
(S'RAY'
p2828
I40
I17083
tp2829
sS"& SONS LN'C 278 SILVER SPRING"
p2830
(g226
I80
I16454
tp2831
sS', 40'
p2832
(g1966
I32
I16874
tp2833
sS'A HOPE'
p2834
(g627
I81
I15875
tp2835
sS'EVERETT AV'
p2836
(S'EVERETT AVE'
p2837
I97
I16965
tp2838
sS'-101 BROWN'
p2839
(g218
I79
I16073
tp2840
sS'P0- CASSET AV'
p2841
(g652
I84
I17995
tp2842
sS'THE WHITE TRUCK DISTRIBUTORS 1128 NORTH MAIN'
p2843
(S'STRATFORD RD'
p2844
I43
I16825
tp2845
sS'SACKETT'
p2846
(S'SACKETT ST'
p2847
I91
I17314
tp2848
sS'WALDO'
p2849
(S'WALDO ST'
p2850
I88
I16526
tp2851
sS'HOUSTON'
p2852
(g2708
I91
I16696
tp2853
sS'LOCK- WOOD'
p2854
(g1360
I73
I15895
tp2855
sS'22 DEXTER, PAWTUCKET'
p2856
(g55
I64
I16771
tp2857
sS'GEORGE'
p2858
(g2459
I90
I16670
tp2859
sS'EDDY 3RD FL'
p2860
(g720
I78
I15834
tp2861
sS'; ELMWOOD AV'
p2862
(g264
I97
I17207
tp2863
sS'TROY'
p2864
(S'TROY ST'
p2865
I86
I18078
tp2866
sS'PROV COUNTY COURT HOUSE'
p2867
(S'COUNTY ST'
p2868
I75
I16126
tp2869
sS'165 DEXTER'
p2870
(g860
I81
I17198
tp2871
sS'PITMAN'
p2872
(S'PITMAN ST'
p2873
I90
I17073
tp2874
sS'THAYER'
p2875
(g64
I90
I17112
tp2876
sS'WILLARD AV'
p2877
(g768
I97
I16863
tp2878
sS'BISHOP'
p2879
(S'BRISTOW ST'
p2880
I56
I16069
tp2881
sS'WESTMINSTER'
p2882
(g29
I94
I15991
tp2883
sS'COMMERCIAL PAWTUXET'
p2884
(S'COMMERCIAL ST'
p2885
I87
I16629
tp2886
sS'BENEVOLENT'
p2887
(g2467
I93
I16902
tp2888
sS'BUCKLIN'
p2889
(g1087
I91
I17171
tp2890
sS'67 OCEAN'
p2891
(g2421
I81
I16756
tp2892
sS'SNOW'
p2893
(S'SNOW ST'
p2894
I86
I15957
tp2895
sS'SLATER AV'
p2896
(S'SLATER AVE'
p2897
I97
I17100
tp2898
sS'LIPPITT'
p2899
(S'LIPPITT ST'
p2900
I91
I17024
tp2901
sS'HARRI- SOD'
p2902
(S'HARRIET ST'
p2903
I78
I16687
tp2904
sS'EDDY 4TH FL & 552 WESTMINSTER'
p2905
(g29
I77
I15991
tp2906
sS'W EXCHANGE'
p2907
(g345
I95
I15982
tp2908
sS'FRIEND- SHIP'
p2909
(g328
I79
I15858
tp2910
sS'FOUNTAIN AND 393 HARRIS AV'
p2911
(g367
I77
I15853
tp2912
sS'BENEVOLENT WEN QUALITY'
p2913
(g2467
I84
I16902
tp2914
s.