(dp0
S'GREENWICH.'
p1
(S'GREENWICH ST'
p2
I100
I17220
tp3
sS'BRAMAN'
p4
(S'BRAMAN ST'
p5
I100
I16907
tp6
sS'POPE'
p7
(S'POPE ST'
p8
I100
I16405
tp9
sS'ORMS'
p10
(S'ORMS ST'
p11
I100
I16384
tp12
sS'CULVER'
p13
(S'CULVER ST'
p14
I100
I16633
tp15
sS'WASH RM 203'
p16
(S'WASHINGTON ST'
p17
I76
I21700
tp18
sS'HARRIS AV'
p19
(S'HARRIS AVE'
p20
I100
I15869
tp21
sS'RICHMOND-'
p22
(S'RICHMOND ST'
p23
I100
I15946
tp24
sS'RICHMOND,'
p25
(g23
I100
I15946
tp26
sS'NORTH MAIN'
p27
(S'NORTH MAIN ST'
p28
I100
I15916
tp29
sS'WAVERLY'
p30
(S'WAVERLY ST'
p31
I100
I17351
tp32
sS'V; HOPE ST'
p33
(S'HOPE ST'
p34
I94
I15875
tp35
sS'K CRANSTON ST'
p36
(S'CRANSTON ST'
p37
I96
I15817
tp38
sS'-58I HARRIS AV'
p39
(S'HARRIS AVE'
p40
I87
I15869
tp41
sS'; CHARLES'
p42
(S'CHARLES ST'
p43
I100
I16096
tp44
sS'-127 BLACKSTONE BLVD'
p45
(S'BLACKSTONE BLVD'
p46
I94
I16904
tp47
sS'DORRANOE ST'
p48
(S'DORRANCE ST'
p49
I89
I15829
tp50
sS'AT1311TH AV'
p51
(S'11TH ST'
p52
I67
I16869
tp53
sS'SIBLEY'
p54
(S'SIBLEY ST'
p55
I100
I17322
tp56
sS'HOWARD BLDG'
p57
(S'NORTH HOWARD AVE'
p58
I76
I16363
tp59
sS'EDDY 2D 11'
p60
(S'EDDY ST'
p61
I78
I15834
tp62
sS'GREENE'
p63
(S'GREENE ST'
p64
I100
I15866
tp65
sS'375 PROMENADE'
p66
(S'PROMENADE ST'
p67
I91
I17630
tp68
sS'TAUNTON AVE'
p69
(S'STANTON ST'
p70
I86
I18051
tp71
sS'I CRANSTON'
p72
(S'CRANSTON ST'
p73
I94
I15817
tp74
sS'BLOUNT'
p75
(S'BELMONT AVE'
p76
I77
I17398
tp77
sS'CHAPIN'
p78
(S'CHAPIN AVE'
p79
I100
I17800
tp80
sS'V; BROADWAY'
p81
(S'BROADWAY ST'
p82
I94
I15794
tp83
sS'BRANCHAV'
p84
(S'BRANCH AVE'
p85
I86
I16067
tp86
sS'CO INC 136 RHODES'
p87
(S'RHODES ST'
p88
I76
I15945
tp89
sS'MESSER'
p90
(S'MESSER ST'
p91
I100
I17961
tp92
sS'OLNEYVILLESQ"'
p93
(S'OLNEYVILLE SQ'
p94
I93
I17978
tp95
sS'0'
p96
(S'10TH ST'
p97
I40
I16868
tp98
sS'PEMBERTON'
p99
(S'PEMBERTON ST'
p100
I100
I17623
tp101
sS'DARTMOUTH AV'
p102
(S'DARTMOUTH AVE'
p103
I100
I17192
tp104
sS'MERRILL JUNCTION FEDERAL ST'
p105
(S'JUNCTION ST'
p106
I79
I17238
tp107
sS'HWAHERMAN ST'
p108
(S'WATERMAN ST'
p109
I84
I15988
tp110
sS'COMSTOCK AV'
p111
(S'COMSTOCK AVE'
p112
I100
I16631
tp113
sS'SEARS AV'
p114
(S'SEARS AVE'
p115
I100
I17663
tp116
sS'A F M 179 BROADWAY'
p117
(g82
I81
I15794
tp118
sS'A POCASSET AV'
p119
(S'POCASSET AVE'
p120
I94
I17995
tp121
sS'TURKS HEAD BLDFZ 76 WESTMINSTER'
p122
(S'WESTMINSTER ST'
p123
I76
I15991
tp124
sS'7'
p125
(S'7TH ST'
p126
I50
I16877
tp127
sS'DORR'
p128
(S'DORR ST'
p129
I100
I17471
tp130
sS'WEST PARK'
p131
(S'WEST PARK ST'
p132
I100
I17704
tp133
sS'PEACE'
p134
(S'PEACE ST'
p135
I100
I17286
tp136
sS'CRANSTON ST.'
p137
(g37
I100
I15817
tp138
sS'WASHBUM ST'
p139
(S'WASHBURN ST'
p140
I83
I17712
tp141
sS'LANZDON'
p142
(S'LANGDON ST'
p143
I86
I16272
tp144
sS'OLIVE'
p145
(S'OLIVE ST'
p146
I100
I17061
tp147
sS'-1 AMHERST'
p148
(S'AMHERST ST'
p149
I94
I17744
tp150
sS'ALGONQUIN'
p151
(S'ALGONQUIN ST'
p152
I100
I17151
tp153
sS'DORA'
p154
(S'DORA ST'
p155
I100
I17830
tp156
sS'GALLUP'
p157
(S'GALLUP ST'
p158
I100
I16668
tp159
sS'WESTMINSTER STRM 1908'
p160
(S'WESTMINSTER ST'
p161
I84
I15991
tp162
sS') HOPE'
p163
(S'HOPE ST'
p164
I100
I15875
tp165
sS'STER RM'
p166
(S'FOSTER ST'
p167
I71
I33492
tp168
sS'PORTLAND'
p169
(S'PORTLAND ST'
p170
I100
I17293
tp171
sS'WEVBOSSET ST'
p172
(S'WEYBOSSET ST'
p173
I90
I15992
tp174
sS'POTTER1S AV'
p175
(S'POTTERS AVE'
p176
I93
I16786
tp177
sS'RANDALL SQ SUITE 308'
p178
(S'RANDALL SQ'
p179
I83
I16416
tp180
sS'.110 VIOLIN)'
p181
(S'PAVILION AVE'
p182
I63
I16770
tp183
sS'RHODES'
p184
(g88
I100
I15945
tp185
sS'PAGE 3D A'
p186
(S'PAGE ST'
p187
I81
I15923
tp188
sS'PM TUESDAYS BY APPOINTMENT'
p189
(S'MONUMENT ST'
p190
I52
I39127
tp191
sS'DYER AVE'
p192
(S'DYER ST'
p193
I100
I15831
tp194
sS'W EXCHANGE-'
p195
(S'WEST EXCHANGE ST'
p196
I100
I15982
tp197
sS"ELMG'ROVE AVE"
p198
(S'ELMGROVE AVE'
p199
I81
I16960
tp200
sS'COLLEGE'
p201
(S'COLLEGE ST'
p202
I100
I15812
tp203
sS'GLOVER'
p204
(S'GLOVER ST'
p205
I100
I17514
tp206
sS'A EDDY ST'
p207
(S'EDDY ST'
p208
I94
I15834
tp209
sS'S WATER ST'
p210
(S'SOUTH WATER ST'
p211
I100
I15949
tp212
sS'DEWEY'
p213
(S'DEWEY ST'
p214
I100
I17197
tp215
sS'VIEW'
p216
(S'VIEW AV'
p217
I100
I16520
tp218
sS'CANAL'
p219
(S'CANAL ST'
p220
I100
I15798
tp221
sS'WATERMAN STA'
p222
(g109
I90
I15988
tp223
sS'HAROLD'
p224
(S'HAROLD ST'
p225
I100
I17519
tp226
sS'REGENT AV'
p227
(S'REGENT AVE'
p228
I100
I17642
tp229
sS'199'
p230
(S'I 195'
p231
I58
I15880
tp232
sS'PARADE'
p233
(S'PARADE ST'
p234
I100
I17278
tp235
sS'HOPE 196'
p236
(g164
I83
I15875
tp237
sS'HOSPITAL TRUST BLDG'
p238
(S'HOSPITAL ST'
p239
I79
I15878
tp240
sS'POMFRET'
p241
(S'SOMERSET ST'
p242
I67
I17325
tp243
sS'WARREN AVE'
p244
(S'WARREN ST'
p245
I100
I17349
tp246
sS'PECK 2D0'
p247
(S'PECK ST'
p248
I83
I15928
tp249
sS"' WESTMINSTER"
p250
(S'WESTMINSTER ST'
p251
I100
I15991
tp252
sS'ORCHARD P1'
p253
(S'ORCHARD PL'
p254
I95
I17064
tp255
sS'MOULTO-N'
p256
(S'MOULTON LN'
p257
I83
I15913
tp258
sS'WHITTIER RD'
p259
(S'WHITTIER AVE'
p260
I100
I18107
tp261
sS'BLAINE'
p262
(S'BLAINE ST'
p263
I100
I16061
tp264
sS'BROADWAY SUITE'
p265
(g82
I86
I15794
tp266
sS'; ELMWOOD AVE'
p267
(S'ELMWOOD AVE'
p268
I100
I17207
tp269
sS'MEWELF ST'
p270
(S'JEWELL ST'
p271
I72
I17911
tp272
sS'EXCHANGE PL'
p273
(S'EXCHANGE ST'
p274
I92
I15845
tp275
sS'WESTMINSTER STRM301'
p276
(g161
I86
I15991
tp277
sS'WESTMIN STER'
p278
(g123
I87
I15991
tp279
sS'WESTMINSTER STRM302'
p280
(g161
I86
I15991
tp281
sS'MARLBOROU;ZH AV'
p282
(S'MARLBOROUGH AVE'
p283
I88
I17259
tp284
sS'BARNES'
p285
(S'BARNES ST'
p286
I100
I16898
tp287
sS'ANSELL ST'
p288
(S'ANSEL AVE'
p289
I91
I17154
tp290
sS'FENNER RM3'
p291
(S'FENNER ST'
p292
I87
I15849
tp293
sS'DANCE ST'
p294
(S'DIANE ST'
p295
I84
I16144
tp296
sS'RICHMOND'
p297
(S'RICHMOND ST'
p298
I100
I15946
tp299
sS'VALLEY'
p300
(S'VALLEY ST'
p301
I100
I17693
tp302
sS'OAK ST,'
p303
(S'OAK ST'
p304
I100
I17974
tp305
sS'HOSPITAL TRUST PLAZA SUITE 2700'
p306
(S'HOSPITAL ST'
p307
I70
I15878
tp308
sS'COMMON'
p309
(S'COMMON ST'
p310
I100
I17449
tp311
sS'WATERMAN AVENUE, NORTH'
p312
(g109
I77
I15988
tp313
sS'FOUNTAIN'
p314
(S'FOUNTAIN ST'
p315
I100
I15853
tp316
sS'TH FL'
p317
(S'4TH ST'
p318
I65
I16874
tp319
sS'A; WALLING'
p320
(S'WALLING ST'
p321
I94
I21723
tp322
sS'WEYBOS SET'
p323
(S'WEYBOSSET ST'
p324
I87
I15992
tp325
sS'WATERMAN STRM500'
p326
(g109
I83
I15988
tp327
sS'DODGE'
p328
(S'DODGE ST'
p329
I100
I16148
tp330
sS'CANA1-'
p331
(S'CANAL ST'
p332
I80
I15798
tp333
sS'RUGBY'
p334
(S'RUGBY ST'
p335
I100
I16803
tp336
sS'ANTHONY AV'
p337
(S'ANTHONY AVE'
p338
I100
I17155
tp339
sS'WESTMINSTER STRM47'
p340
(g161
I88
I15991
tp341
sS'UNION'
p342
(S'UNION ST'
p343
I100
I15977
tp344
sS'WASHINGTON'
p345
(S'WASHINGTON ST'
p346
I100
I15987
tp347
sS'WEYBOSSET RM 942'
p348
(g324
I86
I15992
tp349
sS'CHAPMAN'
p350
(S'CHAPMAN ST'
p351
I100
I16617
tp352
sS'WILLIAM ELLERY P1'
p353
(S'WILLIAM ELLERY PL'
p354
I97
I17134
tp355
sS'HILLSIDE RD,'
p356
(S'HILLSIDE DR'
p357
I100
I16235
tp358
sS'SMITH RM3'
p359
(S'SMITH ST'
p360
I85
I16457
tp361
sS'RANDALL'
p362
(S'RANDALL RD'
p363
I100
I16415
tp364
sS'S MAIN'
p365
(S'SOUTH MAIN ST'
p366
I100
I15948
tp367
sS'A WAYLAND AVE'
p368
(S'WAYLAND AVE'
p369
I96
I17125
tp370
sS'B CHARLES ST'
p371
(S'CHARLES ST'
p372
I95
I16096
tp373
sS'WARREN'
p374
(S'WARREN ST'
p375
I100
I17349
tp376
sS'-1218 BROAD'
p377
(S'BROAD ST'
p378
I83
I15793
tp379
sS'JASTRAM'
p380
(S'JASTRAM ST'
p381
I100
I17547
tp382
sS"ATWELLS'AV"
p383
(S'ATWELLS AVE'
p384
I100
I15775
tp385
sS'A PLAINFIELD'
p386
(S'PLAINFIELD ST'
p387
I95
I17994
tp388
sS'MARENGO'
p389
(S'MARENGO ST'
p390
I100
I15901
tp391
sS'RANDALI'
p392
(S'RANDALL RD'
p393
I86
I16415
tp394
sS'NEW YORK AV'
p395
(S'NEW YORK AVE'
p396
I100
I16751
tp397
sS'HAWTHORNE'
p398
(S'HAWTHORNE ST'
p399
I100
I16225
tp400
sS'WATERMAN ST.'
p401
(g109
I100
I15988
tp402
sS'PAGE'
p403
(g187
I100
I15923
tp404
sS'WESTMINSTER-'
p405
(g123
I100
I15991
tp406
sS'WESTMINSTER,'
p407
(g123
I100
I15991
tp408
sS'WESTMINSTER.'
p409
(g123
I100
I15991
tp410
sS'DEVONSHIRE'
p411
(S'DEVONSHIRE ST'
p412
I100
I17467
tp413
sS'RICHMOND STRM207'
p414
(S'RICHMOND SQ'
p415
I87
I17086
tp416
sS'SOCIAL'
p417
(S'SOCIAL ST'
p418
I100
I16460
tp419
sS"WESTMINSTER'"
p420
(g123
I100
I15991
tp421
sS'WESTMINSTER;&E PAGE 87'
p422
(g123
I81
I15991
tp423
sS'FRIENDSHIP'
p424
(S'FRIENDSHIP ST'
p425
I100
I15858
tp426
sS'D 11'
p427
(g52
I58
I16869
tp428
sS'ANZELL ST'
p429
(S'ANGELL ST'
p430
I86
I16890
tp431
sS'N MAIN SUITE 6'
p432
(S'NORTH MAIN ST'
p433
I85
I15916
tp434
sS'WEYBOSSET'
p435
(S'WEYBOSSET ST'
p436
I100
I15992
tp437
sS'S ANGELL'
p438
(S'SOUTH ANGELL ST'
p439
I100
I17093
tp440
sS'GARNETJ 7'
p441
(S'GARNET ST'
p442
I86
I15862
tp443
sS'I WILLARD AV'
p444
(S'WILLARD ST'
p445
I94
I16545
tp446
sS'PEQUOT'
p447
(S'PEQUOT ST'
p448
I100
I15930
tp449
sS'WEYBOSSET RMS 49-50'
p450
(g324
I82
I15992
tp451
sS'CUSTOM HOUSE'
p452
(S'CUSTOM HOUSE ST'
p453
I100
I15820
tp454
sS'RESERVOIR AV'
p455
(S'RESERVOIR AVE'
p456
I100
I17303
tp457
sS'LANGDON'
p458
(S'LANGDON ST'
p459
I100
I16272
tp460
sS"WARNER'S LANE"
p461
(S'WARNERS LN'
p462
I75
I15985
tp463
sS'WEYBOSSET STREET,'
p464
(g173
I86
I15992
tp465
sS'MONTICELLO'
p466
(S'MONTICELLO ST'
p467
I100
I16348
tp468
sS'XFORDST'
p469
(S'OXFORD ST'
p470
I77
I16764
tp471
sS'DABOLL'
p472
(S'DABOLL ST'
p473
I100
I17191
tp474
sS'LLOYD AV'
p475
(S'LLOYD AVE'
p476
I100
I17025
tp477
sS'EXCHANGE PL M 306'
p478
(g274
I82
I15845
tp479
sS'MARIETTA'
p480
(S'MARIETTA ST'
p481
I100
I16314
tp482
sS'SABIN RM'
p483
(S'SABIN ST'
p484
I88
I15950
tp485
sS'ADELAIDE AV'
p486
(S'ADELAIDE AVE'
p487
I100
I17148
tp488
sS'7TH'
p489
(S'7TH ST'
p490
I100
I16877
tp491
sS'WINSLOW'
p492
(S'WINSLOW ST'
p493
I100
I15998
tp494
sS'WESHRFLNSTER'
p495
(g123
I70
I15991
tp496
sS'MEETING'
p497
(S'MEETING ST'
p498
I100
I15907
tp499
sS'HALSEY'
p500
(S'HALSEY ST'
p501
I100
I16989
tp502
sS'KENYON'
p503
(S'KENYON ST'
p504
I100
I15888
tp505
sS') ATWELLS AV'
p506
(g384
I100
I15775
tp507
sS'CALDERWOOD RD'
p508
(S'CALDER ST'
p509
I75
I17175
tp510
sS'WOLCOTT'
p511
(S'WOLCOTT ST'
p512
I100
I17722
tp513
sS'RARYST'
p514
(S'CRARY ST'
p515
I73
I15818
tp516
sS'TOURO'
p517
(S'TOURO ST'
p518
I100
I16498
tp519
sS'N MAIN'
p520
(g28
I100
I15916
tp521
sS'BENTH ST'
p522
(S'BENTON ST'
p523
I77
I17771
tp524
sS'ARNOLD'
p525
(S'ARNOLD CT'
p526
I100
I16028
tp527
sS'WESTMINSTER 1'
p528
(g123
I96
I15991
tp529
sS'GREELEY'
p530
(S'GREELEY ST'
p531
I100
I16212
tp532
sS'WESTMINSTER -'
p533
(g123
I100
I15991
tp534
sS'UPDIKE'
p535
(S'UPDIKE ST'
p536
I100
I17342
tp537
sS'OSIMSAV'
p538
(S'SIMS AVE'
p539
I73
I18041
tp540
sS'WEYBOSSET RM 309'
p541
(g324
I86
I15992
tp542
sS'6'
p543
(S'6TH ST'
p544
I50
I16876
tp545
sS'VERMONT AV'
p546
(S'VERMONT AVE'
p547
I100
I16845
tp548
sS"WESTMINSTER '"
p549
(g123
I100
I15991
tp550
sS'AMERICA'
p551
(S'AMERICA ST'
p552
I100
I15770
tp553
sS'BENETIT'
p554
(S'BENEFIT ST'
p555
I86
I15781
tp556
sS'HARTFORD AV'
p557
(S'HARTFORD AVE'
p558
I100
I17889
tp559
sS'PLAINFLELD 28'
p560
(S'PLAINFIELD ST'
p561
I84
I17994
tp562
sS'BOND'
p563
(S'BOND ST'
p564
I100
I15786
tp565
sS'BWAV'
p566
(S'BROADWAY'
p567
I75
I21699
tp568
sS'CLARENCE'
p569
(S'CLARENCE ST'
p570
I100
I16104
tp571
sS'-1961 WESTMINSTER'
p572
(g123
I90
I15991
tp573
sS'WESTMINSTER ST, 211'
p574
(g161
I88
I15991
tp575
sS'FEDERAL'
p576
(S'FEDERAL ST'
p577
I100
I15848
tp578
sS'PLAIN'
p579
(S'PLAIN ST'
p580
I100
I15934
tp581
sS'FRIENDSHIP 6TH'
p582
(S'FRIENDSHIP ST'
p583
I91
I15858
tp584
sS'W PARK ST'
p585
(S'WEST PARK ST'
p586
I100
I17704
tp587
sS'-74 DUDLEY'
p588
(S'DUDLEY ST'
p589
I90
I15830
tp590
sS'WESTMINSTER'
p591
(g251
I100
I15991
tp592
sS'NISBET'
p593
(S'NISBET ST'
p594
I100
I17055
tp595
sS'WATTIRMAN'
p596
(S'WATERMAN ST'
p597
I82
I15988
tp598
sS'WESTMINSTER RM7 1412'
p599
(g123
I85
I15991
tp600
sS'VIOLA'
p601
(S'VIOLA ST'
p602
I100
I18091
tp603
sS'CALENDER 3D'
p604
(g509
I78
I17175
tp605
sS'CALENDAR'
p606
(S'CALDAR RD'
p607
I86
I16078
tp608
sS'PINEHURST AV'
p609
(S'PINEHURST AVE'
p610
I100
I17626
tp611
sS'DEBORAH'
p612
(S'DEBORAH ST'
p613
I100
I17820
tp614
sS'EVERGREEN'
p615
(S'EVERGREEN ST'
p616
I100
I16966
tp617
sS'CHESTNUT A'
p618
(S'CHESTNUT ST'
p619
I94
I15807
tp620
sS'ANGELI ST'
p621
(g430
I86
I16890
tp622
sS'STERLING AV'
p623
(S'STERLING AVE'
p624
I100
I18055
tp625
sS'HOPE ANNEX 159 PROSPECT'
p626
(S'PROSPECT ST'
p627
I76
I16409
tp628
sS'WESTMLNSTER'
p629
(g123
I91
I15991
tp630
sS'WALNUT'
p631
(S'WALNUT ST'
p632
I100
I16527
tp633
sS'CRARYST'
p634
(g515
I83
I15818
tp635
sS'IVES'
p636
(S'IVES ST'
p637
I100
I17007
tp638
sS'MATHEWSON'
p639
(S'MATHEWSON ST'
p640
I100
I15904
tp641
sS'CEDAR'
p642
(S'CEDAR ST'
p643
I100
I15803
tp644
sS'BENEIIT'
p645
(g555
I86
I15781
tp646
sS'COMMODORE'
p647
(S'COMMODORE ST'
p648
I100
I16115
tp649
sS'BRADLEY'
p650
(S'BRADLEY ST'
p651
I100
I17411
tp652
sS'MALVERN'
p653
(S'MALVERN ST'
p654
I100
I16307
tp655
sS'ELLERY'
p656
(S'ELLERY ST'
p657
I100
I17844
tp658
sS'PAWTUCKET'
p659
(S'PAWTUXET AV'
p660
I82
I16771
tp661
sS'ARDOENE'
p662
(S'ARDOENE ST'
p663
I100
I17157
tp664
sS'CRANSTON'
p665
(g37
I100
I15817
tp666
sS'WESTMINSTER STRM934'
p667
(g161
I86
I15991
tp668
sS'LOWELL AV'
p669
(S'LOWELL AVE'
p670
I100
I17938
tp671
sS'-96 DORRANCE'
p672
(S'DORRANCE ST'
p673
I92
I15829
tp674
sS'ROCHAMBEAU AV'
p675
(S'ROCHAMBEAU AVE'
p676
I100
I17088
tp677
sS'), 1450'
p678
(S'I 195'
p679
I50
I15880
tp680
sS'PINE 5TH'
p681
(S'PINE HILL AVE'
p682
I85
I16780
tp683
sS'MEADOW'
p684
(S'MEADOW ST'
p685
I100
I15906
tp686
sS'WESTMINSTER STRM938'
p687
(g161
I86
I15991
tp688
sS'DE PINEDO ST'
p689
(S'DEPINEDO ST'
p690
I91
I16140
tp691
sS'UNION RM'
p692
(S'UNION ST'
p693
I88
I15977
tp694
sS'WEYBOSSET STRM506'
p695
(g173
I84
I15992
tp696
sS'BOGMAN'
p697
(S'BOGMAN ST'
p698
I100
I16597
tp699
sS'JENKINS'
p700
(S'JENKINS ST'
p701
I100
I17010
tp702
sS'BRIDGHAM'
p703
(S'BRIDGHAM ST'
p704
I100
I17169
tp705
sS'LABAN'
p706
(S'LABAN ST'
p707
I100
I17924
tp708
sS'TOCKWOTTON'
p709
(S'TOCKWOTTON ST'
p710
I100
I15973
tp711
sS'ARMINGTON AV'
p712
(S'ARMINGTON ST'
p713
I100
I16565
tp714
sS'OHIO AV'
p715
(S'OHIO AVE'
p716
I100
I16762
tp717
sS'; MONTICELLO'
p718
(g467
I100
I16348
tp719
sS'STATE HOUSE'
p720
(S'STATE ST'
p721
I81
I17672
tp722
sS'CANDACE'
p723
(S'CANDACE ST'
p724
I100
I17422
tp725
sS'LAUREL HILL AV'
p726
(S'LAUREL HILL AVE'
p727
I100
I17926
tp728
sS'SABIN'
p729
(g484
I100
I15950
tp730
sS'ADMIRAL'
p731
(S'ADMIRAL ST'
p732
I100
I16005
tp733
sS'1'
p734
(S'1ST ST'
p735
I50
I16871
tp736
sS'MANNING'
p737
(S'MANNING ST'
p738
I100
I17034
tp739
sS'EDDY 2'
p740
(g61
I90
I15834
tp741
sS'POPLAR'
p742
(S'POPLAR ST'
p743
I100
I17076
tp744
sS'LAUREL AV'
p745
(S'LAUREL AVE'
p746
I100
I17018
tp747
sS'ACORN'
p748
(S'ACORN ST'
p749
I100
I15764
tp750
sS'WAINWRIGHT'
p751
(S'WAINWRIGHT ST'
p752
I100
I17706
tp753
sS'WESTNIINSTER RM'
p754
(g123
I82
I15991
tp755
sS'PAYTON'
p756
(S'PAYTON ST'
p757
I100
I16773
tp758
sS'GILLEN'
p759
(S'GILLEN AVE'
p760
I100
I16202
tp761
sS'ATLANTIC AV'
p762
(S'ATLANTIC AVE'
p763
I100
I16035
tp764
sS'GODDARD'
p765
(S'GODDARD ST'
p766
I100
I17515
tp767
sS'-211'
p768
(g52
I57
I16869
tp769
sS'LANCASTER'
p770
(S'LANCASTER ST'
p771
I100
I17015
tp772
sS'P0CASSET AV'
p773
(g120
I88
I17995
tp774
sS'CHARLES FIELD'
p775
(S'CHARLES ST'
p776
I85
I16096
tp777
sS'E MANNING'
p778
(S'EAST MANNING ST'
p779
I100
I16951
tp780
sS'SUPERIOR'
p781
(S'SUPERIOR ST'
p782
I100
I17334
tp783
sS'ALLEN6S AV'
p784
(S'ALLENS AVE'
p785
I92
I15768
tp786
sS'187 WESTMINSTER'
p787
(S'WESTMINSTER ST'
p788
I92
I33631
tp789
sS'ALLEN1S AV'
p790
(g785
I92
I15768
tp791
sS'WESTMINSBER ST'
p792
(g161
I92
I15991
tp793
sS'DIKE'
p794
(S'DIKE ST'
p795
I100
I17827
tp796
sS'B UNION AVE'
p797
(S'UNION AVE'
p798
I95
I16507
tp799
sS'BROAD-'
p800
(g378
I100
I15793
tp801
sS'ANGELL .'
p802
(S'ANGELL RD'
p803
I100
I16022
tp804
sS'PEARL'
p805
(S'PEARL AVE'
p806
I100
I16394
tp807
sS'COOKE'
p808
(S'COOKE ST'
p809
I100
I16933
tp810
sS'-20 CONGDON'
p811
(S'CONGDON ST'
p812
I91
I16932
tp813
sS'LEDGE'
p814
(S'LEDGE ST'
p815
I100
I16275
tp816
sS'WALCOTT PAWTUCKET'
p817
(S'PAWTUXET AV'
p818
I69
I16771
tp819
sS'A ADMIRAL ST'
p820
(S'ADMIRAL ST'
p821
I95
I16005
tp822
sS'KING'
p823
(S'KING AV'
p824
I100
I16711
tp825
sS'PAUL'
p826
(S'PAUL ST'
p827
I100
I16393
tp828
sS'WASH RM4'
p829
(g17
I83
I21700
tp830
sS'GANO'
p831
(S'GANO ST'
p832
I100
I15861
tp833
sS'ABORN RM2'
p834
(S'ABORN ST'
p835
I85
I15763
tp836
sS'BRADFORD'
p837
(S'BRADFORD ST'
p838
I100
I15790
tp839
sS'MINERAL SPRING AVE'
p840
(S'MINERAL SPRING AV'
p841
I100
I16343
tp842
sS'CUSTOM HOUSE 2DFL'
p843
(g453
I91
I15820
tp844
sS'N MAIN RM4'
p845
(g433
I91
I15916
tp846
sS'WELL ST'
p847
(S'HOWELL ST'
p848
I84
I17002
tp849
sS'BLACKSTONE'
p850
(S'BLACKSTONE ST'
p851
I100
I15785
tp852
sS'DEANST'
p853
(S'DEAN ST'
p854
I80
I15825
tp855
sS'CRAWFORD SQ'
p856
(g838
I69
I15790
tp857
sS'ROSEDALE'
p858
(S'ROSEDALE ST'
p859
I100
I18017
tp860
sS'NORTH MAIN SUITE 6-'
p861
(g433
I85
I15916
tp862
sS', 59'
p863
(S'I 95'
p864
I41
I15881
tp865
sS'MELROSE'
p866
(S'MELROSE ST'
p867
I100
I17263
tp868
sS'GO 414 ORMS'
p869
(g11
I76
I16384
tp870
sS'KNOWLES'
p871
(S'KNOWLES ST'
p872
I100
I17014
tp873
sS'LENOX AV'
p874
(S'LENOX AVE'
p875
I100
I17244
tp876
sS'SABIN 2D'
p877
(g484
I88
I15950
tp878
sS'WESTMINSTER 4TH NOOR'
p879
(g123
I85
I15991
tp880
sS"CRANSTON '"
p881
(g73
I100
I15817
tp882
sS'CALVERLEY ST'
p883
(S'CALVERLY ST'
p884
I95
I17419
tp885
sS'WILLIAM ST'
p886
(S'WILLIAMS ST'
p887
I94
I15997
tp888
sS'ABBOTT PARK PL 5TH FL'
p889
(S'ABBOTT PARK PL'
p890
I90
I15762
tp891
sS'HAWKINS'
p892
(S'HAWKINS ST'
p893
I100
I16223
tp894
sS'VUNION'
p895
(g693
I91
I15977
tp896
sS'FRANCIS'
p897
(S'FRANCIS AVE'
p898
I100
I16187
tp899
sS'A EDDY'
p900
(g61
I90
I15834
tp901
sS'CRANSTON 7'
p902
(g73
I94
I15817
tp903
sS'BROADWAY REEVES JAMES A 1420 BROAD ST'
p904
(g82
I73
I15794
tp905
sS'-394 WESTMINSTER-'
p906
(g123
I92
I15991
tp907
sS'WEYBOESET'
p908
(g324
I89
I15992
tp909
sS'EDDY 3D 11'
p910
(g61
I78
I15834
tp911
sS'WESTMINSTER STRM71'
p912
(g161
I88
I15991
tp913
sS'WESTMINSTER STRM 19'
p914
(g161
I86
I15991
tp915
sS'WESTMINSTER STRM 18'
p916
(g161
I86
I15991
tp917
sS'RICHMOND 4'
p918
(g23
I94
I15946
tp919
sS'BROAD PAWTUCKET'
p920
(g818
I71
I16771
tp921
sS'BOWEN'
p922
(S'BOWEN ST'
p923
I100
I15789
tp924
sS'CHA&EE'
p925
(S'CHACE AVE'
p926
I74
I16921
tp927
sS'CALHOUN AV'
p928
(S'CALHOUN AVE'
p929
I100
I17176
tp930
sS'DANFORTH'
p931
(S'DANFORTH ST'
p932
I100
I17462
tp933
sS'DIMAN P1'
p934
(S'DIMAN PL'
p935
I94
I16943
tp936
sS'VEAZIE'
p937
(S'VEAZIE ST'
p938
I100
I16515
tp939
sS'HAZAEL'
p940
(S'HAZAEL ST'
p941
I100
I16226
tp942
sS'WESTMINSTER 16TH'
p943
(g123
I90
I15991
tp944
sS'WESTMINSTER RMS'
p945
(g123
I92
I15991
tp946
sS'SPRING'
p947
(S'SPRING ST'
p948
I100
I16465
tp949
sS'NIAGARA'
p950
(S'NIAGARA ST'
p951
I100
I17273
tp952
sS'WESTMINSTER 4TH TL'
p953
(g123
I88
I15991
tp954
sS'LATHAM BOUCHER COAL & WOOD CO 1054 ATWELLS'
p955
(S'WHAT CHEER AVE'
p956
I47
I18104
tp957
sS'TH FL COUNTY CT'
p958
(S'COUNTY ST'
p959
I83
I16126
tp960
sS'CARLETON'
p961
(S'CARLETON ST'
p962
I100
I17427
tp963
sS'408'
p964
(S'4TH ST'
p965
I33
I16874
tp966
sS'FOUNDATION'
p967
(g315
I78
I15853
tp968
sS'THURBERS AV'
p969
(S'THURBERS AVE'
p970
I100
I16839
tp971
sS'SHELDON'
p972
(S'SHELDON ST'
p973
I100
I16818
tp974
sS'HAWTHORNE OFFICE HOURS'
p975
(S'HAWTHORNE PL'
p976
I79
I16224
tp977
sS'ATWELLS &V'
p978
(g384
I94
I15775
tp979
sS'BROAD'
p980
(S'BROAD ST'
p981
I100
I15793
tp982
sS'KILLINGLY'
p983
(S'KILLINGLY ST'
p984
I100
I17917
tp985
sS'GLENHAM'
p986
(S'GLENHAM ST'
p987
I100
I17218
tp988
sS'WASH 2D'
p989
(S'WASHINGTON ST'
p990
I86
I21700
tp991
sS'WESTMINSTER RMS 308 309'
p992
(g251
I82
I15991
tp993
sS'N MAIN 4TH 11'
p994
(g433
I87
I15916
tp995
sS'WESTMINSTER RM7'
p996
(g123
I92
I15991
tp997
sS'WESTMINSTER RM6'
p998
(g123
I92
I15991
tp999
sS'WESTMINSTER RM1'
p1000
(g123
I92
I15991
tp1001
sS'CALENDER'
p1002
(g509
I86
I17175
tp1003
sS'VIRGINIA AV'
p1004
(S'VIRGINIA AVE'
p1005
I100
I16849
tp1006
sS'OLNEY'
p1007
(S'OLNEY ST'
p1008
I100
I16377
tp1009
sS'ROBINSON'
p1010
(S'ROBINSON ST'
p1011
I100
I16798
tp1012
sS'PRINCE'
p1013
(S'PRINCE ST'
p1014
I100
I15941
tp1015
sS'BENEM ST'
p1016
(S'EBEN ST'
p1017
I73
I16163
tp1018
sS'CAPRON'
p1019
(S'CAPRON ST'
p1020
I100
I17791
tp1021
sS'HARRISON'
p1022
(S'HARRISON ST'
p1023
I100
I17226
tp1024
sS'MESSER 7'
p1025
(S'MESSER ST'
p1026
I93
I17961
tp1027
sS'MTPIEASANT AV'
p1028
(S'PLEASANT AV'
p1029
I80
I16399
tp1030
sS'MCMILLEN'
p1031
(S'MCMILLEN ST'
p1032
I100
I16329
tp1033
sS'CORLISS'
p1034
(S'CORLISS ST'
p1035
I100
I16123
tp1036
sS'ABORN'
p1037
(g835
I100
I15763
tp1038
sS'BISHOP'
p1039
(S'BRISTOW ST'
p1040
I62
I16069
tp1041
sS'MAWNEY'
p1042
(S'MAWNEY ST'
p1043
I100
I17261
tp1044
sS'HIGH PAWTUCKET'
p1045
(g818
I73
I16771
tp1046
sS'SOUTH MAIN BRANCHES EMPIRE-ABORN STREETS 87-93 EMPIRE 22-30 ABORN,OLNEYVILLE BRANCH 19171921 WESTMINSTER'
p1047
(g123
I59
I15991
tp1048
sS'PEARL-'
p1049
(S'PEARL AVE'
p1050
I100
I16394
tp1051
sS'LATHAM'
p1052
(S'CHATHAM ST'
p1053
I77
I16098
tp1054
sS'PROGRESS'
p1055
(S'PROGRESS AVE'
p1056
I100
I18001
tp1057
sS'BELLEVUE AV'
p1058
(S'BELLEVUE AVE'
p1059
I100
I16051
tp1060
sS'MOOREFIELD'
p1061
(S'MOOREFIELD ST'
p1062
I100
I17965
tp1063
sS'CLIFF'
p1064
(S'CLIFF ST'
p1065
I100
I17441
tp1066
sS'PROGRESS AV'
p1067
(g1056
I100
I18001
tp1068
sS'A'
p1069
(S'A ST'
p1070
I100
I17146
tp1071
sS'BYFIELD'
p1072
(S'BYFIELD ST'
p1073
I100
I16607
tp1074
sS'BOWDOIN'
p1075
(S'BOWDOIN ST'
p1076
I100
I17778
tp1077
sS'KOSSUTH'
p1078
(S'KOSSUTH ST'
p1079
I100
I17923
tp1080
sS'EDENDALE AVE'
p1081
(S'VERNDALE AVE'
p1082
I79
I16846
tp1083
sS'HIGH, PAWTUCKET'
p1084
(S'PAWTUXET AV'
p1085
I73
I16771
tp1086
sS'RADCLIFFE AV'
p1087
(S'RADCLIFFE AVE'
p1088
I100
I17634
tp1089
sS'DOUGLAS AV'
p1090
(S'DOUGLAS AVE'
p1091
I100
I16154
tp1092
sS'9 CALENDER'
p1093
(g509
I80
I17175
tp1094
sS',PARK AV,'
p1095
(S'PARK ST'
p1096
I100
I16391
tp1097
sS'DEERFIELD TER'
p1098
(S'DEERFIELD TERR'
p1099
I98
I17193
tp1100
sS'WEST MINSTER'
p1101
(g123
I87
I15991
tp1102
sS'FRANKLIN'
p1103
(S'FRANKLIN ST'
p1104
I100
I16188
tp1105
sS'STENTON AV'
p1106
(S'STENTON AVE'
p1107
I100
I17104
tp1108
sS'W RIVER'
p1109
(S'WEST RIVER ST'
p1110
I100
I16541
tp1111
sS'S WATER'
p1112
(S'SOUTH WATER ST'
p1113
I100
I15949
tp1114
sS'681 BROADWAY'
p1115
(g82
I90
I15794
tp1116
sS'FOSDYKE'
p1117
(S'FOSDYKE ST'
p1118
I100
I16973
tp1119
sS'ISLAND CHESS CLUB 681'
p1120
(S'RHODE ISLAND COLL'
p1121
I73
I17643
tp1122
sS'CA.NAL'
p1123
(g332
I83
I15798
tp1124
sS'COLFAX'
p1125
(S'COLFAX ST'
p1126
I100
I16626
tp1127
sS'DORRANCE MM 405'
p1128
(g673
I85
I15829
tp1129
sS'MTPLEASANT'
p1130
(g1029
I89
I16399
tp1131
sS'WHITEHALL'
p1132
(S'WHITEHALL ST'
p1133
I100
I18106
tp1134
sS'WAYLAND AV'
p1135
(S'WAYLAND AVE'
p1136
I100
I17125
tp1137
sS'BENEFIT'
p1138
(S'BENEFIT ST'
p1139
I100
I15781
tp1140
sS'SUMMIT AV'
p1141
(S'SUMMIT AVE'
p1142
I100
I17106
tp1143
sS'WESTMINSTER STRM630'
p1144
(g161
I86
I15991
tp1145
sS'RANDALL SQ SUITE 104'
p1146
(g179
I83
I16416
tp1147
sS'DECATUR SQ'
p1148
(S'DECATUR AVE'
p1149
I91
I16138
tp1150
sS'WEYBOSSET RMS'
p1151
(g324
I91
I15992
tp1152
sS'COLE AV'
p1153
(S'COLE AVE'
p1154
I100
I16928
tp1155
sS'WESTMINSTER RMZ4'
p1156
(g123
I90
I15991
tp1157
sS'WESTMINSTER RMS 1-2'
p1158
(g123
I86
I15991
tp1159
sS', 266'
p1160
(S'2ND ST'
p1161
I33
I16872
tp1162
sS'FRANKLIN 7'
p1163
(S'FRANKLIN ST'
p1164
I94
I16188
tp1165
sS'G BRANCH AV'
p1166
(g85
I93
I16067
tp1167
sS'LIVINGSTON'
p1168
(S'LIVINGSTON ST'
p1169
I100
I16287
tp1170
sS'J EWETT ST'
p1171
(S'JEWETT ST'
p1172
I93
I17549
tp1173
sS'MORRIS AV'
p1174
(S'MORRIS AVE'
p1175
I100
I17047
tp1176
sS'ABBOTT'
p1177
(S'ABBOTT ST'
p1178
I100
I16880
tp1179
sS'ALTHEA'
p1180
(S'ALTHEA ST'
p1181
I100
I17152
tp1182
sS'HOSPITAL TRUST BLDG, 15 WESTMINSTER ST,'
p1183
(g161
I77
I15991
tp1184
sS'PILGRIM'
p1185
(S'PILGRIM DR'
p1186
I100
I16778
tp1187
sS'SUMMER ST2DFL'
p1188
(S'SUMMER ST'
p1189
I81
I15965
tp1190
sS'HOYLE'
p1191
(S'DOYLE AVE'
p1192
I80
I16946
tp1193
sS'PB, SIX PRINCIPLE'
p1194
(g1014
I67
I15941
tp1195
sS'ANDEM'
p1196
(S'ANDEM ST'
p1197
I100
I17376
tp1198
sS'PLAINIIELD'
p1199
(g561
I90
I17994
tp1200
sS'BASSET'
p1201
(S'BASSETT ST'
p1202
I92
I15777
tp1203
sS'N MAIN 4THII'
p1204
(g433
I88
I15916
tp1205
sS'ALGER AV'
p1206
(S'ALGER AVE'
p1207
I100
I17150
tp1208
sS'BROADWAY LE'
p1209
(g82
I92
I15794
tp1210
sS'LUNA'
p1211
(S'LUNA ST'
p1212
I100
I16299
tp1213
sS'WILDWOOD AV'
p1214
(S'WILDWOOD AVE'
p1215
I100
I17357
tp1216
sS'WOODMAN'
p1217
(S'WOODMAN ST'
p1218
I100
I17360
tp1219
sS'TO 77 WESTMINSTER'
p1220
(g251
I89
I15991
tp1221
sS'WEYBOSSET MI 301'
p1222
(g324
I86
I15992
tp1223
sS'63 WASH'
p1224
(g17
I86
I21700
tp1225
sS'WHITMARSH'
p1226
(S'WHITMARSH ST'
p1227
I100
I17355
tp1228
sS'CALLA.'
p1229
(S'CALLA ST'
p1230
I100
I16611
tp1231
sS'CONNECTICUT MUTUAL LIFE INS CO 111'
p1232
(S'CONSTITUTION HILL ST'
p1233
I52
I16121
tp1234
sS'DORMNCE ST'
p1235
(g49
I83
I15829
tp1236
sS'CALENDERM'
p1237
(g509
I80
I17175
tp1238
sS'REDWOOD'
p1239
(S'REDWOOD DR'
p1240
I100
I17640
tp1241
sS'-197 WESTMINSTER'
p1242
(g123
I92
I15991
tp1243
sS'KNIZHT ST'
p1244
(S'KNIGHT ST'
p1245
I86
I15890
tp1246
sS'MASON ST'
p1247
(S'MATSON AVE'
p1248
I91
I17953
tp1249
sS'577'
p1250
(g864
I34
I15881
tp1251
sS'GLENDALE AV'
p1252
(S'GLENDALE AVE'
p1253
I100
I16979
tp1254
sS'RANKIN AV'
p1255
(S'RANKIN AVE'
p1256
I100
I17636
tp1257
sS'MANTON AV'
p1258
(S'MANTON AVE'
p1259
I100
I17947
tp1260
sS'RICHMOND TOP FL'
p1261
(g23
I85
I15946
tp1262
sS'WESTMINSTER STRM908'
p1263
(g161
I86
I15991
tp1264
sS'WESTMINSTER--'
p1265
(g123
I100
I15991
tp1266
sS'HIDDEN'
p1267
(S'HIDDEN ST'
p1268
I100
I16996
tp1269
sS"CHARL'ES"
p1270
(g43
I88
I16096
tp1271
sS'CRAWFORD'
p1272
(g838
I75
I15790
tp1273
sS'GESLER'
p1274
(S'GESLER ST'
p1275
I100
I17864
tp1276
sS'WESTMINSTER RMS 209-210'
p1277
(g251
I82
I15991
tp1278
sS'HOSPITAL TRUST PLAZA, SUITE 2700'
p1279
(g307
I70
I15878
tp1280
sS'DELAINE'
p1281
(S'DELAINE ST'
p1282
I100
I17822
tp1283
sS'ELTON'
p1284
(S'ELTON ST'
p1285
I100
I16962
tp1286
sS'GREENWICH'
p1287
(S'GREENWICH ST'
p1288
I100
I17220
tp1289
sS'CABOT'
p1290
(S'TALBOT ST'
p1291
I73
I16485
tp1292
sS'BELAIR AV'
p1293
(S'BELAIR AVE'
p1294
I100
I16900
tp1295
sS'DOVLE AV'
p1296
(S'DOVE ST'
p1297
I89
I16945
tp1298
sS'WESTMINSTER STRM78'
p1299
(g161
I88
I15991
tp1300
sS'CARPENTER'
p1301
(S'CARPENTER ST'
p1302
I100
I15801
tp1303
sS'WESLEYAN AV1'
p1304
(S'WESLEYAN AVE'
p1305
I90
I17353
tp1306
sS'DE FOE P1'
p1307
(S'DEFOE PL'
p1308
I78
I16941
tp1309
sS'STANWOOD'
p1310
(S'STANWOOD ST'
p1311
I100
I17331
tp1312
sS'CHESTER AV'
p1313
(S'CHESTER AVE'
p1314
I100
I16619
tp1315
sS'G CHALKSTONE AV'
p1316
(S'CHALKSTONE AVE'
p1317
I95
I17433
tp1318
sS'DRYDEN LA'
p1319
(S'DRYDEN LN'
p1320
I90
I16156
tp1321
sS'TOWNER'
p1322
(S'TOWER ST'
p1323
I91
I16841
tp1324
sS'SACKETT'
p1325
(S'SACKETT ST'
p1326
I100
I17314
tp1327
sS'BISHOP ST'
p1328
(S'BRISTOW ST'
p1329
I68
I16069
tp1330
sS'OAK'
p1331
(S'OAK ST'
p1332
I100
I17974
tp1333
sS'STEWART'
p1334
(S'STEWART ST'
p1335
I100
I15963
tp1336
sS'BROWN'
p1337
(S'BROWN ST'
p1338
I100
I16073
tp1339
sS'AIRPORT RD'
p1340
(S'ARBOR DR'
p1341
I67
I17380
tp1342
sS'FENNER RM1'
p1343
(g292
I87
I15849
tp1344
sS'HOME LIFE INSURANCE CO OF N Y 111 WESTMINSTER'
p1345
(g123
I68
I15991
tp1346
sS'HAMLIN'
p1347
(S'HAMLIN ST'
p1348
I100
I16217
tp1349
sS'WHITTIER AV'
p1350
(S'WHITTIER AVE'
p1351
I100
I18107
tp1352
sS'HOSPITAL'
p1353
(g307
I100
I15878
tp1354
sS'SWAN'
p1355
(S'SWAN CT'
p1356
I100
I16481
tp1357
sS'BRANCH AV'
p1358
(S'BRANCH AVE'
p1359
I100
I16067
tp1360
sS'LINTON'
p1361
(S'LINTON ST'
p1362
I100
I17568
tp1363
sS'WOODMONT'
p1364
(S'WOODMONT ST'
p1365
I100
I17361
tp1366
sS'BUTLER AV'
p1367
(S'BUTLER AVE'
p1368
I100
I16915
tp1369
sS'TAN DRIVE'
p1370
(S'WEST RIVER ST'
p1371
I71
I16541
tp1372
sS'TRIPPS LANE'
p1373
(S'TRIPOLI ST'
p1374
I59
I18077
tp1375
sS'PARNELL'
p1376
(S'PARNELL ST'
p1377
I100
I17987
tp1378
sS'CALENDER 3D 11'
p1379
(g509
I73
I17175
tp1380
sS'EDDY TOP FL'
p1381
(g61
I76
I15834
tp1382
sS'PLAINFLELD'
p1383
(g561
I90
I17994
tp1384
sS'SOMERSET'
p1385
(g242
I100
I17325
tp1386
sS'HARBORSIDE BLVD,'
p1387
(S'HARBORSIDE BLVD'
p1388
I100
I16683
tp1389
sS'HOSPITAL TRUST TOWER PROVIDENCE, RI 02903'
p1390
(S'PROVIDENCE PL'
p1391
I71
I17631
tp1392
sS'WEYBOSSET RM8'
p1393
(g324
I91
I15992
tp1394
sS'LINDEN'
p1395
(S'LINDEN DR'
p1396
I100
I17023
tp1397
sS'WEYBOSSET 1 ,'
p1398
(g324
I95
I15992
tp1399
sS'WICKENDEN STV'
p1400
(S'WICKENDEN ST'
p1401
I91
I15995
tp1402
sS'PRAIRIE AV'
p1403
(S'PRAIRIE AVE'
p1404
I100
I16787
tp1405
sS'CENTRAL'
p1406
(S'CENTRAL AVE'
p1407
I100
I16095
tp1408
sS'NIANTIC AV'
p1409
(S'NIANTIC AVE'
p1410
I100
I17274
tp1411
sS'FRONT PAWTUCKET'
p1412
(g818
I71
I16771
tp1413
sS'WOODBURY'
p1414
(S'WOODBURY RD'
p1415
I100
I16866
tp1416
sS'HERSCHEL'
p1417
(S'HERSCHEL ST'
p1418
I100
I17895
tp1419
sS'2D ST'
p1420
(S'2ND ST'
p1421
I85
I16872
tp1422
sS"'CON"
p1423
(g749
I75
I15764
tp1424
sS'JACKSON.'
p1425
(S'JACKSON ST'
p1426
I100
I16253
tp1427
sS'ANGELL'
p1428
(S'ANGELL RD'
p1429
I100
I16022
tp1430
sS'BRAYTON AV'
p1431
(S'BRAYTON AVE'
p1432
I100
I15791
tp1433
sS'A11EN1S AV'
p1434
(g785
I62
I15768
tp1435
sS'BURRINGTON'
p1436
(S'BURRINGTON ST'
p1437
I100
I21717
tp1438
sS'MATHEWSON STRM302'
p1439
(S'MATHEWSON ST'
p1440
I84
I15904
tp1441
sS'FENNER RML'
p1442
(g292
I87
I15849
tp1443
sS'SHIP'
p1444
(S'SHIP ST'
p1445
I100
I15955
tp1446
sS'CRANSBON ST'
p1447
(g37
I89
I15817
tp1448
sS'CHARLES FIELD ST'
p1449
(g372
I88
I16096
tp1450
sS'RHODEST'
p1451
(S'RHODES ST'
p1452
I92
I15945
tp1453
sS'EATON'
p1454
(S'EATON ST'
p1455
I100
I17478
tp1456
sS'POINT'
p1457
(S'POINT ST'
p1458
I100
I15936
tp1459
sS'JOHN'
p1460
(S'JOHN ST'
p1461
I100
I16259
tp1462
sS'MAIN WOONSOCKET'
p1463
(S'WOONASQUATUCKET AV'
p1464
I66
I18113
tp1465
sS'PONTIAC'
p1466
(S'PONTIAC AVE'
p1467
I100
I17292
tp1468
sS'WESTMINSTER RM 23'
p1469
(g123
I89
I15991
tp1470
sS".184 ALLEN'S AV"
p1471
(g785
I74
I15768
tp1472
sS'A BRANCH AVE'
p1473
(S'BRANCH AVE'
p1474
I95
I16067
tp1475
sS'TRANSIT'
p1476
(S'TRANSIT ST'
p1477
I100
I15975
tp1478
sS"CRANSTON -'"
p1479
(g73
I100
I15817
tp1480
sS'CUSTOM HOUSEST'
p1481
(S'CUSTOM HOUSE ST'
p1482
I69
I15820
tp1483
sS'WEST EXCHANGE'
p1484
(g196
I100
I15982
tp1485
sS'GEORGE WASHINGTON HWY'
p1486
(S'WASHINGTON PL'
p1487
I82
I15986
tp1488
sS'SLOCUM'
p1489
(S'SLOCUM ST'
p1490
I100
I18043
tp1491
sS'RIVER AV,'
p1492
(S'RIVER AVE'
p1493
I100
I16423
tp1494
sS'RIVER AV-'
p1495
(S'RIVER AVE'
p1496
I100
I16423
tp1497
sS'ROCKLAND AV'
p1498
(S'ROCKLAND AVE'
p1499
I100
I17651
tp1500
sS"87, 40'DANLEL"
p1501
(S'DANIEL AVE'
p1502
I69
I17817
tp1503
sS'BEMON ST'
p1504
(S'BELMONT AVE'
p1505
I83
I17398
tp1506
sS"WEYBOSSET I'M 19"
p1507
(g324
I86
I15992
tp1508
sS'JUDITH'
p1509
(S'JUDITH ST'
p1510
I100
I17913
tp1511
sS'A BROAD'
p1512
(g378
I91
I15793
tp1513
sS'APPLETON'
p1514
(S'APPLETON ST'
p1515
I100
I17749
tp1516
sS'ROANOKE'
p1517
(S'ROANOKE ST'
p1518
I100
I17648
tp1519
sS'MT PLEASANT AVE'
p1520
(S'MOUNT PLEASANT AVE'
p1521
I95
I17599
tp1522
sS'VZ CRANSTON ST'
p1523
(g37
I94
I15817
tp1524
sS'WIASFNXINSTER ST'
p1525
(g161
I70
I15991
tp1526
sS'I PRAIRIE AV'
p1527
(g1404
I94
I16787
tp1528
sS'DELMAR AVE'
p1529
(S'DELMAR ST'
p1530
I100
I17194
tp1531
sS'-264 WEYBOSSET'
p1532
(g324
I91
I15992
tp1533
sS'B'
p1534
(S'JOB ST'
p1535
I50
I16257
tp1536
sS'BLACK'
p1537
(S'BLACKSTONE ST'
p1538
I67
I15785
tp1539
sS'PINE'
p1540
(S'PINE ST'
p1541
I100
I15933
tp1542
sS'BROADWAY'
p1543
(g82
I100
I15794
tp1544
sS'PARKJS AVE'
p1545
(S'PARKIS AVE'
p1546
I86
I17282
tp1547
sS'EMPIRE'
p1548
(S'EMPIRE ST'
p1549
I100
I15840
tp1550
sS'A ELMWOOD AV'
p1551
(S'ELMWOOD AVE'
p1552
I94
I17207
tp1553
sS"ELMI'OOD AV"
p1554
(S'ELMIRA AV'
p1555
I75
I16169
tp1556
sS'BLAIR LA'
p1557
(S'BELAIR AVE'
p1558
I81
I16900
tp1559
sS'WESTMINSSTER'
p1560
(g123
I96
I15991
tp1561
sS'WATERMAN'
p1562
(g109
I100
I15988
tp1563
sS'TO 291 WEYBOSSET'
p1564
(g324
I86
I15992
tp1565
sS'EDDY 5TH'
p1566
(g61
I83
I15834
tp1567
sS'CABOT ST'
p1568
(S'TALBOT ST'
p1569
I77
I16485
tp1570
sS'CHESTNUT ST3DF1'
p1571
(S'CHESTNUT ST'
p1572
I85
I15807
tp1573
sS'CAMP'
p1574
(S'CAMP ST'
p1575
I100
I16917
tp1576
sS'OLNEYVILLE AV'
p1577
(g94
I93
I17978
tp1578
sS'WATERMAN AV,'
p1579
(g109
I100
I15988
tp1580
sS"WESTMINSTE'R-SE'E PAGE 79"
p1581
(g123
I75
I15991
tp1582
sS'HOWELL'
p1583
(S'HOWELL ST'
p1584
I100
I17002
tp1585
sS'WESTMINSTER 17M 301'
p1586
(g123
I86
I15991
tp1587
sS'3D'
p1588
(S'3RD ST'
p1589
I80
I16873
tp1590
sS'CHESTNUT,'
p1591
(g619
I100
I15807
tp1592
sS'N DAVIS ST'
p1593
(S'NORTH DAVIS ST'
p1594
I100
I17601
tp1595
sS'CAMD'
p1596
(S'CAMDEN AVE'
p1597
I80
I17421
tp1598
sS'TO 1961 WESTMINSTER'
p1599
(g123
I86
I15991
tp1600
sS'TAYLOR'
p1601
(S'TAYLOR ST'
p1602
I100
I17337
tp1603
sS'E MANNING ST'
p1604
(S'EAST MANNING ST'
p1605
I100
I16951
tp1606
sS'HOSPITAL TRUST BLDG PROVIDENCE R I'
p1607
(g1391
I73
I17631
tp1608
sS'JULIAN'
p1609
(S'JULIAN ST'
p1610
I100
I17914
tp1611
sS'WEYBOSSET RMS 54-55'
p1612
(g324
I82
I15992
tp1613
sS'SNOW'
p1614
(S'SNOW ST'
p1615
I100
I15957
tp1616
sS'TAUNTON AV'
p1617
(S'STANTON ST'
p1618
I86
I18051
tp1619
sS'ELMDALE AV'
p1620
(S'ELMDALE AVE'
p1621
I100
I17845
tp1622
sS'PLEASANT'
p1623
(g1029
I100
I16399
tp1624
sS'KIMBALL'
p1625
(S'KIMBALL ST'
p1626
I100
I17556
tp1627
sS'PUBLIC'
p1628
(S'PUBLIC ST'
p1629
I100
I15942
tp1630
sS'WATERMAN AVE'
p1631
(g109
I100
I15988
tp1632
sS'MILL'
p1633
(S'MILL ST'
p1634
I100
I15911
tp1635
sS'KINGSTOWN RD'
p1636
(S'KINGSTON AVE'
p1637
I94
I17013
tp1638
sS'4'
p1639
(g318
I50
I16874
tp1640
sS'CHAD BROWN'
p1641
(S'CHAD BROWN ST'
p1642
I100
I17432
tp1643
sS'CONGDON'
p1644
(g812
I100
I16932
tp1645
sS'BROADWAY SUITE G'
p1646
(g82
I83
I15794
tp1647
sS'POTTERS AV'
p1648
(g176
I100
I16786
tp1649
sS'ZONE'
p1650
(S'ZONE ST'
p1651
I100
I17730
tp1652
sS'INDIANA AV'
p1653
(S'INDIANA AVE'
p1654
I100
I16702
tp1655
sS'ELIZAST'
p1656
(S'ELIZA ST'
p1657
I83
I17843
tp1658
sS'PINE 6'
p1659
(S'PINE ST'
p1660
I90
I15933
tp1661
sS'SARGENT AV'
p1662
(S'SARGENT AVE'
p1663
I100
I17095
tp1664
sS"RICHMOND ALLEN'S AV"
p1665
(S'RICHMOND SQ'
p1666
I82
I17086
tp1667
sS'W EXCHANGE BRANCHES'
p1668
(g196
I87
I15982
tp1669
sS'CALVERLEY'
p1670
(S'CALVERLY ST'
p1671
I94
I17419
tp1672
sS'PLAINIIELD ST'
p1673
(S'PLAINFIELD ST'
p1674
I91
I17994
tp1675
sS'WEYBOSSET RM'
p1676
(g324
I93
I15992
tp1677
sS'SEYMOUR'
p1678
(S'SEYMOUR ST'
p1679
I100
I16816
tp1680
sS"CX'ANSTON"
p1681
(g73
I84
I15817
tp1682
sS') 401'
p1683
(S'1ST ST'
p1684
I33
I16871
tp1685
sS'MUSSOLINI'
p1686
(S'MESSINA ST'
p1687
I63
I17590
tp1688
sS"' WESTMINSTER ST"
p1689
(g161
I100
I15991
tp1690
sS'HILLSIDE AVE'
p1691
(g357
I100
I16235
tp1692
sS'& BWAY'
p1693
(g567
I100
I21699
tp1694
sS'PROSPECT'
p1695
(g627
I100
I16409
tp1696
sS'ARCADE BLDG'
p1697
(S'ARCADE ST'
p1698
I85
I15773
tp1699
sS'979'
p1700
(g864
I34
I15881
tp1701
sS'J EFFERSON'
p1702
(S'JEFFERSON ST'
p1703
I94
I17548
tp1704
sS'WESIMINSTER'
p1705
(g123
I91
I15991
tp1706
sS'CAMDEN AV'
p1707
(S'CAMDEN AVE'
p1708
I100
I17421
tp1709
sS"NIM'GRET AVE"
p1710
(S'GREAT VIEW AVE'
p1711
I75
I16211
tp1712
sS'D-ORRANCE'
p1713
(g673
I93
I15829
tp1714
sS'POTTEFS AV'
p1715
(g176
I86
I16786
tp1716
sS'BQ POCASSET AVE'
p1717
(S'POCASSET AVE'
p1718
I94
I17995
tp1719
sS'ROOSEVELT'
p1720
(S'ROOSEVELT ST'
p1721
I100
I16432
tp1722
sS'FOUNTAIN W PER ANNUM'
p1723
(g315
I76
I15853
tp1724
sS"EDDY TOP FL'"
p1725
(g61
I76
I15834
tp1726
sS'W CLIFFORD'
p1727
(S'WEST CLIFFORD ST'
p1728
I100
I17344
tp1729
sS'-196 WEST EXCHANGE'
p1730
(g196
I93
I15982
tp1731
sS'CLIFFORD TOP FL'
p1732
(S'CLIFFORD ST'
p1733
I85
I15811
tp1734
sS"WESTMINSTER-SE'ZE PAGE 182"
p1735
(g123
I79
I15991
tp1736
sS'SPRING PAWTUCKET-'
p1737
(g818
I70
I16771
tp1738
sS'MARLBOROUGH AV'
p1739
(S'MARLBOROUGH AVE'
p1740
I100
I17259
tp1741
sS'VALLEY OLNEYVILLE'
p1742
(g94
I83
I17978
tp1743
sS'& THAYER'
p1744
(S'THAYER ST'
p1745
I100
I17112
tp1746
sS'SOUTH'
p1747
(S'SOUTH CT'
p1748
I100
I15959
tp1749
sS'I COMMODORE'
p1750
(g648
I95
I16115
tp1751
sS'& PLAIN'
p1752
(S'PLAIN ST'
p1753
I100
I15934
tp1754
sS'WESTMINSTER 4TH'
p1755
(g123
I92
I15991
tp1756
sS'GLENBRIDGE AV'
p1757
(S'GLENBRIDGE AVE'
p1758
I100
I17868
tp1759
sS'PLEASANTUVALLLEY PKWY'
p1760
(S'PLEASANT VALLEY PKWY'
p1761
I80
I17627
tp1762
sS'GLOBE'
p1763
(S'GLOBE ST'
p1764
I100
I15865
tp1765
sS'CHARLES'
p1766
(g776
I100
I16096
tp1767
sS'WH-ITMARSH'
p1768
(g1227
I91
I17355
tp1769
sS'SCHESTNUTST'
p1770
(g1572
I84
I15807
tp1771
sS'HAMILTON'
p1772
(S'HAMILTON ST'
p1773
I100
I17223
tp1774
sS'ALDRICH'
p1775
(S'ALDRICH ST'
p1776
I100
I16559
tp1777
sS'BUSH'
p1778
(S'BRUSH HILL RD'
p1779
I73
I17786
tp1780
sS'ORANGE 3D 11'
p1781
(S'ORANGE ST'
p1782
I83
I15921
tp1783
sS'LENNON'
p1784
(S'LENNON ST'
p1785
I100
I17563
tp1786
sS'DORRANCE-'
p1787
(S'DORRANCE ST'
p1788
I100
I15829
tp1789
sS'OLNEYVILLE SQ RM8'
p1790
(S'OLNEYVILLE SQ'
p1791
I93
I17978
tp1792
sS'8'
p1793
(S'8TH ST'
p1794
I50
I16878
tp1795
sS'MALVEM ST'
p1796
(S'MALVERN ST'
p1797
I80
I16307
tp1798
sS'EQUITABLE LIFE INS CO OF IOWA 111'
p1799
(S'HERITAGE CIR'
p1800
I47
I16230
tp1801
sS'GARNET'
p1802
(g442
I100
I15862
tp1803
sS'334 WESTMINSTER'
p1804
(g123
I92
I15991
tp1805
sS'EMPIRE RMS 303-304'
p1806
(S'EMPIRE ST'
p1807
I75
I15840
tp1808
sS'TAPPAN'
p1809
(S'TAPPAN ST'
p1810
I100
I17680
tp1811
sS'FRIENDSHIP-'
p1812
(g583
I100
I15858
tp1813
sS'MELROSE 160 MESSER 3'
p1814
(g867
I76
I17263
tp1815
sS'MT HOPE AVE'
p1816
(g34
I86
I15875
tp1817
sS'BROADWAY RM'
p1818
(g82
I92
I15794
tp1819
sS'FENNER'
p1820
(g292
I100
I15849
tp1821
sS'WESTMINSTER 3D'
p1822
(g123
I94
I15991
tp1823
sS'WESTMINSTER BRANCHES'
p1824
(g123
I85
I15991
tp1825
sS'WEYBOSSET OFFICE'
p1826
(g324
I86
I15992
tp1827
sS'TERMINAL WAY'
p1828
(S'TERMINAL RD'
p1829
I90
I16838
tp1830
sS'KENNEDY PLAZA'
p1831
(S'KENNEDY PLZ'
p1832
I96
I15887
tp1833
sS"WESTMINSTER';"
p1834
(g123
I100
I15991
tp1835
sS'MARKET SQUEE BACK COLORED PAGE Y'
p1836
(S'COLE FARM CT'
p1837
I51
I16929
tp1838
sS'OOSMAINST3DFL'
p1839
(S'MANSFIELD ST'
p1840
I55
I17584
tp1841
sS'ELMGR OVE AVE'
p1842
(g199
I86
I16960
tp1843
sS'2'
p1844
(g1421
I50
I16872
tp1845
sS'THE'
p1846
(S'IANTHE ST'
p1847
I67
I16248
tp1848
sS'FLORENCE'
p1849
(S'FLORENCE ST'
p1850
I100
I16183
tp1851
sS'GEORGE'
p1852
(S'GEORGE ST'
p1853
I100
I16670
tp1854
sS'-61 CANAL'
p1855
(g332
I88
I15798
tp1856
sS'DYER'
p1857
(S'DYER ST'
p1858
I100
I15831
tp1859
sS'; FEDERAL'
p1860
(S'FEDERAL ST'
p1861
I100
I15848
tp1862
sS'JEWETT'
p1863
(S'JEWETT ST'
p1864
I100
I17549
tp1865
sS'PLAINFIELD PIKE'
p1866
(g1674
I90
I17994
tp1867
sS'OF R I THE'
p1868
(g1847
I58
I16248
tp1869
sS'HEMPSTEAD'
p1870
(S'HEMPSTEAD ST'
p1871
I100
I17232
tp1872
sS'AVENTINE AV'
p1873
(S'AVENTINE AVE'
p1874
I100
I16039
tp1875
sS'MANHON AVE'
p1876
(S'MANTON AVE'
p1877
I86
I17947
tp1878
sS'ATWOOD'
p1879
(S'ATWOOD AVE'
p1880
I100
I16037
tp1881
sS'PROMENADE'
p1882
(g67
I100
I17630
tp1883
sS'WICKENDEN'
p1884
(S'WICKENDEN ST'
p1885
I100
I15995
tp1886
sS'WESTFNELD'
p1887
(S'WESTFIELD ST'
p1888
I89
I17354
tp1889
sS'; SMITH'
p1890
(g360
I100
I16457
tp1891
sS'PRINCETON AVE'
p1892
(S'PRINCETON AV'
p1893
I100
I17298
tp1894
sS'LONGMONT'
p1895
(S'LONGMONT ST'
p1896
I100
I17571
tp1897
sS'SAYLES'
p1898
(S'SAYLES ST'
p1899
I100
I16809
tp1900
sS'WESTMINSTER RMS 306-307'
p1901
(g123
I82
I15991
tp1902
sS'ALMY'
p1903
(S'ALMY ST'
p1904
I100
I17741
tp1905
sS"; ALLEN'S AV"
p1906
(g785
I81
I15768
tp1907
sS"'WATERMAN"
p1908
(g597
I100
I15988
tp1909
sS'K CHARLES ST'
p1910
(g372
I95
I16096
tp1911
sS'WHIPPLE'
p1912
(S'WHIPPLE ST'
p1913
I100
I17716
tp1914
sS'WEYBPSSET'
p1915
(g324
I89
I15992
tp1916
sS'BELL'
p1917
(S'BELL ST'
p1918
I100
I17768
tp1919
sS'SHAWMUT'
p1920
(S'SHAW ST'
p1921
I73
I16448
tp1922
sS'-34 DUDLEY'
p1923
(S'DUDLEY ST'
p1924
I90
I15830
tp1925
sS'CHESTNUT'
p1926
(S'CHESTNUT ST'
p1927
I100
I15807
tp1928
sS'310'
p1929
(S'10TH ST'
p1930
I57
I16868
tp1931
sS'EDDY 6TH'
p1932
(g61
I83
I15834
tp1933
sS'BLACKSTONE BLVD APT 2'
p1934
(S'BLACKSTONE BLVD'
p1935
I91
I16904
tp1936
sS'UNIVERSITY AV'
p1937
(S'UNIVERSITY AVE'
p1938
I100
I17119
tp1939
sS'HELME'
p1940
(S'HELME ST'
p1941
I100
I17892
tp1942
sS'ABOM ST'
p1943
(S'ABORN ST'
p1944
I73
I15763
tp1945
sS'JACKSON'
p1946
(g1426
I100
I16253
tp1947
sS'PINE 4TH'
p1948
(g682
I85
I16780
tp1949
sS'A WEB STER AV'
p1950
(S'WEBSTER AVE'
p1951
I77
I18098
tp1952
sS'N COURT'
p1953
(S'NORTH ROME AVE'
p1954
I83
I16364
tp1955
sS'227 DEAN'
p1956
(S'DEAN ST'
p1957
I83
I15825
tp1958
sS'EAGLE'
p1959
(S'EAGLE ST'
p1960
I100
I17477
tp1961
sS"MAJ'N ST"
p1962
(S'NORTH CT'
p1963
I85
I15918
tp1964
sS'PLAINFIELD MUNICIPAL POST 38, 1 BURNSIDE ROGER WILLIAMS POST 35, 285 SMITH THOS L RYAN POST NO 47, 138 ACAD-'
p1965
(g561
I59
I17994
tp1966
sS'ARLINGTON AV'
p1967
(S'ARLINGTON AVE'
p1968
I100
I16892
tp1969
sS'DYER AV'
p1970
(S'DYER ST'
p1971
I100
I15831
tp1972
sS'PAGE 2D 11'
p1973
(g187
I78
I15923
tp1974
sS'WILLOW'
p1975
(S'WILLOW ST'
p1976
I100
I18108
tp1977
sS'CATHEDRAL AV'
p1978
(S'CATHEDRAL AVE'
p1979
I100
I17429
tp1980
sS'SARATOGA'
p1981
(S'SARATOGA ST'
p1982
I100
I16807
tp1983
sS'EQUITABLE LIFE ASSURANCE SOCIETY OF THE U S 111 WEST-'
p1984
(g1800
I41
I16230
tp1985
sS'; HARRIS AV'
p1986
(g40
I100
I15869
tp1987
sS'NELLIE'
p1988
(S'NELLIE ST'
p1989
I100
I16355
tp1990
sS'WEYBOSSETSEE INSIDE BACK COVER'
p1991
(g324
I66
I15992
tp1992
sS'S ANGELL ST'
p1993
(S'SOUTH ANGELL ST'
p1994
I100
I17093
tp1995
sS'SPRUCE 291 THAYER'
p1996
(S'SPRUCE ST'
p1997
I76
I15961
tp1998
sS'HARRIS .,AV ..'
p1999
(g40
I100
I15869
tp2000
sS'LEIUREL HILL AV'
p2001
(S'LAUREL HILL AVE'
p2002
I82
I17926
tp2003
sS'70 ARCADE'
p2004
(g1698
I90
I15773
tp2005
sS'GORDON AV-'
p2006
(S'GORDON AVE'
p2007
I100
I16675
tp2008
sS'ELMGROVE AV'
p2009
(S'ELMGROVE AVE'
p2010
I100
I16960
tp2011
sS'EDDYSTRM306'
p2012
(g208
I53
I15834
tp2013
sS'DONANCE ST'
p2014
(g49
I83
I15829
tp2015
sS'PEAZL ST'
p2016
(S'PEARL ST'
p2017
I84
I16775
tp2018
sS'; LEDGE'
p2019
(g815
I100
I16275
tp2020
sS'SOLAR'
p2021
(S'SOLAR ST'
p2022
I100
I15958
tp2023
sS'ABORN-SEVE PAGE 169'
p2024
(g835
I71
I15763
tp2025
sS'HUXLEY AV'
p2026
(S'HUXLEY AVE'
p2027
I100
I17539
tp2028
sS'VASSAR AV'
p2029
(S'VASSAR AVE'
p2030
I100
I17122
tp2031
sS'WHIPPLE ST,'
p2032
(S'WHIPPLE ST'
p2033
I100
I17716
tp2034
sS'PLAIN SUB STATION 45 HAMILTON'
p2035
(g1773
I71
I17223
tp2036
sS'HOSPITAL TRUST PLAN'
p2037
(g307
I79
I15878
tp2038
sS'RIVER AV'
p2039
(S'RIVER AVE'
p2040
I100
I16423
tp2041
sS'DOYLE AV'
p2042
(S'DOYLE AVE'
p2043
I100
I16946
tp2044
sS'WEYBOUET ST'
p2045
(g173
I84
I15992
tp2046
sS'TM AVE'
p2047
(S'TIME ST'
p2048
I67
I16495
tp2049
sS'WELCOME AV'
p2050
(g1941
I67
I17892
tp2051
sS'HALL'
p2052
(S'HALL ST'
p2053
I100
I16216
tp2054
sS'UNIT'
p2055
(S'UNIT ST'
p2056
I100
I18082
tp2057
sS'CLIFFORD'
p2058
(g1733
I100
I15811
tp2059
sS'AND'
p2060
(S'ANDY ST'
p2061
I86
I16020
tp2062
sS'11 HAYES'
p2063
(S'HAYES ST'
p2064
I88
I17522
tp2065
sS'I BROAD'
p2066
(g378
I91
I15793
tp2067
sS"WESTMIN' STER"
p2068
(g123
I87
I15991
tp2069
sS'ALVERSON AV'
p2070
(S'ALVERSON AVE'
p2071
I100
I17743
tp2072
sS'VWEYBOSSET'
p2073
(g324
I95
I15992
tp2074
sS'LB EDDY ST'
p2075
(g208
I91
I15834
tp2076
sS'AVERY'
p2077
(g31
I83
I17351
tp2078
sS'; PLAIN'
p2079
(g1753
I100
I15934
tp2080
sS'WESTMINSTER RMB'
p2081
(g123
I92
I15991
tp2082
sS'BORDEN ALLEYS AV'
p2083
(S'BORDEN ST'
p2084
I81
I15787
tp2085
sS'BROAD G " ,'
p2086
(g378
I91
I15793
tp2087
sS'MAIN STREET, WEST'
p2088
(S'POINT STREET BRG'
p2089
I81
I16403
tp2090
sS"WEST' MINSTER"
p2091
(g123
I87
I15991
tp2092
sS'DORRANCE 5TH'
p2093
(g673
I90
I15829
tp2094
sS'UNION ST.'
p2095
(S'UNION ST'
p2096
I100
I15977
tp2097
sS'MASSACHUSETTS AVE'
p2098
(S'MASSACHUSETTS AV'
p2099
I100
I16725
tp2100
sS'VVV'
p2101
(S'VIVIAN AVE'
p2102
I44
I16524
tp2103
sS'EASTWOOD AV'
p2104
(S'EASTWOOD AVE'
p2105
I100
I17839
tp2106
sS'OGDEN'
p2107
(S'OGDEN ST'
p2108
I100
I17059
tp2109
sS'ANGELL STREET'
p2110
(S'ANGELL RD'
p2111
I81
I16022
tp2112
sS'DE SOTO ST'
p2113
(S'DESOTO ST'
p2114
I87
I17823
tp2115
sS'ELMWOOD AV, SUITE 103'
p2116
(g268
I76
I17207
tp2117
sS'SUMMER'
p2118
(S'SUMMER ST'
p2119
I100
I15965
tp2120
sS'HATHAWAY'
p2121
(S'HATHAWAY ST'
p2122
I100
I17229
tp2123
sS'ROBBINSON'
p2124
(S'ROBINSON ST'
p2125
I94
I16798
tp2126
sS'DUNCAN AV'
p2127
(S'DUNCAN AVE'
p2128
I100
I16947
tp2129
sS'FISK'
p2130
(S'FISK ST'
p2131
I100
I16662
tp2132
sS'W BROAD ST'
p2133
(S'BROAD ST'
p2134
I88
I15793
tp2135
sS'A HOPE ST'
p2136
(g34
I94
I15875
tp2137
sS'CHALKSTONE AV'
p2138
(S'CHALKSTONE AVE'
p2139
I100
I17433
tp2140
sS'S ANGELI ST'
p2141
(g1994
I88
I17093
tp2142
sS'-130 W EXCHANGE'
p2143
(g196
I93
I15982
tp2144
sS'PEMBROKE AV'
p2145
(S'PEMBROKE AVE'
p2146
I100
I17624
tp2147
sS'RICHMOND TOP FLOOR'
p2148
(g23
I81
I15946
tp2149
sS'RINGGOLD'
p2150
(S'RINGGOLD ST'
p2151
I100
I15947
tp2152
sS'ATWELLS AV-'
p2153
(g384
I100
I15775
tp2154
sS'LEXINGTON AV'
p2155
(S'LEXINGTON AVE'
p2156
I100
I16281
tp2157
sS"POTTER'S AV"
p2158
(S'POTTERS AVE'
p2159
I83
I16786
tp2160
sS"'6 THAYER ST"
p2161
(S'THAYER ST'
p2162
I95
I17112
tp2163
sS'-130 WEST EXCHANGE'
p2164
(g196
I93
I15982
tp2165
sS'11TH'
p2166
(g52
I100
I16869
tp2167
sS'-394 WESTMINSTER'
p2168
(g123
I92
I15991
tp2169
sS'SIMS AV'
p2170
(S'SIMS AVE'
p2171
I100
I18041
tp2172
sS'EDDV ST'
p2173
(g208
I80
I15834
tp2174
sS'-24 DEXTER PAWTUCKET'
p2175
(g818
I67
I16771
tp2176
sS'METCALF'
p2177
(S'METCALF ST'
p2178
I100
I16337
tp2179
sS'WATER-'
p2180
(S'WAITE AVE'
p2181
I80
I16850
tp2182
sS'EXCHANGE PAWTUCKET'
p2183
(g818
I68
I16771
tp2184
sS'MONTROSE'
p2185
(S'MONTROSE ST'
p2186
I100
I17597
tp2187
sS'BREWSTER'
p2188
(S'BREWSTER ST'
p2189
I100
I16909
tp2190
sS'CONGRESS AV'
p2191
(S'CONGRESS AVE'
p2192
I100
I17184
tp2193
sS'TYNDALL AV'
p2194
(S'TYNDALL AVE'
p2195
I100
I17690
tp2196
sS'LILY ST;'
p2197
(S'LILY ST'
p2198
I100
I15894
tp2199
sS'ORMSBEE'
p2200
(g11
I73
I16384
tp2201
sS'WEST-'
p2202
(S'WEST ST'
p2203
I100
I15990
tp2204
sS'UNESTNUT'
p2205
(g1927
I75
I15807
tp2206
sS'WESTMINSTER ST;'
p2207
(g161
I100
I15991
tp2208
sS'PRATT'
p2209
(S'PRATT ST'
p2210
I100
I16406
tp2211
sS'CASS'
p2212
(S'CASS ST'
p2213
I100
I16615
tp2214
sS'PENN'
p2215
(S'PENN ST'
p2216
I100
I17989
tp2217
sS'WATERMAN AV'
p2218
(g597
I100
I15988
tp2219
sS'BROAD ST.'
p2220
(g2134
I100
I15793
tp2221
sS"DOUGLAS AV'"
p2222
(S'DOUGLAS AVE'
p2223
I100
I16154
tp2224
sS"BUCKH'N ST"
p2225
(S'BUCKLIN ST'
p2226
I67
I17171
tp2227
sS'SOCKANOSSET CROSS RD'
p2228
(g1718
I65
I17995
tp2229
sS'ADMIRAL SC'
p2230
(g821
I91
I16005
tp2231
sS'WESTMINSTER STRM68'
p2232
(g161
I88
I15991
tp2233
sS'VINTON'
p2234
(S'VINTON ST'
p2235
I100
I15981
tp2236
sS'CARTER'
p2237
(S'CARTER ST'
p2238
I100
I16089
tp2239
sS'WALLACE'
p2240
(S'WALLACE ST'
p2241
I100
I18095
tp2242
sS'BROWNELL'
p2243
(S'BROWNELL ST'
p2244
I100
I17414
tp2245
sS'BATES'
p2246
(S'BATES ST'
p2247
I100
I21739
tp2248
sS'CROOM'
p2249
(S'BROOM ST'
p2250
I80
I16605
tp2251
sS'FRIENDSHIN'
p2252
(g583
I90
I15858
tp2253
sS'N'
p2254
(S'NORTH CT'
p2255
I100
I15918
tp2256
sS'; PLAINFIELD'
p2257
(g561
I100
I17994
tp2258
sS'STATE'
p2259
(g721
I100
I17672
tp2260
sS'PINEST3DF1'
p2261
(S'PINEHURST AVE'
p2262
I63
I17626
tp2263
sS'DORRANCE'
p2264
(g673
I100
I15829
tp2265
sS'FORD'
p2266
(S'FORD ST'
p2267
I100
I17212
tp2268
sS'STEEPLE'
p2269
(S'STEEPLE ST'
p2270
I100
I15962
tp2271
sS'WESTMINSTER SUITE 301'
p2272
(g123
I84
I15991
tp2273
sS'GAME'
p2274
(S'AMES ST'
p2275
I75
I15771
tp2276
sS'PARKIS AV'
p2277
(S'PARKIS AVE'
p2278
I100
I17282
tp2279
sS'FOUNTAIN QUARRY, BERKELEY'
p2280
(g315
I75
I15853
tp2281
sS'GORDON AV'
p2282
(g2007
I100
I16675
tp2283
sS'PENNA ST'
p2284
(S'PENN ST'
p2285
I91
I17989
tp2286
sS'WINTER'
p2287
(S'WINTER ST'
p2288
I100
I15999
tp2289
sS'I; BRANCH AV'
p2290
(g85
I93
I16067
tp2291
sS'CHALKSBONE AVE'
p2292
(S'CHALKSTONE AVE'
p2293
I91
I17433
tp2294
sS'BYRON'
p2295
(g1338
I80
I16073
tp2296
sS'YALE AV'
p2297
(S'YALE AVE'
p2298
I100
I17725
tp2299
sS'FORBES'
p2300
(S'FORBES ST'
p2301
I100
I17501
tp2302
sS'P M'
p2303
(S'PALM ST'
p2304
I48
I16386
tp2305
sS'WATERMANSTRM404'
p2306
(g109
I70
I15988
tp2307
sS'WADSWORTH .-'
p2308
(S'WADSWORTH ST'
p2309
I100
I17346
tp2310
sS'TELL'
p2311
(S'TELL ST'
p2312
I100
I18068
tp2313
sS'ATWELLS AVA'
p2314
(g384
I89
I15775
tp2315
sS'MAUDE'
p2316
(S'MAUDE ST'
p2317
I100
I17588
tp2318
sS'ASSN MACHINISTS 59 CHESTNUT'
p2319
(S'MASSACHUSETTS AV'
p2320
I55
I16725
tp2321
sS'A WESTMINSTER ST'
p2322
(g161
I96
I15991
tp2323
sS'WALDO'
p2324
(S'WALDO ST'
p2325
I100
I16526
tp2326
sS'8TH 2'
p2327
(S'8TH ST'
p2328
I87
I16878
tp2329
sS'BENEFIT EAGLE LODGE NO 2, 48 SNOW UNITY LODGE NO 20, 59 CHESTNUT ROGER WILLIAMS LODGE NO 3, 48'
p2330
(g619
I58
I15807
tp2331
sS'-988 WESTMINSTER'
p2332
(g123
I92
I15991
tp2333
sS'WASH 4TH 11'
p2334
(g17
I76
I21700
tp2335
sS'HERBERT'
p2336
(S'HERBERT ST'
p2337
I100
I17894
tp2338
sS'LARCH'
p2339
(S'LARCH ST'
p2340
I100
I17017
tp2341
sS'SMITH'
p2342
(S'SMITH ST'
p2343
I100
I16457
tp2344
sS'HARVARD AV'
p2345
(S'HARVARD AVE'
p2346
I100
I17228
tp2347
sS'ETHAN'
p2348
(S'ETHAN ST'
p2349
I100
I17847
tp2350
sS'WEST RIVER'
p2351
(g1110
I100
I16541
tp2352
sS'WEYBOSSET DAUGHTERS OF ARGYLE NO 2, 248'
p2353
(g324
I69
I15992
tp2354
sS'SWISS'
p2355
(S'SWISS ST'
p2356
I100
I18061
tp2357
sS'POND'
p2358
(S'POND ST'
p2359
I100
I15937
tp2360
sS'AMES'
p2361
(S'AMES ST'
p2362
I100
I15771
tp2363
sS"CHALKSTONE AV; '"
p2364
(g1317
I100
I17433
tp2365
sS'ARCH'
p2366
(S'ARCH ST'
p2367
I100
I17156
tp2368
sS'RICHMOND TOP'
p2369
(g23
I90
I15946
tp2370
sS'HENDRICK'
p2371
(S'HENDRICK ST'
p2372
I100
I17526
tp2373
sS"VALLEY-SE'E PAGE 150"
p2374
(S'VALLEY GREEN CT'
p2375
I75
I16512
tp2376
sS'; ATWELLS AV'
p2377
(g384
I100
I15775
tp2378
sS'-30 GREENE'
p2379
(g64
I90
I15866
tp2380
sS'LYMAN'
p2381
(S'LYMAN ST'
p2382
I100
I15897
tp2383
sS'SESSIONS'
p2384
(S'SESSIONS ST'
p2385
I100
I17098
tp2386
sS'WEYBOSSET RMS 402-404'
p2387
(g324
I80
I15992
tp2388
sS'DO RM 806'
p2389
(S'DORMAN AVE'
p2390
I26
I16150
tp2391
sS'INDIA'
p2392
(S'INDIA ST'
p2393
I100
I15883
tp2394
sS'LAURISTON'
p2395
(S'LAURISTON ST'
p2396
I100
I17020
tp2397
sS'PINEST'
p2398
(S'PINE ST'
p2399
I80
I15933
tp2400
sS"S WATER S MAIN NR CRANO'RD"
p2401
(g1113
I76
I15949
tp2402
sS'PROVIDENCE'
p2403
(S'PROVIDENCE ST'
p2404
I100
I17299
tp2405
sS'PLAINFIELD'
p2406
(g387
I100
I17994
tp2407
sS'EDWARD'
p2408
(S'EDWARD ST'
p2409
I100
I16164
tp2410
sS'MANSFIELD'
p2411
(S'MANSFIELD ST'
p2412
I100
I17584
tp2413
sS'COUNCIL'
p2414
(S'COLONIAL DR'
p2415
I67
I16112
tp2416
sS'WHAT CHEER AV'
p2417
(g956
I100
I18104
tp2418
sS'W PARK'
p2419
(g132
I100
I17704
tp2420
sS'WEYBOSSET RMS 2-3-4'
p2421
(g324
I82
I15992
tp2422
sS'WESTBAINSTER'
p2423
(g123
I87
I15991
tp2424
sS'HOME AV'
p2425
(S'HOME AVE'
p2426
I100
I17534
tp2427
sS'EMPIRE RM6'
p2428
(g1807
I87
I15840
tp2429
sS'BENENT'
p2430
(g555
I77
I15781
tp2431
sS'WESLEYAN AV'
p2432
(g1305
I100
I17353
tp2433
sS'HEALTH AV'
p2434
(S'HEALTH AVE'
p2435
I100
I17524
tp2436
sS'WEYBOSSET HILL 5TH FL'
p2437
(g173
I80
I15992
tp2438
sS'-158 PINE'
p2439
(g1660
I83
I15933
tp2440
sS'ATWELLA AVE'
p2441
(S'ATWELLS AVE'
p2442
I88
I15775
tp2443
sS'HANOVER'
p2444
(S'HANOVER ST'
p2445
I100
I17225
tp2446
sS'WESTMINSTER MALL'
p2447
(g161
I90
I15991
tp2448
sS'BROOK'
p2449
(S'BROOK ST'
p2450
I100
I15795
tp2451
sS'TOBEY'
p2452
(S'TOBEY ST'
p2453
I100
I18076
tp2454
sS'-90 DUDLEY'
p2455
(g589
I90
I15830
tp2456
sS'BLOUNT 3D'
p2457
(g76
I70
I17398
tp2458
sS'MTPLEASANT AV'
p2459
(S'PLEASANT AV'
p2460
I90
I16399
tp2461
sS'A DEAN'
p2462
(g1957
I90
I15825
tp2463
sS'BROADWAY SUITE A'
p2464
(g82
I83
I15794
tp2465
sS'LESTER'
p2466
(S'LESTER ST'
p2467
I100
I17245
tp2468
sS'BROADWAY SUITE E'
p2469
(g82
I79
I15794
tp2470
sS'MATHEW8011'
p2471
(S'MATTHEW ST'
p2472
I71
I17587
tp2473
sS'BEAUFORT'
p2474
(S'BEAUFORT ST'
p2475
I100
I17397
tp2476
sS'W FRIENDSHIP'
p2477
(S'WEST FRIENDSHIP ST'
p2478
I100
I17345
tp2479
sS'NARRAGANSETT AVE'
p2480
(S'NARRAGANSETT ST'
p2481
I100
I16747
tp2482
sS'BALBO AV'
p2483
(S'BALBO AVE'
p2484
I100
I21740
tp2485
sS'; KNIGHT'
p2486
(S'KNIGHT ST'
p2487
I100
I15890
tp2488
sS'S MAIN ST'
p2489
(S'SOUTH MAIN ST'
p2490
I100
I15948
tp2491
sS'HAZARD AV'
p2492
(S'HAZARD AVE'
p2493
I100
I16994
tp2494
sS'RAYMOND'
p2495
(S'RAYMOND ST'
p2496
I100
I17639
tp2497
sS'ANGELI'
p2498
(S'ANGELA CT'
p2499
I83
I16021
tp2500
sS'VERNDALE AV'
p2501
(S'VERNDALE AVE'
p2502
I100
I16846
tp2503
sS'THOMAS OLNEY COMMON'
p2504
(S'THOMAS OLNEY COMMON ST'
p2505
I100
I17113
tp2506
sS'SABIN-'
p2507
(g484
I100
I15950
tp2508
sS'HAMMOND'
p2509
(S'HAMMOND ST'
p2510
I100
I17880
tp2511
sS'OPHELIA.'
p2512
(S'OPHELIA ST'
p2513
I100
I17979
tp2514
sS'-90 SMITH'
p2515
(g360
I88
I16457
tp2516
sS'CRANREBEKAH LODGEHOUSEHOLD OF RUTH NO 43, 310 CRANSTON'
p2517
(S'EDGEWOOD AV'
p2518
I39
I16650
tp2519
sS'WASHLNGTON'
p2520
(g346
I90
I15987
tp2521
sS"ADMIRAL ST'"
p2522
(g821
I100
I16005
tp2523
sS'EMDIRE'
p2524
(g1807
I83
I15840
tp2525
sS'40 CLIFFORD'
p2526
(g1733
I92
I15811
tp2527
sS'BWAY RMZ7'
p2528
(g567
I81
I21699
tp2529
sS'PINE 2D'
p2530
(g1541
I86
I15933
tp2531
sS"PLAINL'LELD ST"
p2532
(S'PLAIN ST'
p2533
I82
I15934
tp2534
sS'OCEAN'
p2535
(S'OCEAN AV'
p2536
I100
I16756
tp2537
sS'COURTLAND'
p2538
(S'COURTLAND ST'
p2539
I100
I17806
tp2540
sS'HOLDEN'
p2541
(S'HOLDEN ST'
p2542
I100
I17532
tp2543
sS'MASSIE AV'
p2544
(S'MASSIE AVE'
p2545
I100
I16727
tp2546
sS'FARMMGTON AV'
p2547
(S'FARMINGTON AVE'
p2548
I84
I17853
tp2549
sS'DEAN'
p2550
(g1957
I100
I15825
tp2551
sS'WESTMINSTER 2DFL'
p2552
(g123
I90
I15991
tp2553
sS'BROADWAY PAWTUCKET'
p2554
(g818
I68
I16771
tp2555
sS'LINWOOD AV'
p2556
(S'LINWOOD AVE'
p2557
I100
I17249
tp2558
sS'SUMTER'
p2559
(S'SUMTER ST'
p2560
I100
I17333
tp2561
sS'W EXCHANGE ST'
p2562
(S'WEST EXCHANGE ST'
p2563
I100
I15982
tp2564
sS'WESTMINSTER RM2'
p2565
(g123
I92
I15991
tp2566
sS'PARK'
p2567
(S'PARK ST'
p2568
I100
I16391
tp2569
sS'CALHOUN AV,'
p2570
(g929
I100
I17176
tp2571
sS'BROAD RMS 1-6'
p2572
(g981
I78
I15793
tp2573
sS'WESTMINSTER MM 605'
p2574
(g123
I88
I15991
tp2575
sS'EDDY 5TH 11'
p2576
(g61
I76
I15834
tp2577
sS'WESTFIELD'
p2578
(g1888
I100
I17354
tp2579
sS'N MAIN ST'
p2580
(S'NORTH MAIN ST'
p2581
I100
I15916
tp2582
sS'81 ABORN'
p2583
(g835
I88
I15763
tp2584
sS'PAWTUCKET AV'
p2585
(g818
I84
I16771
tp2586
sS'PRISCILLA AV'
p2587
(S'PRISCILLA AVE'
p2588
I100
I18000
tp2589
sS'WILSON'
p2590
(S'WILSON ST'
p2591
I100
I17359
tp2592
sS'; SPRUCE'
p2593
(g1997
I100
I15961
tp2594
sS'DO RM'
p2595
(S'DOME ST'
p2596
I67
I17469
tp2597
sS'MEDWAY'
p2598
(S'MEDWAY ST'
p2599
I100
I17040
tp2600
sS'BENEFLT'
p2601
(g555
I86
I15781
tp2602
sS'HOPKINS'
p2603
(S'HOPKINS ST'
p2604
I100
I15876
tp2605
sS'WESTMINSTER STRM200'
p2606
(g161
I86
I15991
tp2607
sS'DUDLEY'
p2608
(g589
I100
I15830
tp2609
sS'NEWARK'
p2610
(S'NEWARK ST'
p2611
I100
I17604
tp2612
sS'WEYBOSSET CENTRAL 296 ANGELL CENTRAL'
p2613
(g324
I70
I15992
tp2614
sS'SILVER LAKE AV'
p2615
(S'SILVER LAKE AVE'
p2616
I100
I18039
tp2617
sS'NICHOLS'
p2618
(S'NICHOLS ST'
p2619
I100
I21722
tp2620
sS'PINE 3D 11'
p2621
(g1660
I78
I15933
tp2622
sS'OXFORD'
p2623
(S'OXFORD ST'
p2624
I100
I16764
tp2625
sS'MOUNTAIN'
p2626
(S'MOUNTAIN ST'
p2627
I100
I15914
tp2628
sS'M BWAY'
p2629
(S'BROADWAY'
p2630
I90
I46393
tp2631
sS'CROMWELL'
p2632
(S'CROMWELL ST'
p2633
I100
I17190
tp2634
sS'PRAIRIE AV-'
p2635
(S'PRAIRIE AVE'
p2636
I100
I16787
tp2637
sS'PUTNAM'
p2638
(S'PUTNAM ST'
p2639
I100
I18003
tp2640
sS'WESTMINSTER RM'
p2641
(g123
I94
I15991
tp2642
sS'HENRIETTA'
p2643
(S'HENRIETTA ST'
p2644
I100
I16229
tp2645
sS'CLORANE'
p2646
(S'LORRAINE AVE'
p2647
I80
I17030
tp2648
sS'D'
p2649
(S'ADA ST'
p2650
I50
I16003
tp2651
sS"O'CONNELL ST"
p2652
(S'OCONNELL ST'
p2653
I94
I16760
tp2654
sS'GRANT'
p2655
(S'GRANT ST'
p2656
I100
I17870
tp2657
sS'GROVE'
p2658
(S'GROVE ST'
p2659
I100
I17876
tp2660
sS'RATHBONE'
p2661
(S'RATHBONE ST'
p2662
I100
I17637
tp2663
sS'FAIROAKS AV'
p2664
(S'FAIROAKS AVE'
p2665
I100
I17492
tp2666
sS'OFFICE PLANT'
p2667
(S'POST OFFICE CT'
p2668
I76
I15938
tp2669
sS'SOUTH MAIN'
p2670
(S'SOUTH MAIN ST'
p2671
I100
I15948
tp2672
sS'EAGLEST4THFL'
p2673
(S'EAGLE ST'
p2674
I59
I17477
tp2675
sS'WEALTH AV'
p2676
(S'WEALTH AVE'
p2677
I100
I17714
tp2678
sS'AM TO'
p2679
(S'AMY ST'
p2680
I65
I16888
tp2681
sS'MURRAY'
p2682
(S'MURRAY ST'
p2683
I100
I17968
tp2684
sS'I DORRANCE'
p2685
(g673
I94
I15829
tp2686
sS'WEBSTER'
p2687
(S'WEBSTER AVE'
p2688
I100
I18098
tp2689
sS'WALLING'
p2690
(g321
I100
I21723
tp2691
sS'STOKES'
p2692
(S'STOKES ST'
p2693
I100
I18058
tp2694
sS'MASS AV'
p2695
(S'MASSO DR'
p2696
I89
I16322
tp2697
sS'CONCORD'
p2698
(S'CONCORD ST'
p2699
I100
I16119
tp2700
sS'GENEVA.'
p2701
(S'GENEVA ST'
p2702
I100
I17509
tp2703
sS'TRENTON'
p2704
(S'TRENTON ST'
p2705
I100
I17118
tp2706
sS'; BROAD'
p2707
(g981
I100
I15793
tp2708
sS'MULBERRY'
p2709
(S'MULBERRY ST'
p2710
I100
I21732
tp2711
sS'-106 BLACKSTONE BLVD'
p2712
(S'BLACKSTONE BLVD'
p2713
I94
I16904
tp2714
sS'KINSLEY AV'
p2715
(S'KINSLEY AVE'
p2716
I100
I15889
tp2717
sS'TUMER ST'
p2718
(g1189
I77
I15965
tp2719
sS'CAROLINA AV'
p2720
(S'CAROLINA AVE'
p2721
I100
I16085
tp2722
sS'MANTOU AVE'
p2723
(g1877
I86
I17947
tp2724
sS'POTTER,S AV'
p2725
(g176
I83
I16786
tp2726
sS'C WAYLAND AVE'
p2727
(g369
I96
I17125
tp2728
sS'POCASSET AV'
p2729
(g120
I100
I17995
tp2730
sS'E TRANSIT'
p2731
(S'EAST TRANSIT ST'
p2732
I100
I16954
tp2733
sS'NORTH MAIN 4TH'
p2734
(g433
I91
I15916
tp2735
sS'FAIRVIEW'
p2736
(S'FAIRVIEW AVE'
p2737
I100
I16175
tp2738
sS'HARKNESS'
p2739
(S'HARKNESS ST'
p2740
I100
I17884
tp2741
sS'PONTIAC,'
p2742
(g1467
I100
I17292
tp2743
sS'DIVISION'
p2744
(S'DIVISION ST'
p2745
I100
I17828
tp2746
sS'WATERMANRST'
p2747
(g109
I84
I15988
tp2748
sS'WATENNAN ST'
p2749
(g109
I78
I15988
tp2750
sS'WASH RIN 309'
p2751
(g17
I75
I21700
tp2752
sS'BENEIIT ST'
p2753
(S'BENEFIT ST'
p2754
I88
I15781
tp2755
sS'DOUGLAS'
p2756
(S'DOUGLAS AVE'
p2757
I100
I16154
tp2758
sS'ANGELL MORNING AFTERNOON APPOINTMENTS TELE-'
p2759
(S'FOX POINT BLVD'
p2760
I47
I21701
tp2761
sS'CALENDER 5TH A'
p2762
(g509
I73
I17175
tp2763
sS'BEVERLY'
p2764
(S'BEVERLY ST'
p2765
I100
I15783
tp2766
sS'BUCKLIN'
p2767
(S'BUCKLIN ST'
p2768
I100
I17171
tp2769
sS"VAI'IETY STORE 777 BROAD ST"
p2770
(g2089
I61
I16403
tp2771
sS'CARGILL'
p2772
(S'CARGILL ST'
p2773
I100
I15800
tp2774
sS'MEADER'
p2775
(S'MEADER ST'
p2776
I100
I17957
tp2777
sS'INDUSTRIAL TRUST BLDZ 111 WESTMINSTER'
p2778
(g123
I73
I15991
tp2779
sS"' POND"
p2780
(g2359
I100
I15937
tp2781
sS'; PERRY'
p2782
(S'TERRY ST'
p2783
I80
I16489
tp2784
sS'BURNSIDE'
p2785
(S'BURNSIDE ST'
p2786
I100
I16606
tp2787
sS'WASHINGTON STREET BOSTON, MASS 02111'
p2788
(g1487
I73
I15986
tp2789
sS'SUTTON'
p2790
(S'SUTTON ST'
p2791
I100
I15966
tp2792
sS'PINE 4TH 11'
p2793
(g682
I80
I16780
tp2794
sS'W RIVER ST'
p2795
(g1371
I100
I16541
tp2796
sS'PLAINTIELD ST'
p2797
(g1674
I91
I17994
tp2798
sS'N MAIN RM'
p2799
(g433
I93
I15916
tp2800
sS'WENDELL'
p2801
(S'WENDELL ST'
p2802
I100
I16535
tp2803
sS'ELMWOOD 70V'
p2804
(S'ELMWOOD AVE'
p2805
I89
I17207
tp2806
sS'DANIEL AV'
p2807
(g1502
I100
I17817
tp2808
sS'258 EDDY'
p2809
(g61
I83
I15834
tp2810
sS'ROGER WILLIAMS AV'
p2811
(S'ROGER WILLIAMS AVE'
p2812
I100
I17306
tp2813
sS'SMITHFIELD AV'
p2814
(S'SMITHFIELD AVE'
p2815
I100
I16458
tp2816
sS'DELAINE.'
p2817
(g1282
I100
I17822
tp2818
sS'ELBOW'
p2819
(S'ELBOW ST'
p2820
I100
I15835
tp2821
sS'IMERA AVE'
p2822
(S'IMERA ST'
p2823
I100
I17908
tp2824
sS'PRESCOTT'
p2825
(S'PRESCOTT ST'
p2826
I100
I17629
tp2827
sS'RWESTMINSTER'
p2828
(g123
I96
I15991
tp2829
sS'LILY'
p2830
(S'LILY ST'
p2831
I100
I15894
tp2832
sS'CRANSTON,'
p2833
(g73
I100
I15817
tp2834
sS'HYAT'
p2835
(S'HYAT ST'
p2836
I100
I17906
tp2837
sS'NELSON'
p2838
(S'NELSON ST'
p2839
I100
I17603
tp2840
sS'FOUNTAIN 6'
p2841
(g315
I94
I15853
tp2842
sS'ABERN-'
p2843
(g835
I80
I15763
tp2844
sS'SOUTH WATER'
p2845
(g1113
I100
I15949
tp2846
sS'AMHERST'
p2847
(g149
I100
I17744
tp2848
sS'G CANDACE'
p2849
(g724
I94
I17422
tp2850
sS'WASH AV'
p2851
(g17
I100
I21700
tp2852
sS'BROOK PAWTUCKET-'
p2853
(g818
I71
I16771
tp2854
sS'SOCIETY FOR MENTAL HYGIENE 100 N MAIN'
p2855
(S'CITY VIEW CIR'
p2856
I53
I17437
tp2857
sS'A ELMWOOD AVE'
p2858
(g268
I96
I17207
tp2859
sS'WESTMINSTER MM 1029'
p2860
(g123
I86
I15991
tp2861
sS'PLAIN-'
p2862
(g1753
I100
I15934
tp2863
sS"' PRAIRIE AV"
p2864
(g2636
I100
I16787
tp2865
sS'WEBSTER AV'
p2866
(g2688
I100
I18098
tp2867
sS'SELINA ST'
p2868
(S'SALINA ST'
p2869
I86
I17658
tp2870
sS'FIRGLADE AV'
p2871
(S'FIRGLADE AVE'
p2872
I100
I16969
tp2873
sS'CLAVERICK'
p2874
(S'CLAVERICK ST'
p2875
I100
I15809
tp2876
sS'SEAMANS'
p2877
(S'SEAMANS AVE'
p2878
I100
I16445
tp2879
sS'BURNETT'
p2880
(S'BURNETT ST'
p2881
I100
I17172
tp2882
sS'ASHMONT'
p2883
(S'ASHMONT ST'
p2884
I100
I16567
tp2885
sS'CODDING'
p2886
(S'GOULDING ST'
p2887
I67
I16982
tp2888
sS"COHZDON '"
p2889
(g812
I71
I16932
tp2890
sS'DYER.'
p2891
(g1971
I100
I15831
tp2892
sS'SHARON'
p2893
(S'SHARON DR'
p2894
I100
I16447
tp2895
sS'DIAMOND'
p2896
(S'DIAMOND ST'
p2897
I100
I17199
tp2898
sS'BAKER'
p2899
(S'BAKER ST'
p2900
I100
I16576
tp2901
sS'7 CRAWFORD'
p2902
(g838
I71
I15790
tp2903
sS'CUSHING'
p2904
(S'CUSHING ST'
p2905
I100
I16130
tp2906
sS'TANNER'
p2907
(S'TANNER ST'
p2908
I100
I17336
tp2909
sS'SYCAMORE'
p2910
(S'SYCAMORE ST'
p2911
I100
I18063
tp2912
sS'RESERVOIR AV-A'
p2913
(S'RESERVOIR AVE'
p2914
I89
I17303
tp2915
sS'FIRST FLOOR 10 WEYBOSSET'
p2916
(g324
I77
I15992
tp2917
sS'A POINT'
p2918
(S'OAK POINT'
p2919
I94
I16369
tp2920
sS'RANDALL SQ SUITE 305'
p2921
(g179
I83
I16416
tp2922
sS'& EASTWOOD AVE'
p2923
(S'EASTWOOD AVE'
p2924
I100
I17839
tp2925
sS'CLEVELAND'
p2926
(S'CLEVELAND ST'
p2927
I100
I16106
tp2928
sS'WEYBOMT ST'
p2929
(g173
I78
I15992
tp2930
sS'EMPIRE RM18'
p2931
(g1807
I85
I15840
tp2932
sS'1, BENEFIT'
p2933
(g555
I94
I15781
tp2934
sS'INC'
p2935
(S'FINCH AVE'
p2936
I75
I16180
tp2937
sS'HOPE'
p2938
(S'HOPE ST'
p2939
I100
I15875
tp2940
sS'VZ HUDSON ST'
p2941
(S'HUDSON ST'
p2942
I93
I17903
tp2943
sS"WASH'RM 1"
p2944
(g17
I81
I21700
tp2945
sS'SORRENTO'
p2946
(S'SORRENTO ST'
p2947
I100
I18046
tp2948
sS'LONGFELLOW'
p2949
(S'LONGFELLOW ST'
p2950
I100
I17251
tp2951
sS'WESTMINSTER MM 413'
p2952
(g123
I88
I15991
tp2953
sS'SPRAGUE'
p2954
(S'SPRAGUE ST'
p2955
I100
I17327
tp2956
sS'EDDY-'
p2957
(g61
I100
I15834
tp2958
sS'PALMER'
p2959
(S'PALMER DR'
p2960
I100
I16387
tp2961
sS"V'ALLEV"
p2962
(g301
I75
I17693
tp2963
sS"ALLEN'S AV"
p2964
(S'ALLENS AVE'
p2965
I81
I15768
tp2966
sS'KNIGHT;'
p2967
(g2487
I100
I15890
tp2968
sS'ATWOOD-'
p2969
(g1880
I100
I16037
tp2970
sS'JEFFERSON'
p2971
(g1703
I100
I17548
tp2972
sS'-60 TAFT AV'
p2973
(S'TAFT AVE'
p2974
I86
I16484
tp2975
sS'-114 S MAIN'
p2976
(g2671
I91
I15948
tp2977
sS'WESTMINSTER MS'
p2978
(g123
I94
I15991
tp2979
sS'POWER RD'
p2980
(S'POWER ST'
p2981
I100
I15939
tp2982
sS'EAGLE ST3DF1'
p2983
(g2924
I46
I17839
tp2984
sS'RING'
p2985
(S'RING ST'
p2986
I100
I18012
tp2987
sS'WESTMINSTER RM27'
p2988
(g123
I90
I15991
tp2989
sS"' 10TH"
p2990
(g1930
I100
I16868
tp2991
sS'GROSVENOR BLDG'
p2992
(S'GROSVENOR AVE'
p2993
I89
I16214
tp2994
sS'BATTEY'
p2995
(S'BATTEY ST'
p2996
I100
I15778
tp2997
sS'GRAY'
p2998
(S'GRAY ST'
p2999
I100
I16210
tp3000
sS'LAWN'
p3001
(S'LAWN ST'
p3002
I100
I17560
tp3003
sS'-24 DEXTER PAWTUCKET -'
p3004
(g818
I67
I16771
tp3005
sS'BURLINGTON'
p3006
(S'BURLINGTON ST'
p3007
I100
I16914
tp3008
sS'ATWELLS AV'
p3009
(S'ATWELLS AVE'
p3010
I100
I15775
tp3011
sS'; CRANSTON'
p3012
(g73
I100
I15817
tp3013
sS'LAVAUGHN'
p3014
(S'LAVAUGHN ST'
p3015
I100
I17927
tp3016
sS'EDDY'
p3017
(S'EDDY ST'
p3018
I100
I15834
tp3019
sS'SPRAGUE ATTLEBORO FALLS MASS'
p3020
(S'ALBRO ST'
p3021
I50
I15767
tp3022
sS'HARRI8011'
p3023
(g40
I67
I15869
tp3024
sS'STANSBURY'
p3025
(S'STANSBURY ST'
p3026
I100
I16471
tp3027
sS'PAGE 4TH 11'
p3028
(g187
I76
I15923
tp3029
sS'LOCKWOOD'
p3030
(S'LOCKWOOD ST'
p3031
I100
I15895
tp3032
sS'A ELMGROVE AV'
p3033
(g2010
I94
I16960
tp3034
sS'EDDV'
p3035
(g61
I75
I15834
tp3036
sS'-232 WEYBOSSET'
p3037
(g324
I91
I15992
tp3038
sS'ABBOTT PARK PL 1ST FL'
p3039
(g890
I90
I15762
tp3040
sS'BORDEN'
p3041
(g2084
I100
I15787
tp3042
sS'MERCY'
p3043
(S'MERCY ST'
p3044
I100
I17959
tp3045
sS'THOMAS'
p3046
(S'THOMAS ST'
p3047
I100
I15969
tp3048
sS'EDDY SMITH HILL FISH MARKET 399 SMITH'
p3049
(S'MARKET SQ'
p3050
I67
I15902
tp3051
sS'9TH'
p3052
(S'9TH ST'
p3053
I100
I16879
tp3054
sS'CHAFFEE'
p3055
(S'CHAFFEE ST'
p3056
I100
I17798
tp3057
sS"E'LMWOOD AV"
p3058
(g2805
I85
I17207
tp3059
sS'A CHARLES'
p3060
(g43
I94
I16096
tp3061
sS'ELMWOOD AV'
p3062
(g1552
I100
I17207
tp3063
sS'ACADEMY AVA'
p3064
(S'ACADEMY AVE'
p3065
I89
I17365
tp3066
sS'OAKLAND AV'
p3067
(S'OAKLAND AVE'
p3068
I100
I17609
tp3069
sS"; POTTER'S AV"
p3070
(g176
I83
I16786
tp3071
sS'ORANGE'
p3072
(g1782
I100
I15921
tp3073
sS'POCASSET'
p3074
(g120
I100
I17995
tp3075
sS'CRANSWN ST'
p3076
(g37
I83
I15817
tp3077
sS', 1929'
p3078
(g231
I50
I15880
tp3079
sS'GREENWICH STATIONS ALFRED ST'
p3080
(g2
I80
I17220
tp3081
sS'BATH'
p3082
(S'BATH ST'
p3083
I100
I17396
tp3084
sS'ALIENS AVE'
p3085
(S'ALLENS AVE'
p3086
I86
I15768
tp3087
sS'PECK'
p3088
(g248
I100
I15928
tp3089
sS'ACADEMY AV'
p3090
(S'ACADEMY AVE'
p3091
I100
I17365
tp3092
sS'SEABURY'
p3093
(S'SEABURY ST'
p3094
I100
I17320
tp3095
sS'. REGENT AV'
p3096
(S'REGENT AVE'
p3097
I100
I17642
tp3098
sS'DABOL'
p3099
(g473
I91
I17191
tp3100
sS'LOCUST'
p3101
(S'LOCUST AVE'
p3102
I100
I16288
tp3103
sS'A EDNA ST'
p3104
(S'EDNA ST'
p3105
I94
I17841
tp3106
sS'PRINTERY'
p3107
(S'PRINTERY ST'
p3108
I100
I16408
tp3109
sS'A DUDLEY'
p3110
(g589
I93
I15830
tp3111
sS'BENEDICT'
p3112
(S'BENEDICT ST'
p3113
I100
I16053
tp3114
sS'A CANDACE ST'
p3115
(S'CANDACE ST'
p3116
I95
I17422
tp3117
sS'OSBORN'
p3118
(S'OSBORN ST'
p3119
I100
I17616
tp3120
sS'EXCHANGE PL RM6'
p3121
(S'EXCHANGE TER'
p3122
I87
I15846
tp3123
sS'SILVER SPRING'
p3124
(S'SILVER SPRING ST'
p3125
I100
I16454
tp3126
sS'WEST'
p3127
(g2203
I100
I15990
tp3128
sS'RICHARDSON'
p3129
(S'RICHARDSON ST'
p3130
I100
I16795
tp3131
sS'59 DYER'
p3132
(g1971
I86
I15831
tp3133
sS'REDWING'
p3134
(S'REDWING ST'
p3135
I100
I17302
tp3136
sS'PRICE'
p3137
(S'PRICE ST'
p3138
I100
I17297
tp3139
sS'BEACH'
p3140
(S'BEACH ST'
p3141
I100
I16050
tp3142
sS'G BROAD'
p3143
(g378
I91
I15793
tp3144
sS'PLAINTIELD'
p3145
(g561
I90
I17994
tp3146
sS'ANSEL AV'
p3147
(S'ANSEL AVE'
p3148
I100
I17154
tp3149
sS"W'ESLEYAN AV"
p3150
(g1305
I86
I17353
tp3151
sS'9; MATHEWSON'
p3152
(S'MATHEWSON ST'
p3153
I95
I33544
tp3154
sS'N MAIN 4TH'
p3155
(g433
I91
I15916
tp3156
sS'HUNTINGTON AV'
p3157
(S'HUNTINGTON AVE'
p3158
I100
I17236
tp3159
sS'448 BWAY'
p3160
(g567
I83
I21699
tp3161
sS'AURORA'
p3162
(S'AURORA AV'
p3163
I100
I16570
tp3164
sS'PLAINFIELD ST;'
p3165
(g1674
I100
I17994
tp3166
sS"CALHOILN AV'"
p3167
(g929
I80
I17176
tp3168
sS'& ATWELLS AVE'
p3169
(g2442
I100
I15775
tp3170
sS'A RANDALL'
p3171
(g393
I94
I16415
tp3172
sS'GOVERNOR'
p3173
(S'GOVERNOR ST'
p3174
I100
I16983
tp3175
sS'I POCASSET AV'
p3176
(g120
I94
I17995
tp3177
sS'ASHAN ST'
p3178
(S'ASCHAM ST'
p3179
I77
I16031
tp3180
sS'VIOLET'
p3181
(S'VIOLET ST'
p3182
I100
I17702
tp3183
sS'RIDGE'
p3184
(S'RIDGE ST'
p3185
I100
I18010
tp3186
sS'SAWYER'
p3187
(S'SAWYER ST'
p3188
I100
I17319
tp3189
sS'BEACON AV'
p3190
(S'BEACON AVE'
p3191
I100
I15779
tp3192
sS'CHARLES-'
p3193
(g43
I100
I16096
tp3194
sS'DEXTER'
p3195
(S'DEXTER ST'
p3196
I100
I17198
tp3197
sS'I CLEMENCE'
p3198
(S'CLEMENCE ST'
p3199
I94
I15810
tp3200
sS'CONSTITUTION'
p3201
(S'CONSTITUTION ST'
p3202
I100
I17185
tp3203
sS'COUNTY ROAD'
p3204
(g959
I85
I16126
tp3205
sS'ED-'
p3206
(g61
I67
I15834
tp3207
sS'EXCHANGE'
p3208
(g274
I100
I15845
tp3209
sS'WELL'
p3210
(g1584
I80
I17002
tp3211
sS'POMFRET ST'
p3212
(S'SOMERSET ST'
p3213
I71
I17325
tp3214
sS'CANTON'
p3215
(S'CANTON ST'
p3216
I100
I17424
tp3217
sS'ALABAMA AV'
p3218
(S'ALABAMA AVE'
p3219
I100
I16556
tp3220
sS'TO'
p3221
(S'TOP ST'
p3222
I80
I17115
tp3223
sS'5'
p3224
(g864
I53
I15881
tp3225
sS'FOREST'
p3226
(S'FOREST ST'
p3227
I100
I16972
tp3228
sS'TH'
p3229
(g318
I80
I16874
tp3230
sS'BRIDGE'
p3231
(S'BRIDGE ST'
p3232
I100
I15792
tp3233
sS'BER 48 EXCHANGE; DL'
p3234
(g196
I82
I15982
tp3235
sS'HOSPITAL TRUST TOWER'
p3236
(g307
I78
I15878
tp3237
sS'EVERETT AV'
p3238
(S'EVERETT AVE'
p3239
I100
I16965
tp3240
sS"STJOHN'S COMMANDERY"
p3241
(S'OLD TANNERY RD'
p3242
I53
I17060
tp3243
sS'C EDDY ST'
p3244
(g208
I94
I15834
tp3245
sS'SPRUCE'
p3246
(g1997
I100
I15961
tp3247
sS'HOUSTON'
p3248
(S'HOUSTON ST'
p3249
I100
I16696
tp3250
sS'EDDY4THFI'
p3251
(g61
I62
I15834
tp3252
sS'MOULTON ST'
p3253
(S'MOULTON LN'
p3254
I100
I15913
tp3255
sS'BAINBRIDGE AV'
p3256
(S'BAINBRIDGE AVE'
p3257
I100
I17757
tp3258
sS'TORONTO AV'
p3259
(S'TORONTO AVE'
p3260
I100
I16840
tp3261
sS'-20 ARCADE BLDG'
p3262
(g1698
I80
I15773
tp3263
sS'WESTMINSTERRM9'
p3264
(g123
I88
I15991
tp3265
sS'SHERBURNE'
p3266
(S'SHERBURNE ST'
p3267
I100
I16819
tp3268
sS'VZ VALLEY ST'
p3269
(S'VALLEY ST'
p3270
I93
I17693
tp3271
sS'KNIGHT'
p3272
(S'KNIGHT ST'
p3273
I100
I15890
tp3274
sS'8 WASHINGTON SQUARE,'
p3275
(g1487
I84
I15986
tp3276
sS'NINIGRET AV'
p3277
(S'NINIGRET AVE'
p3278
I100
I17275
tp3279
sS'THAYER'
p3280
(S'THAYER ST'
p3281
I100
I17112
tp3282
sS'WILLARD AV'
p3283
(g445
I100
I16545
tp3284
sS'WESTMINSTER STREET PROVIDENCE, RI 02903'
p3285
(g161
I72
I15991
tp3286
sS'WILLIAMS'
p3287
(S'WILLIAMS ST'
p3288
I100
I15997
tp3289
sS'NORWICH AV'
p3290
(S'NORWICH AVE'
p3291
I100
I16753
tp3292
sS'VEAZIE LOYAL BUD OF HOPE LODGE NO 6557, 279 PLAINFIELD ODD LADIES LOYAL HOPE LODGE 248'
p3293
(g561
I60
I17994
tp3294
sS'THIRD ST'
p3295
(S'TIDD ST'
p3296
I73
I17683
tp3297
sS'& CHESTER AV'
p3298
(g1314
I100
I16619
tp3299
sS'BENEVOLENT'
p3300
(S'BENEVOLENT ST'
p3301
I100
I16902
tp3302
sS'FENNER RM'
p3303
(g292
I90
I15849
tp3304
sS'NASHUA ST;'
p3305
(S'NASHUA ST'
p3306
I100
I16353
tp3307
sS'W EXCHANGE'
p3308
(S'WEST EXCHANGE ST'
p3309
I100
I15982
tp3310
sS"JACKSOR'L"
p3311
(g1426
I80
I16253
tp3312
sS'1 ADIE'
p3313
(S'ALDINE ST'
p3314
I73
I17738
tp3315
sS'HAMBURG AV'
p3316
(S'HAMBURG AVE'
p3317
I100
I21713
tp3318
sS'LIPPITT'
p3319
(S'LIPPITT ST'
p3320
I100
I17024
tp3321
sS'GEORGIA AV'
p3322
(S'GEORGIA AVE'
p3323
I100
I16671
tp3324
sS'EXCHANGE PL 4TH'
p3325
(g3122
I87
I15846
tp3326
sS"THURBER'S AV"
p3327
(S'THURBER ST'
p3328
I85
I16492
tp3329
sS'DOMNCE ST, SUITE 300'
p3330
(S'DOME ST'
p3331
I57
I17469
tp3332
sS'J EWETT'
p3333
(g1864
I91
I17549
tp3334
sS'SLATER AV'
p3335
(S'SLATER AVE'
p3336
I100
I17100
tp3337
sS'RANDALL SQ SUITE 307'
p3338
(g179
I83
I16416
tp3339
sS'BROADV'
p3340
(g378
I91
I15793
tp3341
s.