(dp0
S'ROCHAMF BEAU AV'
p1
(S'ROCHAMBEAU AVE'
p2
I81
I17088
tp3
sS"ANGELL '"
p4
(S'ANGELL RD'
p5
I100
I16022
tp6
sS'WEST-. MINSTER'
p7
(S'WESTMINSTER ST'
p8
I87
I15991
tp9
sS"BUYERS' GUIDE BACK COVEP"
p10
(S'BURNS ST'
p11
I51
I16075
tp12
sS'ANGELL CIGAR MFRS'
p13
(S'ANGELL RD'
p14
I76
I16022
tp15
sS'WEYBO-SSET'
p16
(S'WEYBOSSET ST'
p17
I83
I15992
tp18
sS'HARRIS AV'
p19
(S'HARRIS AVE'
p20
I100
I15869
tp21
sS'PINE7'
p22
(S'PINE ST'
p23
I89
I15933
tp24
sS'NORTH MAIN'
p25
(S'NORTH MAIN ST'
p26
I100
I15916
tp27
sS'WIL-'
p28
(S'WILD ST'
p29
I86
I16544
tp30
sS'COURTLAND'
p31
(S'COURTLAND ST'
p32
I100
I17806
tp33
sS'HAWLFINS'
p34
(S'HAWKINS ST'
p35
I80
I16223
tp36
sS',1 WESTMINSTER'
p37
(g8
I96
I15991
tp38
sS'CHESTNUT LOCAL NO 147, 59 CHESTNUT'
p39
(S'CHESTNUT ST'
p40
I69
I15807
tp41
sS"CRAN' STON. ARLINGTON"
p42
(S'ARLINGTON AVE'
p43
I82
I16892
tp44
sS'WEYBOSSET MM 104'
p45
(S'WEYBOSSET ST'
p46
I86
I15992
tp47
sS'WESTMINSTER 823'
p48
(g8
I92
I15991
tp49
sS'WEYBCSSET;'
p50
(S'WEYBOSSET ST'
p51
I89
I15992
tp52
sS'OX-'
p53
(S'FOX PL'
p54
I65
I15854
tp55
sS'ALLEWS AV'
p56
(S'ALLENS AVE'
p57
I83
I15768
tp58
sS'FOX POINT HLVD -'
p59
(S'FOX POINT BLVD'
p60
I96
I21701
tp61
sS'CUSTOM HOUSE, TEL GASPEE 1-6282'
p62
(S'CUSTOM HOUSE ST'
p63
I78
I15820
tp64
sS'0'
p65
(S'10TH ST'
p66
I40
I16868
tp67
sS'RAILROAD WOONSOCKET RI TEL POPLAR'
p68
(S'WOONASQUATUCKET AV'
p69
I55
I18113
tp70
sS'59 CHESTNUT'
p71
(S'CHESTNUT ST'
p72
I92
I15807
tp73
sS'WELLBOSSET'
p74
(g46
I84
I15992
tp75
sS'WESTP MINSTER'
p76
(S'WESTMINSTER ST'
p77
I85
I15991
tp78
sS'PAGE RHODE ISLAND AUDITORIUM'
p79
(S'AUTUMN ST'
p80
I46
I16571
tp81
sS'ROCHAMBEAU AV'
p82
(S'ROCHAMBEAU AVE'
p83
I100
I17088
tp84
sS"BUYERS' GUIDE BOTTOM EDGE"
p85
(g11
I50
I16075
tp86
sS'SISSON'
p87
(S'SISSON ST'
p88
I100
I18042
tp89
sS'WEYBOSSET RM 401'
p90
(S'WEYBOSSET ST'
p91
I86
I15992
tp92
sS', 109'
p93
(S'I 195'
p94
I58
I15880
tp95
sS"' LEDGE"
p96
(S'LEDGE ST'
p97
I100
I16275
tp98
sS', 266'
p99
(S'2ND ST'
p100
I33
I16872
tp101
sS'GALLUP'
p102
(S'GALLUP ST'
p103
I100
I16668
tp104
sS'CH; STONE AV'
p105
(S'STONE ST'
p106
I88
I16476
tp107
sS'PARSONAGE'
p108
(S'PARSONAGE ST'
p109
I100
I15927
tp110
sS'ABBOTT PARK D1'
p111
(S'ABBOTT PARK PL'
p112
I93
I15762
tp113
sS'SPRUCE LETTI LORENZO 266 P1AINF1ELD LUMBIA, BARBER SHOP 738 BROAD PPOLINO ANTONIO 117 S MAIN'
p114
(S'PLAINFIELD ST'
p115
I48
I17994
tp116
sS'S HALL COMPANY 127, DORRANCE'
p117
(S'DORRANCE ST'
p118
I70
I15829
tp119
sS'BENEFIT AUXILIARY OF ALLYN K CAPRON CAMP 176 BENEFIT AUXILIARY NO 4 OF SIDNEY F HOAR'
p120
(S'HILARY DR'
p121
I39
I17529
tp122
sS'NORTH MAIN DYE STUFFS'
p123
(S'ERASTUS ST'
p124
I52
I17484
tp125
sS'RHODES'
p126
(S'RHODES ST'
p127
I100
I15945
tp128
sS'BYFLELD'
p129
(S'BYFIELD ST'
p130
I86
I16607
tp131
sS"' ATWELLS AV"
p132
(S'ATWELLS AVE'
p133
I100
I15775
tp134
sS'BROAD CENTRAL BAPTIST CHURCH 440 LLOYD'
p135
(S'CENTRAL AVE'
p136
I65
I16095
tp137
sS'BROADCASTING STATION AM FM AND T V WPRO BLDG'
p138
(S'BLACKSTONE BLVD'
p139
I46
I16904
tp140
sS"VVATERMAN'"
p141
(S'WATERMAN ST'
p142
I82
I15988
tp143
sS', 210'
p144
(S'10TH ST'
p145
I57
I16868
tp146
sS'BOOTH'
p147
(S'BOOTH ST'
p148
I100
I17167
tp149
sS'WESTMI STER'
p150
(S'WESTMINSTER ST'
p151
I81
I15991
tp152
sS"C'RANSTON"
p153
(S'CRANSTON ST'
p154
I93
I15817
tp155
sS"S MAIN, TEL GASPEE 1-4057; BRANCH, EMPIRE-ABORN STREETS 87-93 EMPIRE. 22-30 ABORN, TEL GASPEE 1-3810 OLNEYV'ILLE BRANCH 19171921 WESTMINSTER, TEL ELMHURST 1-9830; ELMWOOD BRANCH 520 ELMWOOD LAV, TEL STUART 1-2050; NORTH MAIN BRANCH 1340 NORTH MAIN, TEL"
p156
(S'WESTMINSTER ST'
p157
I54
I15991
tp158
sS'WILLARDAV'
p159
(S'WILLARD ST'
p160
I88
I16545
tp161
sS'CHESTNUT'
p162
(S'CHESTNUT ST'
p163
I100
I15807
tp164
sS'HAROLD'
p165
(S'HAROLD ST'
p166
I100
I17519
tp167
sS'BEXTER'
p168
(S'BAXTER ST'
p169
I83
I16579
tp170
sS'PAWTUCKET AV'
p171
(S'PAWTUXET AV'
p172
I84
I16771
tp173
sS'HOSPITAL TRUST BLDG'
p174
(S'HOSPITAL ST'
p175
I79
I15878
tp176
sS'WAMPANOAG TRAIL. EAST PROVIDENCE TEL GENEVAI'
p177
(S'PROVIDENCE PL'
p178
I71
I17631
tp179
sS'-8313 7 DYER STREET CORNER WESTMINSTER 1-8314'
p180
(S'WESTMINSTER ST'
p181
I70
I15991
tp182
sS', CHESTNUT'
p183
(g40
I100
I15807
tp184
sS'FRI ENDSHIP'
p185
(S'FRIENDSHIP ST'
p186
I88
I15858
tp187
sS'WESTMINSTER R703 YEAST MANUFACTURERS'
p188
(S'MANCHESTER FARM RD'
p189
I50
I16308
tp190
sS'BUYERS1 GUIDE'
p191
(S'BURNSIDE ST'
p192
I60
I16606
tp193
sS'N MAINW'
p194
(S'NORTH MAIN ST'
p195
I97
I15916
tp196
sS'HOSPITAL TRUST BLDG 15 WESTMINSTER. TEL GASPEE 1-6070'
p197
(g157
I67
I15991
tp198
sS'EXCHANGE PL'
p199
(S'EXCHANGE ST'
p200
I92
I15845
tp201
sS'-3716'
p202
(S'1ST ST'
p203
I29
I16871
tp204
sS'. EDDY'
p205
(S'EDDY ST'
p206
I100
I15834
tp207
sS"TH FI TURKS 7' HEAD BLAG"
p208
(S'TURKS HEAD PL'
p209
I83
I15976
tp210
sS'SMITH,'
p211
(S'SMITH ST'
p212
I100
I16457
tp213
sS'WEYBOSSET RM'
p214
(S'WEYBOSSET ST'
p215
I93
I15992
tp216
sS'-130 W EXCHANGE'
p217
(S'WEST EXCHANGE ST'
p218
I93
I15982
tp219
sS'PHENIX BLDG 17 EXCHANGE, TEL GASPEE 1-7062; CEMETERY OFFICE, RHODE ISLAND AVENUE, CENTREDALE, TEL CENTREDALE 1-9120'
p220
(S'CENTRAL AVE'
p221
I47
I16095
tp222
sS'CUSTOM HOUSE ST,'
p223
(S'CUSTOM HOUSE ST'
p224
I100
I15820
tp225
sS'HEMPSTEAD PROVIDENCE BUSINESS FINDER'
p226
(S'PROVIDENCE PL'
p227
I72
I17631
tp228
sS'DORRANCE R404'
p229
(S'DORRANCE ST'
p230
I88
I15829
tp231
sS'CRANSTON BERNSTEIN G 100 RANDALL'
p232
(g154
I49
I15817
tp233
sS'SMITH.'
p234
(g212
I100
I16457
tp235
sS"ELM-' WOOD AV"
p236
(S'ELMWOOD AVE'
p237
I83
I17207
tp238
sS'WESTMINSTER R1135'
p239
(g157
I89
I15991
tp240
sS'THAYER 237'
p241
(S'THAYER ST'
p242
I87
I17112
tp243
sS'EMF DIRE RMS 303-304'
p244
(S'DIKE ST'
p245
I50
I17827
tp246
sS'DORRANCE STJOHNS LODGE NO 1, 127 DORRANCE MTVERNON LBDGE NO 4, 127 DOR-'
p247
(S'DORRANCE PLZ'
p248
I62
I15828
tp249
sS'CHALKSTONE SIX OTHER CONVENIENT COMMUNITY OFFICES IN EARRINGTON CRANSTON CENTREDALE PAWTUCKET GRENVILLE'
p250
(S'CHALKSTONE AVE'
p251
I59
I17433
tp252
sS"WEYBOS' SET"
p253
(S'WEYBOSSET ST'
p254
I87
I15992
tp255
sS'WESTMINSTER JENNIE LIND TEMPLE 59 CHESTNUT'
p256
(S'WESTMINSTER ST'
p257
I71
I15991
tp258
sS'-80BAKER'
p259
(S'BAKER ST'
p260
I83
I16576
tp261
sS'WASHINGTON'
p262
(S'WASHINGTON ST'
p263
I100
I15987
tp264
sS'WESTMINSTER .R1012'
p265
(g157
I89
I15991
tp266
sS'BOYLSTON *HA.NSON F CHAS'
p267
(S'BOYLSTON AVE'
p268
I76
I16906
tp269
sS'CUSTOM HOUSE R20. TEL GASPEE 1 -9533'
p270
(g63
I76
I15820
tp271
sS'WEYBOSSET R2'
p272
(g51
I93
I15992
tp273
sS'S MAIN'
p274
(S'SOUTH MAIN ST'
p275
I100
I15948
tp276
sS'EDDM 3D0F1'
p277
(S'3RD ST'
p278
I40
I16873
tp279
sS'FRIENDSHIN'
p280
(S'FRIENDSHIP ST'
p281
I90
I15858
tp282
sS'NVEAZIE'
p283
(S'VEAZIE ST'
p284
I92
I16515
tp285
sS'WESTMINSTER;'
p286
(g157
I100
I15991
tp287
sS'EDDY PROVIDENCE BUSINESS FINDER'
p288
(S'PROVIDENCE PL'
p289
I75
I17631
tp290
sS"' N MAIN"
p291
(S'NORTH MAIN ST'
p292
I100
I15916
tp293
sS'WEYBOSSET PROVIDENCE BUSINESS FINDER'
p294
(g227
I72
I17631
tp295
sS'COD-'
p296
(S'CLOUD ST'
p297
I75
I17804
tp298
sS'N MAIN-'
p299
(S'NORTH MAIN ST'
p300
I100
I15916
tp301
sS"WESTMINSTER TE'L GASPEE"
p302
(g77
I82
I15991
tp303
sS'WESTMINSTER-'
p304
(g8
I100
I15991
tp305
sS'WELLINGTON AV. CRANSTON'
p306
(S'WELLINGTON AVE'
p307
I81
I17352
tp308
sS'CARBON PRDDUCTS CO'
p309
(S'SPRUCE ST'
p310
I45
I15961
tp311
sS'FRIENDSHIP'
p312
(S'FRIENDSHIP ST'
p313
I100
I15858
tp314
sS'WALLING SECOND 68 POND'
p315
(S'WALLING ST'
p316
I74
I21723
tp317
sS'WEYBOSSET'
p318
(S'WEYBOSSET ST'
p319
I100
I15992
tp320
sS'CHARLES'
p321
(S'CHARLES ST'
p322
I100
I16096
tp323
sS'CUSTOM HOUSE'
p324
(g63
I100
I15820
tp325
sS'-93 EMPIRE;'
p326
(S'EMPIRE ST'
p327
I90
I15840
tp328
sS"E'DDY"
p329
(S'EAST ST'
p330
I83
I15833
tp331
sS"AN' THONY AV"
p332
(S'ANTHONY AVE'
p333
I88
I17155
tp334
sS'DABOLL'
p335
(S'DABOLL ST'
p336
I100
I17191
tp337
sS'CHESTNUT 1'
p338
(S'CHESTNUT ST'
p339
I94
I15807
tp340
sS'; MANTON AV'
p341
(S'MANTON AVE'
p342
I100
I17947
tp343
sS'MAIN.'
p344
(S'MAIDEN LN'
p345
I80
I15899
tp346
sS'BEVERLY R2'
p347
(S'BEVERLY ST'
p348
I91
I15783
tp349
sS'SMITH .'
p350
(g212
I100
I16457
tp351
sS'HOME'
p352
(S'HOME AVE'
p353
I100
I17534
tp354
sS'RAILROAD WOONSOCKET. TEL POPLAR'
p355
(g69
I56
I18113
tp356
sS'210 BWAY'
p357
(S'BROADWAY'
p358
I83
I21699
tp359
sS"WESTMINSTERRM '302"
p360
(g151
I85
I15991
tp361
sS'N MAIN CHRIST 909 EDDY CHURCH OF THE EPIPHANY 538 POT-'
p362
(S'STEPHANIE DR'
p363
I40
I16474
tp364
sS'WEYBOSSET R8 06'
p365
(g51
I87
I15992
tp366
sS'OLNEYVILLE SQ;'
p367
(S'OLNEYVILLE SQ'
p368
I100
I17978
tp369
sS'POINT'
p370
(S'POINT ST'
p371
I100
I15936
tp372
sS'WESTMINSTER 7'
p373
(S'WESTMINSTER ST'
p374
I96
I15991
tp375
sS'; T V WPRO BLDG'
p376
(S'PROCTOR PL'
p377
I49
I17081
tp378
sS'WESTMINSTER 2'
p379
(S'WESTMINSTER ST'
p380
I96
I15991
tp381
sS'WESTMINSTER 1'
p382
(g77
I96
I15991
tp383
sS'WESTMINSTER; BRANCH 205 WAYLAND AV, TEL GASPEE 1-8400; NEWPORT BRANCH 160 THAMES; 54 BILLSIDER, GARDEN CITY'
p384
(g157
I59
I15991
tp385
sS'7 BEVERLY'
p386
(S'BEVERLY ST'
p387
I94
I15783
tp388
sS'. ALLEY CLEANSERS'
p389
(S'LEANDER ST'
p390
I65
I17929
tp391
sS'WEST1 MINSTER 4TH 11'
p392
(g77
I74
I15991
tp393
sS'MTPLEASANT AV'
p394
(S'PLEASANT AV'
p395
I90
I16399
tp396
sS'; 1734-38 WESTMINSTER'
p397
(g8
I86
I15991
tp398
sS'ORANGE'
p399
(S'ORANGE ST'
p400
I100
I15921
tp401
sS"WESTMINSTER '"
p402
(g8
I100
I15991
tp403
sS'ME1I 6SE'
p404
(S'MENI CT'
p405
I62
I16731
tp406
sS'AMERICA'
p407
(S'AMERICA ST'
p408
I100
I15770
tp409
sS'PINE'
p410
(S'PINE ST'
p411
I100
I15933
tp412
sS'CRANSTON STREET, CRANSTON, TEL TEMPLE 1-3007'
p413
(S'CRANSTON ST'
p414
I66
I15817
tp415
sS"1'NEW1 ENGLAND,S LARGEST PET SHOP,' 99 WASHINGTON"
p416
(g263
I66
I15987
tp417
sS'MATHEWSON, TEL GASPEE 1-0250'
p418
(S'MATHEWSON ST'
p419
I75
I15904
tp420
sS"'P1AINFIELD"
p421
(S'PLAINFIELD ST'
p422
I90
I17994
tp423
sS'WESTMINSTER R202'
p424
(g157
I90
I15991
tp425
sS'EMPIRE HAT CAP DEALERS-RETAIL'
p426
(S'MAPLEHURST AVE'
p427
I50
I17585
tp428
sS'ME LROSE'
p429
(S'MELROSE ST'
p430
I88
I17263
tp431
sS'WESTMINSTER'
p432
(S'WESTMINSTER ST'
p433
I100
I15991
tp434
sS'CRAN-'
p435
(S'CRESANT DR'
p436
I73
I16127
tp437
sS'43, 310'
p438
(S'10TH ST'
p439
I48
I16868
tp440
sS'BWAF'
p441
(S'BROADWAY'
p442
I75
I21699
tp443
sS'HARRISON'
p444
(S'HARRISON ST'
p445
I100
I17226
tp446
sS'8'
p447
(S'8TH ST'
p448
I50
I16878
tp449
sS'STEVENS 2D'
p450
(S'STEUBEN ST'
p451
I65
I18056
tp452
sS', 380'
p453
(S'3RD ST'
p454
I33
I16873
tp455
sS'CHALKSTONE SIX OTHER CONVENIENT COMMUNITY OFFICES IN EARRINGTON CRANSTON CENTREDALE PAWTUCKET GREENVILLE)'
p456
(g251
I59
I17433
tp457
sS'BWAN'
p458
(S'SWAN CT'
p459
I75
I16481
tp460
sS'HOWARD BLDZ 171 WESTMINSTER'
p461
(S'WESTMINSTER ST'
p462
I79
I15991
tp463
sS'WEYBOSSET LADY LINCOLN COUNCIL NO 5, 266'
p464
(g91
I69
I15992
tp465
sS"WESTMINSTER 'RM 1512"
p466
(g8
I86
I15991
tp467
sS'BORDEN ALLEN S AV'
p468
(S'BORDEN ST'
p469
I75
I15787
tp470
sS'SMITH;'
p471
(g212
I100
I16457
tp472
sS'-0050'
p473
(S'I 95'
p474
I29
I15881
tp475
sS'PRAIRIE, AV'
p476
(S'PRAIRIE AVE'
p477
I100
I16787
tp478
sS', 310'
p479
(S'10TH ST'
p480
I57
I16868
tp481
sS'MATHEWSON'
p482
(g419
I100
I15904
tp483
sS'FOUNTAIN'
p484
(S'FOUNTAIN ST'
p485
I100
I15853
tp486
sS'BENEIIT'
p487
(S'BENEFIT ST'
p488
I86
I15781
tp489
sS'COMMODORE'
p490
(S'COMMODORE ST'
p491
I100
I16115
tp492
sS'FRIENDSHIP, TEL GASPEE 145481'
p493
(S'FRIENDSHIP ST'
p494
I76
I15858
tp495
sS'CRANSTON'
p496
(S'CRANSTON ST'
p497
I100
I15817
tp498
sS'ARMINGTON EDGEWOOD'
p499
(S'ARMINGTON ST'
p500
I83
I16565
tp501
sS'; T V. WPRO BLDG'
p502
(g377
I49
I17081
tp503
sS'POST RD. APPONAUG, TEL REGENT 7-9100'
p504
(S'EAST APPROACH'
p505
I48
I15832
tp506
sS'HARTFORD AV'
p507
(S'HARTFORD AVE'
p508
I100
I17889
tp509
sS". A A AA TL'TAO-L-MLNNDRNU"
p510
(S'EAST MANNING ST'
p511
I46
I16951
tp512
sS'WALL-'
p513
(S'WALLER ST'
p514
I80
I17708
tp515
sS'7 WEYBOSSET'
p516
(S'WEYBOSSET ST'
p517
I95
I15992
tp518
sS'WESTMINSTER GRAND LODGE 49 WESTMINSTER'
p519
(S'WESTMINSTER ST'
p520
I72
I15991
tp521
sS'JEFFERSON BELL STREET CHAPEL 7 BELL CALVARY CHURCH 25 PENNSYLVANIA'
p522
(S'PENNSYLVANIA AVE'
p523
I65
I16776
tp524
sS'HEADQUARTERS IN PROVIDENCE FOR'
p525
(S'HUNTERS RUN'
p526
I53
I16244
tp527
sS', NARRAGANSETT HOTEL'
p528
(S'NARRAGANSETT BLVD'
p529
I90
I16745
tp530
sS'DEPT OF RHODE ISLAND 75 EMPIRE'
p531
(S'RHODE ISLAND AVE'
p532
I78
I17085
tp533
sS'BENEFIT LADIES AUXILIARY LOGAN CIRCLE 59'
p534
(S'HILARY DR'
p535
I44
I17529
tp536
sS'WEYDOSSEI'
p537
(S'WEYBOSSET ST'
p538
I78
I15992
tp539
sS'WEYBOSSET R51'
p540
(g51
I91
I15992
tp541
sS'6TH'
p542
(S'6TH ST'
p543
I100
I16876
tp544
sS"SO'RRENTO"
p545
(S'SORRENTO ST'
p546
I90
I18046
tp547
sS'WESTMINSTER R1126'
p548
(g157
I89
I15991
tp549
sS'SABIN'
p550
(S'SABIN ST'
p551
I100
I15950
tp552
sS'BRBAD'
p553
(S'BROAD ST'
p554
I80
I15793
tp555
sS'MASON TEL PLANTATIONS'
p556
(S'UNION STATION ST'
p557
I60
I15978
tp558
sS"HART' FORD AV"
p559
(S'HART ST'
p560
I81
I16991
tp561
sS'.55 WESTMINSTER'
p562
(g8
I94
I15991
tp563
sS'.011 SPGCLAHSIS) QUU ROUNTAIN'
p564
(S'CASSISI CT'
p565
I47
I16090
tp566
sS'WESTMINSTER IEL GASDEE 5065'
p567
(g8
I79
I15991
tp568
sS'POCASSET A'
p569
(S'POCASSET AVE'
p570
I94
I17995
tp571
sS"WEYBOSSET. TEL GASPEE 1-2700; 280 ATWELLS DV. TEL GASPEE 1-3244'AND 591 CHARLES; TEL GASPEE 1-5550"
p572
(g51
I58
I15992
tp573
sS'AUXILIARY'
p574
(S'HILARY DR'
p575
I67
I17529
tp576
sS'ALLEN1S AV'
p577
(S'ALLENS AVE'
p578
I92
I15768
tp579
sS', KILLINGLY ST'
p580
(S'KILLINGLY ST'
p581
I100
I17917
tp582
sS'BROAD,'
p583
(S'BROAD ST'
p584
I100
I15793
tp585
sS'BROAD-'
p586
(g554
I100
I15793
tp587
sS'WEYBOSSET0RM 332'
p588
(S'WEYBOSSET ST'
p589
I79
I15992
tp590
sS'MOOREIIELD'
p591
(S'MOOREFIELD ST'
p592
I90
I17965
tp593
sS'WASHINGTON R3 06'
p594
(S'WASHINGTON PL'
p595
I88
I15986
tp596
sS'WASHINGTON R3 02'
p597
(g595
I88
I15986
tp598
sS"LEFT TOP LINES) '"
p599
(S'ALPINE CT'
p600
I61
I16885
tp601
sS'WESTMINSTER R47'
p602
(g157
I92
I15991
tp603
sS'WESTMINSTER RAYMOND BLOCK'
p604
(g8
I80
I15991
tp605
sS'MAIN ST'
p606
(S'MARVIN ST'
p607
I84
I17952
tp608
sS"' WILLARD AV"
p609
(S'WILLARD ST'
p610
I100
I16545
tp611
sS', UNITY HALL'
p612
(S'UNIT ST'
p613
I73
I18082
tp614
sS'R412 LEY RICHARD A'
p615
(S'EAST ORCHARD AVE'
p616
I69
I16952
tp617
sS'. 42'
p618
(S'2ND ST'
p619
I40
I16872
tp620
sS"S WATER 'TELS GASPEE 3569-9653-FOR FURTHER INFORMATION SEE PAGE 79 BUYERS' GUIDE"
p621
(S'NORMAN DR'
p622
I42
I16362
tp623
sS'BLACKSTONE'
p624
(S'BLACKSTONE ST'
p625
I100
I15785
tp626
sS'-WESTMINSTER'
p627
(g8
I100
I15991
tp628
sS'A; MATHEWSON'
p629
(S'MATHEWSON ST'
p630
I95
I15904
tp631
sS"UNION' AV"
p632
(S'UNION ST'
p633
I100
I15977
tp634
sS'MEETING ZION 148 WADSWORTH'
p635
(S'WADSWORTH ST'
p636
I75
I17346
tp637
sS'BELLEVUE'
p638
(S'BELLEVUE AVE'
p639
I100
I16051
tp640
sS'BENEM REORGANIZED CHURCH OF JESUS'
p641
(S'GEORGE M COHAN BLVD'
p642
I47
I15864
tp643
sS'S MAIN NEXF TO COURT HOUSE'
p644
(S'SOUTH MAIN ST'
p645
I75
I15948
tp646
sS'UNION R409'
p647
(S'UNION ST'
p648
I83
I15977
tp649
sS'WESTMINSTER R2'
p650
(g157
I94
I15991
tp651
sS'KNIGHT A'
p652
(S'KNIGHT ST'
p653
I93
I15890
tp654
sS'"WEYBOSSET RMS 51 TO 53A'
p655
(S'WEYBOSSET ST'
p656
I78
I15992
tp657
sS"A' THAYER"
p658
(S'THAYER ST'
p659
I93
I17112
tp660
sS'CLIF-'
p661
(S'CLIFF ST'
p662
I89
I17441
tp663
sS'ST NO 69, 10'
p664
(S'1ST ST'
p665
I54
I16871
tp666
sS"CULVER, TELS GASPEE 1-4946, VJACKBON 1-091'7"
p667
(S'JACKSON WALKWAY'
p668
I52
I15884
tp669
sS'WESTMINSTER R407'
p670
(g157
I90
I15991
tp671
sS'HOPE; HOPKINS SQUARE; OLNEYVI LLE SQUARE; WASHINGTON PARK'
p672
(g595
I68
I15986
tp673
sS'SNOW CANONICUS LODGE NO 9, 6 THOMAS EAGLE LODGE NO 2, 48 SNOW MANUFACTURERS LODGE NO 15, 279'
p674
(S'MANCHESTER FARM RD'
p675
I40
I16308
tp676
sS'WESTMINSTER R704'
p677
(g157
I90
I15991
tp678
sS'1'
p679
(S'1ST ST'
p680
I50
I16871
tp681
sS'FOUNTAIN R401'
p682
(S'FOUNTAIN ST'
p683
I88
I15853
tp684
sS'BEVER1Y'
p685
(g387
I86
I15783
tp686
sS'WESTMINSTER RMS 606-607'
p687
(g462
I82
I15991
tp688
sS'WESTMINSTER R701'
p689
(g157
I90
I15991
tp690
sS'MAN AV'
p691
(S'LYMAN ST'
p692
I75
I15897
tp693
sS'WESTMINTER RM'
p694
(g181
I89
I15991
tp695
sS'CHARLES ROMA, LODGE NO 725, 210 BWAY SANMICHELE LODGE NO 566, 21,0'
p696
(S'MICHELE DR'
p697
I51
I16338
tp698
sS'CALHOUN AV'
p699
(S'CALHOUN AVE'
p700
I100
I17176
tp701
sS'WESTMINSTER RMS 109-110'
p702
(g181
I82
I15991
tp703
sS'VIR-'
p704
(S'VIREO ST'
p705
I75
I16523
tp706
sS'VEAZIE'
p707
(S'VEAZIE ST'
p708
I100
I16515
tp709
sS'DANIEL'
p710
(S'DANIEL AVE'
p711
I100
I17817
tp712
sS'HEADQUARTERS IN PROVIDENCE FOR UHARTMANN TRUNKS LUGGAGE"'
p713
(g526
I46
I16244
tp714
sS"BUYERS' GUIDE LEFT BOTTOM LINES"
p715
(S'BURNS ST'
p716
I51
I16075
tp717
sS'THURBERS AV'
p718
(S'THURBERS AVE'
p719
I100
I16839
tp720
sS'I CHESTNUT'
p721
(g72
I94
I15807
tp722
sS'CRANSTON HOUSEHOLD OF RUTH N0 13, 310'
p723
(S'IRON HORSE WY'
p724
I47
I17544
tp725
sS'BROAD'
p726
(S'BROAD ST'
p727
I100
I15793
tp728
sS"ALLEN'S AV"
p729
(S'ALLENS AVE'
p730
I81
I15768
tp731
sS'WESTMINSTER RM7'
p732
(S'WESTMINSTER ST'
p733
I92
I15991
tp734
sS'DORRANCE CORNER WASHINGTON. TEL GASPEE'
p735
(g595
I74
I15986
tp736
sS', WASHINGTON'
p737
(S'WASHINGTON ST'
p738
I100
I15987
tp739
sS'BENEFIT EAGLE LODGE NO 2, 48 SNOW UNITY LODGE NO 20, 59 CHESTNUT NARRAGANSETT ENCAMPMENT NO 1,'
p740
(S'NARRAGANSETT PKWY'
p741
I63
I16746
tp742
sS'SHAWRNUT'
p743
(S'SHARON DR'
p744
I71
I16447
tp745
sS'DIE.MOND'
p746
(S'DIAMOND ST'
p747
I76
I17199
tp748
sS'WASH PROVIDENCE BUSINESS FINDER'
p749
(g289
I75
I17631
tp750
sS'WESTMINSTER RMS 18-19'
p751
(S'WESTMINSTER ST'
p752
I84
I15991
tp753
sS'WESTMINSTER R10-11'
p754
(g157
I88
I15991
tp755
sS'ABORN'
p756
(S'ABORN ST'
p757
I100
I15763
tp758
sS'HOSPITAL TRUST B1DG115 WESTMINSTER'
p759
(g8
I74
I15991
tp760
sS'WEYBWSET;'
p761
(g51
I82
I15992
tp762
sS'FOUNTAIN R710'
p763
(g683
I88
I15853
tp764
sS'INC 150-152 DORRANCE'
p765
(g118
I78
I15829
tp766
sS'WESTMINNSTER'
p767
(g77
I96
I15991
tp768
sS'WESTMINSTER PROV CAMP 728 WESTMINSTER'
p769
(g257
I73
I15991
tp770
sS'BELLEVUE AV'
p771
(S'BELLEVUE AVE'
p772
I100
I16051
tp773
sS'CORP 29 WEYBOSSET'
p774
(g254
I84
I15992
tp775
sS"W'EYBOSSET"
p776
(g91
I88
I15992
tp777
sS'WESTMINSTER R234'
p778
(g157
I90
I15991
tp779
sS'BOWDOIN'
p780
(S'BOWDOIN ST'
p781
I100
I17778
tp782
sS"11'S BARBER SHOP 261 CRANSTON"
p783
(S'CRANSTON ST'
p784
I69
I15817
tp785
sS"PLAINFIF '"
p786
(S'PLAINFIELD ST'
p787
I78
I17994
tp788
sS'DOUGLAS AV'
p789
(S'DOUGLAS AVE'
p790
I100
I16154
tp791
sS'SUMMER PROVIDENCE BUSINESS FINDER'
p792
(g289
I74
I17631
tp793
sS'WESTMINSTER R44-45'
p794
(g157
I88
I15991
tp795
sS'HOSPITAL TRUST BLDG 15 WESTMINSTER, TEL GASPEE 1-8666'
p796
(g157
I67
I15991
tp797
sS'N MAIN STMARTIMS EPISCOPAL CHURCH 50 OR-'
p798
(S'UNION STATION ST'
p799
I49
I15978
tp800
sS'ATWELLS 4. AV'
p801
(g133
I94
I15775
tp802
sS"WEYBOSSET M' 32"
p803
(g46
I89
I15992
tp804
sS"BORDEN ALLEN'S AV"
p805
(S'BORDEN ST'
p806
I75
I15787
tp807
sS'NEWARK CIGAR MFRS'
p808
(S'NEWARK ST'
p809
I76
I17604
tp810
sS'37 CLEMENCE'
p811
(S'CLEMENCE ST'
p812
I92
I15810
tp813
sS'OFFICE T PLANT'
p814
(S'POST OFFICE CT'
p815
I74
I15938
tp816
sS'; POWER C0 OF RHODE ISLAND'
p817
(S'RHODE ISLAND AVE'
p818
I83
I17085
tp819
sS'; WEBSTER AV'
p820
(S'WEBSTER AVE'
p821
I100
I18098
tp822
sS"COVE'LL"
p823
(S'COVELL ST'
p824
I86
I17807
tp825
sS'EMPIRE R421'
p826
(g327
I85
I15840
tp827
sS'RICHMOND 17 FOR YEAR ENDING APRIL 1939'
p828
(S'RICHMOND SQ'
p829
I68
I17086
tp830
sS'EBBA. BRAHE LODGE NO 18, 59 CHEST-'
p831
(S'BRANCH AVE'
p832
I52
I16067
tp833
sS'E-LMWOOD AV'
p834
(S'ELMWOOD AVE'
p835
I85
I17207
tp836
sS'PINE 3DFI'
p837
(S'PINE HILL AVE'
p838
I83
I16780
tp839
sS'SEEKONK R1'
p840
(S'SEEKONK ST'
p841
I91
I17097
tp842
sS'754-756 BROAD'
p843
(S'BROAD ST'
p844
I78
I15793
tp845
sS"'. RIGHT TOP LINES)"
p846
(S'BRIGHTON ST'
p847
I69
I17781
tp848
sS'7'
p849
(S'7TH ST'
p850
I50
I16877
tp851
sS'BWAY GRAND LODGE OF RHODE ISLAND 210'
p852
(S'RHODE ISLAND AVE'
p853
I75
I17085
tp854
sS'MATHEWSOD.'
p855
(S'MATHEWSON ST'
p856
I89
I15904
tp857
sS'I PLAINFIELD'
p858
(g422
I95
I17994
tp859
sS'MEDWAY APT 2'
p860
(S'MEDWAY ST'
p861
I83
I17040
tp862
sS"LEFT SIDE UNES)'"
p863
(S'SEFTON DR'
p864
I50
I16814
tp865
sS', WESTMINSTER'
p866
(g8
I100
I15991
tp867
sS'BUYERS GULDE LEFT S1DE LMES PAUPS WATCH REPAIR'
p868
(S'BUTLER AVE'
p869
I45
I16915
tp870
sS', 767'
p871
(S'6TH ST'
p872
I33
I16876
tp873
sS'O O & 40 INS URANCE FOR EVERY NEED'
p874
(S'DORRANCE PLZ'
p875
I51
I15828
tp876
sS"CLAVERI'CK"
p877
(S'CLAVERICK ST'
p878
I91
I15809
tp879
sS'BWAY CRANSTON STREET 689 CRANSTON MATHEWSON STREET 134 MATHEW-'
p880
(S'MATHEWSON ST'
p881
I63
I15904
tp882
sS'83, 248'
p883
(S'2ND ST'
p884
I27
I16872
tp885
sS'PLAINIIELD'
p886
(g422
I90
I17994
tp887
sS'ELMGROV-E AV'
p888
(S'ELMGROVE AVE'
p889
I86
I16960
tp890
sS'WEYBOSSET RM5'
p891
(g46
I91
I15992
tp892
sS'DYER'
p893
(S'DYER ST'
p894
I100
I15831
tp895
sS'ARMINGTON EDGEWOOD RI'
p896
(g500
I80
I16565
tp897
sS'SARATOG A REYNOLDS ELIZ A 100 N MAING'
p898
(S'REYNOLDS AVE'
p899
I66
I16791
tp900
sS'WESTMINSTER SUITE 611'
p901
(g8
I84
I15991
tp902
sS', 13'
p903
(S'1ST ST'
p904
I40
I16871
tp905
sS'-263 WESTMINSTER'
p906
(g8
I92
I15991
tp907
sS'WEYBOSSET IRONSIDE COUNCIL 266 WEYBOSSET JOHN BECKER COUNCIL NO 14, 380'
p908
(S'WEYBOSSET ST'
p909
I61
I15992
tp910
sS', 14'
p911
(S'1ST ST'
p912
I40
I16871
tp913
sS'WEYBOSSET R23A'
p914
(g51
I89
I15992
tp915
sS'NORTH BROADWAY E PROV'
p916
(S'GRAND BROADWAY'
p917
I76
I16209
tp918
sS'MANTON AV'
p919
(S'MANTON AVE'
p920
I100
I17947
tp921
sS'RIGHT SIDE LINES)'
p922
(g847
I63
I17781
tp923
sS'4WESTMINSTER'
p924
(g8
I96
I15991
tp925
sS'DOUGLAE AV'
p926
(S'DOUGLAS AVE'
p927
I86
I16154
tp928
sS'WESTMINSTER R1122'
p929
(g157
I89
I15991
tp930
sS'71 EMPIRE'
p931
(S'EMPIRE ST'
p932
I90
I15840
tp933
sS'WESTMINSTER R901'
p934
(g157
I90
I15991
tp935
sS'WESTMNSTER;'
p936
(g157
I95
I15991
tp937
sS'WESTMINSTER R1409'
p938
(g157
I89
I15991
tp939
sS'ORMS SOUTH PROVIDENCE HEBREW CONGREGATION 201 WILLARD AV'
p940
(S'COMMUNICATIONS PL'
p941
I48
I15813
tp942
sS'CANAL'
p943
(S'CANAL ST'
p944
I100
I15798
tp945
sS'WESTMINSTER FOR YEAR ENDING APRIL 1939'
p946
(S'WESTMINSTER ST'
p947
I72
I15991
tp948
sS'MILES FROM PROVIDENCE, BEAUTIFULLY FURNISHED, FREE PARKING. ALL ROOMS WITH BATH), 179 MAIN, PAWTUCKET, RI, TEL PAWTUCKET 25800'
p949
(S'BAILEY BLVD'
p950
I35
I16575
tp951
sS'JACKSOII'
p952
(S'JACKSON ST'
p953
I80
I16253
tp954
sS'WESTMINSTER, ROOM 506 TEL GASPEE 1-2636'
p955
(g157
I72
I15991
tp956
sS'WEYBOSSET ,'
p957
(g589
I100
I15992
tp958
sS'WEYBOSSET -'
p959
(S'WEYBOSSET ST'
p960
I100
I15992
tp961
sS'S WATER'
p962
(S'SOUTH WATER ST'
p963
I100
I15949
tp964
sS"CUSTOM'HOUSE ST"
p965
(g224
I100
I15820
tp966
sS'N MAIN 4TH 6'
p967
(g300
I88
I15916
tp968
sS'EX7 CHANGE D1 8ON THE MALV'
p969
(S'EXCHANGE TER'
p970
I72
I15846
tp971
sS'ALLENS AV'
p972
(g578
I100
I15768
tp973
sS'EDDY R308'
p974
(S'EDDY ST'
p975
I81
I15834
tp976
sS'WESTMINSTER R10'
p977
(g157
I92
I15991
tp978
sS'N MAIN 4TH 3'
p979
(g300
I88
I15916
tp980
sS'WESTMINSTER R12'
p981
(g157
I92
I15991
tp982
sS'WESTMINSTER R16'
p983
(g157
I92
I15991
tp984
sS'PROV COUNTY QOU'
p985
(S'COUNTY ST'
p986
I78
I16126
tp987
sS'PLAINFLELD'
p988
(g422
I90
I17994
tp989
sS', LWATERMAN'
p990
(S'WATERMAN ST'
p991
I94
I15988
tp992
sS'WEY BOSSET'
p993
(g46
I87
I15992
tp994
sS'195 EDDY'
p995
(S'EDDY ST'
p996
I83
I15834
tp997
sS";TH IL7 EXCHANGE STREET .. GASPEE 1860-1861' EST. 1914"
p998
(S'EXCHANGE TER'
p999
I68
I15846
tp1000
sS"FRONT, PAWTUCKET'"
p1001
(S'PAWTUXET AV'
p1002
I71
I16771
tp1003
sS'VEAZIE SGT LEONARD WASUEWSKI ROSI NO'
p1004
(S'PILSUDSKI ST'
p1005
I43
I17993
tp1006
sS'FOX IPOINT BLVD'
p1007
(S'FOX POINT BLVD'
p1008
I94
I21701
tp1009
sS', DOR-K RANCE'
p1010
(g118
I80
I15829
tp1011
sS'GEORGIA AJV'
p1012
(S'GEORGIA AVE'
p1013
I89
I16671
tp1014
sS'THAYGR'
p1015
(g659
I83
I17112
tp1016
sS'SMITH AETNA MFG CO 63 BWAY'
p1017
(S'SMITH HILL ST'
p1018
I66
I15956
tp1019
sS'WESTMINSTER R905-06'
p1020
(g157
I86
I15991
tp1021
sS'F1RST FLOOR 10 WEYBOSSET'
p1022
(g46
I77
I15992
tp1023
sS'CHESTNUT FANY CLEANSERS'
p1024
(g390
I57
I17929
tp1025
sS'SHIP'
p1026
(S'SHIP ST'
p1027
I100
I15955
tp1028
sS'EDD)7'
p1029
(S'EDDY ST'
p1030
I76
I15834
tp1031
sS"A'TWELLS AV"
p1032
(S'ATWELLS AVE'
p1033
I92
I15775
tp1034
sS'CHALKSTONE SIX OTHER CONVENIENT COMMUNITY OFFICES IN HARRINGTON CRANSTON CENTREDALE PAWTUCKET GREENVILLE'
p1035
(g251
I59
I17433
tp1036
sS'-FOR FURTHER INFORMATION SEE PAGE'
p1037
(g622
I51
I16362
tp1038
sS'. 40 FOUNTAIN'
p1039
(S'FOUNTAIN ST'
p1040
I92
I15853
tp1041
sS'WEYBOSSET T-ELGASPEE 0865'
p1042
(S'WEYBOSSET ST'
p1043
I76
I15992
tp1044
sS"WESTMINSTER TE GASPEE 5350-FOR FURTHER INFORMATION SEE PAGE 164 BUYERS' GUIDE AM RIGHT TOP LINES"
p1045
(g77
I60
I15991
tp1046
sS'WESTMINSTER R61214'
p1047
(g157
I88
I15991
tp1048
sS'MOORENELD'
p1049
(S'MOOREFIELD ST'
p1050
I84
I17965
tp1051
sS'EDDV'
p1052
(g1030
I75
I15834
tp1053
sS'WATERMAN, TEL DEXTER 1-8990'
p1054
(S'WATERMAN ST'
p1055
I73
I15988
tp1056
sS'BROAD, EDGEWOOD, TEL HOPKINS 1-5400'
p1057
(S'EDGEWOOD BLVD'
p1058
I71
I16652
tp1059
sS'APPLETON'
p1060
(S'APPLETON ST'
p1061
I100
I17749
tp1062
sS'ROANOKE'
p1063
(S'ROANOKE ST'
p1064
I100
I17648
tp1065
sS'CLI&ORD'
p1066
(S'CLIFFORD ST'
p1067
I67
I15811
tp1068
sS'PERRY'
p1069
(S'TERRY ST'
p1070
I80
I16489
tp1071
sS'WESTMIN-'
p1072
(g257
I78
I15991
tp1073
sS"DYER 2D'FL"
p1074
(S'DYER ST'
p1075
I78
I15831
tp1076
sS'VEAZIE ODD LADIES LOYAL HOPE LODGE NO 9619, 248 WEYBOSSET'
p1077
(g254
I64
I15992
tp1078
sS"'ABORN"
p1079
(S'ABORN ST'
p1080
I100
I15763
tp1081
sS'WEYBOSSET R408'
p1082
(g51
I89
I15992
tp1083
sS'WOOLWORTHWBLDG 187 WESTMINSTER'
p1084
(S'WOODLAND TER'
p1085
I44
I17142
tp1086
sS'EMPIRE'
p1087
(S'EMPIRE ST'
p1088
I100
I15840
tp1089
sS"MASSASOIT AV, EAST PROVIDENCE , TELS EAST PROVIDENCE'1-3881, 1-2095"
p1090
(g178
I66
I17631
tp1091
sS'WEYBOSSET YARDS FIELDS POINT'
p1092
(g17
I74
I15992
tp1093
sS'TFAVERSE'
p1094
(S'TRAVERSE ST'
p1095
I88
I17117
tp1096
sS'E1MWOOD AV'
p1097
(g835
I86
I17207
tp1098
sS'ACADEIXIY AV'
p1099
(S'ACADEMY AVE'
p1100
I75
I17365
tp1101
sS'CAMP'
p1102
(S'CAMP ST'
p1103
I100
I16917
tp1104
sS'WESTMINSTER ST. DE1-6090 ROOM 704, ALICE BLDG., OPP. BOSTON STORE'
p1105
(g752
I65
I15991
tp1106
sS'.6. GARNET'
p1107
(S'GARNET ST'
p1108
I93
I15862
tp1109
sS'CAMN'
p1110
(S'CAMDEN AVE'
p1111
I80
I17421
tp1112
sS'MATHEWSON R10'
p1113
(g419
I91
I15904
tp1114
sS'CHESTNUT-'
p1115
(g72
I100
I15807
tp1116
sS'WEYBOSSEVT'
p1117
(S'WEYBOSSET ST'
p1118
I95
I15992
tp1119
sS'WILLIAMS GASPEE CHAPTER MRS T FREDERICK'
p1120
(S'FREDERICK ST'
p1121
I69
I16189
tp1122
sS'WESTMINSTER R302'
p1123
(g157
I90
I15991
tp1124
sS'GREENE 241'
p1125
(S'GREENE ST'
p1126
I87
I15866
tp1127
sS'ALTHEA BEACON AVE'
p1128
(S'ALTHEA ST'
p1129
I81
I17152
tp1130
sS'THAYER PROVIDENCE BUSINESS FINDER'
p1131
(g227
I74
I17631
tp1132
sS'WEYBOSSET WESTMINSTER LODGE NO 78, 266'
p1133
(S'WESTMINSTER ST'
p1134
I73
I15991
tp1135
sS'WESTMINSTER R309'
p1136
(g157
I90
I15991
tp1137
sS'LEFT BOTTOM LINES AIND FRONT COVER) .'
p1138
(S'ABBOTT PARK PL'
p1139
I50
I15762
tp1140
sS'HEDLEY'
p1141
(S'HEDLEY ST'
p1142
I100
I21727
tp1143
sS"R'OUGR'S AV"
p1144
(S'SOUTH CT'
p1145
I79
I15959
tp1146
sS'REYNOLDS AW'
p1147
(S'REYNOLDS AVE'
p1148
I92
I16791
tp1149
sS'FIRST FLOOR 10 WE) SET'
p1150
(S'FROST ST'
p1151
I59
I16191
tp1152
sS"SPRA'GUE"
p1153
(S'SPRAGUE ST'
p1154
I83
I17327
tp1155
sS'* 170 WESTMINSTER'
p1156
(g520
I92
I15991
tp1157
sS'GARNET 3D A'
p1158
(S'GARNET ST'
p1159
I85
I15862
tp1160
sS'CONGDON'
p1161
(S'CONGDON ST'
p1162
I100
I16932
tp1163
sS'WESTMINSTER TE L GASPEE 5350'
p1164
(g947
I78
I15991
tp1165
sS"HOPE GRAND LODGE OF RI 127 DORRANCE STJOHN'S LODGE NO 1, 127 DOR-"
p1166
(S'DORRANCE PLZ'
p1167
I62
I15828
tp1168
sS'ABORNTTET DEXTER LOOO-FOR FURTHER INFORMATION SEE PAGE 31 BUYERS GUIDE'
p1169
(S'NORMAN DR'
p1170
I43
I16362
tp1171
sS'WATERMAN"'
p1172
(g142
I100
I15988
tp1173
sS'TH TI'
p1174
(S'4TH ST'
p1175
I65
I16874
tp1176
sS'SABIN ELEV B'
p1177
(g551
I79
I15950
tp1178
sS'POTTEST AV'
p1179
(S'POTTERS AVE'
p1180
I86
I16786
tp1181
sS'PINE .'
p1182
(S'PINE ST'
p1183
I100
I15933
tp1184
sS'WESTMIN7 STER'
p1185
(S'WESTMINSTER ST'
p1186
I83
I15991
tp1187
sS'EDDY R2 04'
p1188
(g975
I78
I15834
tp1189
sS'WESTMINSTER RM17'
p1190
(g8
I90
I15991
tp1191
sS'WESTMINSTER, PROVIDENCE, TEL ELMHURST 1-5800Z DOWNTOWN OFFICE 20 WESTMINSTER. MT PLEASANT OFFICE 1082 CHALKSTONE, SIX OTHER CONVENIENT'
p1192
(g157
I58
I15991
tp1193
sS"WEY'BMSET;"
p1194
(g51
I67
I15992
tp1195
sS"PINE '"
p1196
(S'PINE ST'
p1197
I100
I15933
tp1198
sS'WILLARD AV.'
p1199
(S'WILLARD ST'
p1200
I100
I16545
tp1201
sS'WEYBOSSET, TEL GASPEE 1-1757'
p1202
(g51
I75
I15992
tp1203
sS'OLNEYVILLE SO'
p1204
(S'OLNEYVILLE SQ'
p1205
I96
I17978
tp1206
sS'WESTL, MINSTER'
p1207
(S'WESTMINSTER ST'
p1208
I85
I15991
tp1209
sS'POTTEFS AV'
p1210
(S'POTTERS AVE'
p1211
I86
I16786
tp1212
sS'D WEDNESDAYS AT'
p1213
(S'KENNEDY PLZ'
p1214
I52
I15887
tp1215
sS'MARCHANT CALCULATING MACHINE CO 74 WEVBOSSET'
p1216
(S'GALLATIN ST'
p1217
I50
I17216
tp1218
sS'WEYBOSSET VALENTINE LODGE NO 27, 266 WEY-'
p1219
(g589
I69
I15992
tp1220
sS'S BEAUTY SHOPPE 1812; BROAD'
p1221
(S'BEAUFORT ST'
p1222
I51
I17397
tp1223
sS'17 6'
p1224
(g665
I34
I16871
tp1225
sS'5 2 CRAWFORD SQ'
p1226
(S'BRADFORD ST'
p1227
I63
I15790
tp1228
sS'WEYBOSSET R35-38'
p1229
(g51
I86
I15992
tp1230
sS'OLNEYVILLE SY'
p1231
(g1205
I96
I17978
tp1232
sS'WEYBOSSET CENTRAL 296 ANGELI CENTRAL'
p1233
(g17
I70
I15992
tp1234
sS'203 WEYBOSSET'
p1235
(g46
I91
I15992
tp1236
sS'MAGNOLIA'
p1237
(S'MAGNOLIA ST'
p1238
I100
I17944
tp1239
sS"PEARL '607 POTTER'S AV"
p1240
(S'POTTER DR'
p1241
I71
I17294
tp1242
sS'3'
p1243
(S'3RD ST'
p1244
I50
I16873
tp1245
sS'297 WESTMINSTER'
p1246
(g8
I92
I15991
tp1247
sS'SNOW PROVIDENCE BUSINESS FINDER'
p1248
(S'PROVIDENCE PL'
p1249
I75
I17631
tp1250
sS'ABORN LST FL'
p1251
(S'ABORN ST'
p1252
I79
I15763
tp1253
sS'WASH *WESTCGTT CLINTON S 454 ANGELL *WESTCOTT NILES 305 BLACKSTONE BLVD . *WEY1ER HENRY L C 335 ANGELL *WHIPP1E RICHD K 122 WATERMAN *WHITMARSH ROBT H 154 ANGELL *WILCOX ROSWELL S 1374 EDDY *WILLIAMS HAROLD W 129 WATERMAN *WILLIAMS PEARL 371 BROAD'
p1254
(S'BLACKSTONE PL'
p1255
I55
I15784
tp1256
sS'FRANCIS'
p1257
(S'FRANCIS AVE'
p1258
I100
I16187
tp1259
sS'WESTMINSTER. TEL GASPEE'
p1260
(g157
I83
I15991
tp1261
sS'ANGELL A'
p1262
(g5
I93
I16022
tp1263
sS'SHID'
p1264
(S'SHIP ST'
p1265
I75
I15955
tp1266
sS'BYIIELD'
p1267
(g130
I86
I16607
tp1268
sS'SNOW RUTH LODGE NO 8, 48 SNOW'
p1269
(S'DODGE ST'
p1270
I52
I16148
tp1271
sS'CHESTNUT .LADIES AUXILIARY NO 18, 59 CHEST-'
p1272
(S'HILARY DR'
p1273
I46
I17529
tp1274
sS'ELMWOOD 21V'
p1275
(S'ELMWOOD AVE'
p1276
I89
I17207
tp1277
sS'EDDY R712A'
p1278
(S'EUDORA ST'
p1279
I43
I15842
tp1280
sS'BACK COV5ER) FIRE EXTINGUISHERS'
p1281
(g157
I46
I15991
tp1282
sS'WES'
p1283
(S'WEST ST'
p1284
I86
I15990
tp1285
sS"' EDDY"
p1286
(S'EDDY ST'
p1287
I100
I15834
tp1288
sS'JR 37 LENNON'
p1289
(S'LENNON ST'
p1290
I83
I17563
tp1291
sS'ATWELIS AV;'
p1292
(S'ATWELLS AVE'
p1293
I86
I15775
tp1294
sS"TURKS HEAD BLDG' 76 WESTMINSTER"
p1295
(g8
I77
I15991
tp1296
sS'2'
p1297
(S'2ND ST'
p1298
I50
I16872
tp1299
sS'PACIFIC WITHINGTON COMPANY 14-16 BLACKSTONE'
p1300
(S'WASHINGTON PL'
p1301
I59
I15986
tp1302
sS'ABBOTT PARK DI'
p1303
(S'ABBOTT PARK PL'
p1304
I93
I15762
tp1305
sS'WESTMINSTER R1024'
p1306
(g157
I89
I15991
tp1307
sS"UNION 7 TRUST BLAG 170 WESTMIRI'STER"
p1308
(g1134
I58
I15991
tp1309
sS'MAIN, PAWTUCKET, TEL PAWTUCKET 5-3 520'
p1310
(S'PAWTUXET AV'
p1311
I57
I16771
tp1312
sS'WESTMINSTER R1028'
p1313
(g157
I89
I15991
tp1314
sS'EX-'
p1315
(S'TEXAS AVE'
p1316
I57
I16490
tp1317
sS'WASH IV'
p1318
(S'WASHINGTON ST'
p1319
I86
I21700
tp1320
sS"WEY' BOSSET"
p1321
(g17
I87
I15992
tp1322
sS'PIL GRIM'
p1323
(S'PILGRIM DR'
p1324
I83
I16778
tp1325
sS'WICKENDEN'
p1326
(S'WICKENDEN ST'
p1327
I100
I15995
tp1328
sS'WESTMINS-'
p1329
(g733
I84
I15991
tp1330
sS"' CROSS"
p1331
(S'CROSS ST'
p1332
I100
I16129
tp1333
sS'MEGEE. CHESTER H KIRBY SEC'
p1334
(S'CHESTER AVE'
p1335
I72
I16619
tp1336
sS'ALMY'
p1337
(S'ALMY ST'
p1338
I100
I17741
tp1339
sS'CALVERLY'
p1340
(S'CALVERLY ST'
p1341
I100
I17419
tp1342
sS'CLIEORD 257'
p1343
(S'CLIFFORD ST'
p1344
I71
I15811
tp1345
sS'EXCHANGE PL SNOW'
p1346
(S'EXCHANGE ST'
p1347
I83
I15845
tp1348
sS'SNOW EAGLE LODGE NO 2, 48 SNOW NARRAGANSETT ENCAMPMENT NO 1,'
p1349
(S'NARRAGANSETT PKWY'
p1350
I68
I16746
tp1351
sS'OLNEYVILLE SQ R5-6'
p1352
(g368
I92
I17978
tp1353
sS"WEST'MINSTER RM"
p1354
(g8
I81
I15991
tp1355
sS'BENEFIT DYER CAMP NO 7, 176 BENEFIT'
p1356
(S'BENEFIT ST'
p1357
I67
I15781
tp1358
sS'REAL ESTATE INSURANCE SPECIALIZING IN FINE RESIDENTIAL PROPERTY'
p1359
(S'STERLING AVE'
p1360
I41
I18055
tp1361
sS'BENEFIT LST FL'
p1362
(S'BENEFIT ST'
p1363
I83
I15781
tp1364
sS'WEYI BOSSET'
p1365
(g46
I85
I15992
tp1366
sS'CHARLES G-ONTRACTORS-CONCRETE'
p1367
(S'MONTROSE ST'
p1368
I52
I17597
tp1369
sS'BROADWAY'
p1370
(S'BROADWAY ST'
p1371
I100
I15794
tp1372
sS'HOPE CHURCH OF THE SAVIOUR 517 N MAIN GRACE CHURCH, MATHEWSON COR'
p1373
(S'MATHEWSON ST'
p1374
I61
I15904
tp1375
sS'CHARLES RM1'
p1376
(g322
I89
I16096
tp1377
sS'WESTMINSTER R432'
p1378
(g157
I90
I15991
tp1379
sS"' CUSTOM HOUSE"
p1380
(S'CUSTOM HOUSE ST'
p1381
I100
I15820
tp1382
sS"THMIN' STER"
p1383
(g151
I63
I15991
tp1384
sS'WESTMIN-A STER'
p1385
(g151
I83
I15991
tp1386
sS"ALLEN'S"
p1387
(S'ALLENS AVE'
p1388
I81
I15768
tp1389
sS'D-ORRANCE'
p1390
(S'DORRANCE ST'
p1391
I93
I15829
tp1392
sS'SMITH PEOPLES NAZARENE 35 ASHMONT'
p1393
(S'PARENTE ST'
p1394
I48
I16389
tp1395
sS"INDUSTRIAL BANK BLDG 111 WESTMINSTER STREET, SERVICE OFFICE IN LOBBY, TEL JAC'KSON 1-3900"
p1396
(g157
I61
I15991
tp1397
sS'CRANSTON SMITH-STREET PRIMITIVE 530 SMITH SWEDISH 300 FRIENDSHIP'
p1398
(S'WEST FRIENDSHIP ST'
p1399
I67
I17345
tp1400
sS"MASOL'L"
p1401
(S'MASSO DR'
p1402
I73
I16322
tp1403
sS'WNWBOSSET'
p1404
(g46
I78
I15992
tp1405
sS'EDDY R702'
p1406
(g975
I81
I15834
tp1407
sS'DECHL'
p1408
(S'EDGEHILL RD'
p1409
I62
I16957
tp1410
sS'CHARLES POST NO 22, 628 ADMIRAL OWENS CONLON POST NO 23, 61'
p1411
(S'CHARLES ST'
p1412
I61
I16096
tp1413
sS'VEAZIE GRAND LODGE 49 WESTMINSTER'
p1414
(g77
I75
I15991
tp1415
sS'GLOBE'
p1416
(S'GLOBE ST'
p1417
I100
I15865
tp1418
sS'K JACKSON'
p1419
(g953
I94
I16253
tp1420
sS'NARRIS AV'
p1421
(S'HARRIS AVE'
p1422
I83
I15869
tp1423
sS'WASHINGTON R310'
p1424
(S'WASHINGTON ST'
p1425
I90
I15987
tp1426
sS'WESTMINSTER R48-49'
p1427
(g157
I88
I15991
tp1428
sS'I; ALLENS AV'
p1429
(g578
I93
I15768
tp1430
sS"ATW'ELLS AV"
p1431
(g1033
I83
I15775
tp1432
sS"ELMHURST AV'"
p1433
(S'ELMHURST AVE'
p1434
I100
I17482
tp1435
sS', UNION STATION'
p1436
(S'UNION STATION ST'
p1437
I100
I15978
tp1438
sS'MESGER'
p1439
(S'MESSER ST'
p1440
I83
I17961
tp1441
sS'WEYBOSSET VALENTINE LODGE NO 27, 266 WEYBOSSET WAYLAND LODGE 248 WEYBOSSET WESTMINSTER LODGE NO 78. 266 WEYBPSSET'
p1442
(g8
I59
I15991
tp1443
sS'ORMSBEE LST FL'
p1444
(S'ORMS ST'
p1445
I58
I16384
tp1446
sS', ADOLF LODGE NO 17'
p1447
(S'ADDEO ST'
p1448
I52
I17367
tp1449
sS'WEYBOSSET TEL GASPEE 1-9349'
p1450
(g51
I75
I15992
tp1451
sS'. WESTMINSTER'
p1452
(g8
I100
I15991
tp1453
sS"MILL. JOHNSTON R1 TEL JACKSON'1-2704 GSEE YELLOW PAGE"
p1454
(S'JOHNSON ST'
p1455
I58
I16707
tp1456
sS'ATWELLS AV;'
p1457
(g1293
I100
I15775
tp1458
sS'DIV, 176 BENEFLT'
p1459
(S'BENEFIT ST'
p1460
I70
I15781
tp1461
sS'WESTMINSTER, 121; HARRIS AV, PROVIDENCE-BILTMORE HOTEL, 68 DORRANCE, UNION STATION, 15 WESTMIN1 STER, LOBBY 111 DO TRAFFIC DEPT 36 EXCHANGE PL'
p1462
(g151
I57
I15991
tp1463
sS"AMY '"
p1464
(S'AMY ST'
p1465
I100
I16888
tp1466
sS'CHALKSTONE AV'
p1467
(S'CHALKSTONE AVE'
p1468
I100
I17433
tp1469
sS'MURRAY'
p1470
(S'MURRAY ST'
p1471
I100
I17968
tp1472
sS'W EXCHANGE FURNITURE DEALERS-SXEOORNDHAND'
p1473
(S'SHERIDAN ST'
p1474
I45
I18037
tp1475
sS'ATWELLS AV.'
p1476
(S'ATWELLS AVE'
p1477
I100
I15775
tp1478
sS'WESTMINSTER. 1131. GASPEE 1-8900'
p1479
(g157
I77
I15991
tp1480
sS'WESTMINSTER M 415'
p1481
(g8
I89
I15991
tp1482
sS"POTTER'S AV"
p1483
(S'POTTERS AVE'
p1484
I83
I16786
tp1485
sS'WESTMINSTER TEL TEMPLIA'
p1486
(g157
I82
I15991
tp1487
sS'PENNSYLVANIA'
p1488
(S'PENNSYLVANIA AVE'
p1489
I100
I16776
tp1490
sS'BELLEV116 AV'
p1491
(S'BELLEVUE AVE'
p1492
I71
I16051
tp1493
sS"N MAIN 4TH 'NEIL AGNES B 70 DAVIS 9NEIL MARIE B 70 DAVIS NEIL SARAH U 256 IVES 'NEILL ELLEN F 98 STANWOOD NEILL ETTA, 100 N MAIN 4TH 11 'NEILL ETTA 9 BRIDGHAM 'REILLY CATHERINE M 535 HOPE"
p1494
(S'CAROLINE ST'
p1495
I39
I16086
tp1496
sS"WESTMINSTER R11 TEL DEX'TIAR"
p1497
(g157
I78
I15991
tp1498
sS'WEYBOS-'
p1499
(g1118
I80
I15992
tp1500
sS'CHERRY'
p1501
(S'CHERRY ST'
p1502
I100
I16100
tp1503
sS'WESTMINSTER 23D 11 PROVIDENCE BUSINESS FINDER'
p1504
(g151
I69
I15991
tp1505
sS'ORMSBEE'
p1506
(S'ORMS ST'
p1507
I73
I16384
tp1508
sS'WEST-'
p1509
(S'WEST ST'
p1510
I100
I15990
tp1511
sS'DOYLE'
p1512
(S'DOYLE AVE'
p1513
I100
I16946
tp1514
sS'HART-'
p1515
(S'HART ST'
p1516
I100
I16991
tp1517
sS'DORRANCB'
p1518
(S'DORRANCE ST'
p1519
I88
I15829
tp1520
sS'VIRGINIA AV, TEL HOPKLNS 1-1550'
p1521
(S'VIRGINIA AVE'
p1522
I71
I16849
tp1523
sS'CLIFFORD'
p1524
(g1067
I100
I15811
tp1525
sS'GORDON'
p1526
(S'GORDON AVE'
p1527
I100
I16675
tp1528
sS'WESTMIM STER'
p1529
(g8
I77
I15991
tp1530
sS'MATHEWSON R206'
p1531
(g419
I89
I15904
tp1532
sS'85 WESTMINSTER'
p1533
(S'WESTMINSTER ST'
p1534
I94
I15991
tp1535
sS'MAIN, PAWTUCKET, TEL PAWTUCKET 2-0080'
p1536
(g1311
I57
I16771
tp1537
sS'EXCHANGE'
p1538
(S'EXCHANGE ST'
p1539
I100
I15845
tp1540
sS'FAIRNELD AV'
p1541
(S'FAIRFIELD AVE'
p1542
I82
I17851
tp1543
sS'MTPLEA-V SANT AV'
p1544
(S'PLEASANT AV'
p1545
I69
I16399
tp1546
sS"; MAWNE'Y"
p1547
(S'MAWNEY ST'
p1548
I91
I17261
tp1549
sS'WESTMINSTER TELS DEXTER 1180-1-2-3-4-5, BOSTON'
p1550
(g8
I69
I15991
tp1551
sS'N'
p1552
(S'NORTH CT'
p1553
I100
I15918
tp1554
sS"BUYERS' GUIDE RIGHT TOP LINES"
p1555
(g716
I51
I16075
tp1556
sS'BROAD EDGEWOOD'
p1557
(S'EDGEWOOD AV'
p1558
I86
I16650
tp1559
sS'STEEPLE'
p1560
(S'STEEPLE ST'
p1561
I100
I15962
tp1562
sS'THAYER;'
p1563
(S'THAYER ST'
p1564
I100
I17112
tp1565
sS'WEY-'
p1566
(S'DEWEY ST'
p1567
I75
I17197
tp1568
sS'N MAIN CHRIST EPISCOPAL CHURCH 909 EDDY CHURCH OF THE EPIPHANY 538 POT-'
p1569
(S'OPAL ST'
p1570
I36
I16763
tp1571
sS'WINTER'
p1572
(S'WINTER ST'
p1573
I100
I15999
tp1574
sS"WES'MZANSTER TEL JACKSON"
p1575
(g189
I62
I16308
tp1576
sS"KINSLEY AV, TEL GASPEE 1-5065; QUARRY DIVISION, FIRST STREET, BERKELEY, RI, TEL PAWTUCK'ET 3-3300"
p1577
(S'DIVISION ST'
p1578
I58
I17828
tp1579
sS'WESTMIPSTER'
p1580
(g462
I91
I15991
tp1581
sS'MATHEWSON METROPOLITAN MISSION 237 CRANSTON SWEDISH 300 FRIENDSHIP'
p1582
(S'METROPOLITAN RD'
p1583
I65
I17591
tp1584
sS"WEYBOSSET, TEL GASPEE 1-2700; 280 ATWELLS AV, TEL GASBEE 1-3244'AND 591 CHARLES, TEL GASBEE 1-5550"
p1585
(g51
I58
I15992
tp1586
sS'THAYER.'
p1587
(g659
I100
I17112
tp1588
sS'THAYER-'
p1589
(g659
I100
I17112
tp1590
sS'185 EDDY 5TH'
p1591
(g1030
I75
I15834
tp1592
sS'. CO INC'
p1593
(S'FINCH AVE'
p1594
I65
I16180
tp1595
sS"'DORRA.NCE GRAND LODGESTJOHN2S LODGE NO 1 MOUNT VERNON LODGE NO 4 WHAT CHEER LODGE NO 21 CORINTHIAN LODGE NO 27 ADELPHOI LODGE NO 33 REDWOOD LODGE NO 35 ORPHEUS LODGE NO 36 NESTELL LODGE NO 37"
p1596
(S'GLADSTONE ST'
p1597
I31
I16672
tp1598
sS'CHESTNUT CARPENTERS LOCAL NO 1192, 59'
p1599
(S'CARPENTER ST'
p1600
I67
I15801
tp1601
sS'22, 830'
p1602
(S'3RD ST'
p1603
I27
I16873
tp1604
sS'HOPE COUNCIL NO 398 TYLER COUNCIL NO 45 PROVIDENCE COUNCIL NO 95 FINNEGAN J A COUNCIL 320 VEAZIE'
p1605
(S'PROVIDENCE PL'
p1606
I61
I17631
tp1607
sS'38 WESTMINSTER'
p1608
(g8
I94
I15991
tp1609
sS'MATHEWSON R502'
p1610
(g419
I89
I15904
tp1611
sS',WEYBOSSE-T'
p1612
(g46
I94
I15992
tp1613
sS'PRINTERY OFFICE 80 CLIFFORD 225'
p1614
(S'PRINTERY ST'
p1615
I70
I16408
tp1616
sS"BWAY'"
p1617
(g442
I100
I21699
tp1618
sS'ETHAN'
p1619
(S'ETHAN ST'
p1620
I100
I17847
tp1621
sS'WEYBOSSET TEL, DEXTER 3883'
p1622
(g1043
I76
I15992
tp1623
sS'ALLENSFAV'
p1624
(g578
I80
I15768
tp1625
sS'N MAIN'
p1626
(S'NORTH MAIN ST'
p1627
I100
I15916
tp1628
sS'S ESSIODS'
p1629
(S'SESSIONS ST'
p1630
I73
I17098
tp1631
sS'. 255I; SMITH'
p1632
(S'SMITH ST'
p1633
I83
I16457
tp1634
sS'CHESTNUT AUTO LOCAL NO 1017, 59 CHESTNUT'
p1635
(S'CHESTNUT ST'
p1636
I67
I15807
tp1637
sS"HOSPITAL TRUST 'BLDG 15 WESTMINSTER"
p1638
(g77
I74
I15991
tp1639
sS'TURKS HEAD'
p1640
(S'TURKS HEAD PL'
p1641
I93
I15976
tp1642
sS'P1AINF1E1D'
p1643
(g422
I70
I17994
tp1644
sS'PLAT IIELD'
p1645
(S'PLAINFIELD ST'
p1646
I73
I17994
tp1647
sS'A WESTMINSTER'
p1648
(g462
I96
I15991
tp1649
sS"BRAVTON'AV"
p1650
(S'BRAYTON AVE'
p1651
I86
I15791
tp1652
sS'VIIFFMV'
p1653
(S'CLIFF ST'
p1654
I50
I17441
tp1655
sS'PLAINFIELD'
p1656
(S'PLAINFIELD ST'
p1657
I100
I17994
tp1658
sS'BENEM; 7'
p1659
(g488
I62
I15781
tp1660
sS"'EDDY"
p1661
(g1287
I100
I15834
tp1662
sS'DELAINE F *GANGES-DLAL INDICATOR DIMEN-'
p1663
(S'INDIA ST'
p1664
I47
I15883
tp1665
sS'9'
p1666
(S'I 95'
p1667
I53
I15881
tp1668
sS"' WEYBOSSET"
p1669
(g589
I100
I15992
tp1670
sS'ABBOTT PARK 01'
p1671
(S'ABBOTT PARK PL'
p1672
I93
I15762
tp1673
sS'BWAY ASSEMBLEA CHRISTIANA 61 TELL ASSEMBLY OF GOD CHURCH 68 ALTHEA BAHEFI SPIRITUAL ASSEMBLY 92 UNI-'
p1674
(S'CHRISTOPHER ST'
p1675
I37
I16102
tp1676
sS'EMPIRE RM5'
p1677
(g932
I87
I15840
tp1678
sS'BROOK'
p1679
(S'BROOK ST'
p1680
I100
I15795
tp1681
sS'LINCOLN BOSTON 11, MASS'
p1682
(S'LINCOLN AVE'
p1683
I74
I16283
tp1684
sS'BWAY .'
p1685
(g442
I100
I21699
tp1686
sS'ASPINWALL'
p1687
(S'RANDALL RD'
p1688
I63
I16415
tp1689
sS'VERS & BLEACHEFS OF AMERICA, 010 511 WESTMINSTER'
p1690
(g1534
I69
I15991
tp1691
sS'SNOW ST. GA 4848'
p1692
(S'SNOW ST'
p1693
I71
I15957
tp1694
sS'ALLEN S AV'
p1695
(g730
I81
I15768
tp1696
sS'SNOW MIANTONOMOH NO 7, 380 ELMWOOD'
p1697
(S'MANTON AVE'
p1698
I51
I17947
tp1699
sS'LAUREL'
p1700
(S'LAUREL AVE'
p1701
I100
I17018
tp1702
sS'WESTMIM'
p1703
(S'WEST ST'
p1704
I73
I15990
tp1705
sS'WEST EXCHANGE, 5TH FLOOR, TEL DEXTER 1-6241'
p1706
(S'WEST EXCHANGE ST'
p1707
I74
I15982
tp1708
sS"WESTMIN-' STER"
p1709
(g8
I87
I15991
tp1710
sS'HENDRICK FOR YEAR ENDING APRIL 1939'
p1711
(S'HENDRICK ST'
p1712
I68
I17526
tp1713
sS'461 S MAIN'
p1714
(S'SOUTH MAIN ST'
p1715
I91
I15948
tp1716
sS'WESTMINSTER R812'
p1717
(g157
I90
I15991
tp1718
sS'ANGELL'
p1719
(g5
I100
I16022
tp1720
sS'ALLEN2S AV'
p1721
(g578
I92
I15768
tp1722
sS'; CHALKSTONE AV'
p1723
(S'CHALKSTONE AVE'
p1724
I100
I17433
tp1725
sS'ANGELI'
p1726
(S'ANGELA CT'
p1727
I83
I16021
tp1728
sS'35 CAMP'
p1729
(S'CAMP ST'
p1730
I86
I16917
tp1731
sS'& SONS CO 49 V-WESTMINSTER'
p1732
(g257
I81
I15991
tp1733
sS"MTPLEA-' SANT AV"
p1734
(S'PLEASANT AV'
p1735
I72
I16399
tp1736
sS"EXCHANGE 'RM 311"
p1737
(S'EXCHANGE TER'
p1738
I87
I15846
tp1739
sS'-5800; DOWNTOWN OFFICE'
p1740
(S'DOWNING ST'
p1741
I52
I17202
tp1742
sS'MATHEWSOII'
p1743
(g630
I84
I15904
tp1744
sS"HOSPITAL TRUST BLDG' 15 WESTMINSTER"
p1745
(g181
I74
I15991
tp1746
sS'BRAYTONL AV'
p1747
(S'BRAYTON AVE'
p1748
I93
I15791
tp1749
sS'PAGE 13 FOR YEAR ENDING MARCH 1937'
p1750
(S'REDWING ST'
p1751
I53
I17302
tp1752
sS'WESTMINSTER R312'
p1753
(g157
I90
I15991
tp1754
sS'WESTMINSTER R606'
p1755
(g157
I90
I15991
tp1756
sS'WESTMINSTER R315'
p1757
(g157
I90
I15991
tp1758
sS'WESTMINSTER R314'
p1759
(g157
I90
I15991
tp1760
sS'WESTMINSTER R319'
p1761
(g157
I90
I15991
tp1762
sS'OAK'
p1763
(S'OAK ST'
p1764
I100
I17974
tp1765
sS'OEICE PLANT'
p1766
(S'OCEAN AV'
p1767
I61
I16756
tp1768
sS"W'ESTMINSTER"
p1769
(g8
I90
I15991
tp1770
sS'W EX-A CHANGE'
p1771
(S'WEST EXCHANGE ST'
p1772
I88
I15982
tp1773
sS'PECK'
p1774
(S'PECK ST'
p1775
I100
I15928
tp1776
sS'CENTRAL .'
p1777
(S'CENTRAL AVE'
p1778
I100
I16095
tp1779
sS'OLNEY'
p1780
(S'OLNEY ST'
p1781
I100
I16377
tp1782
sS"PINT'A"
p1783
(S'POINT ST'
p1784
I81
I15936
tp1785
sS'& ATWELLS AV'
p1786
(g1033
I100
I15775
tp1787
sS'WESTMMSTER 101 MANNING 7819-FOR FURTHER INFORMATION SEE PAGE 34 BUYERS7 GUIDE'
p1788
(S'NORMAN DR'
p1789
I42
I16362
tp1790
sS'GREENE TYLER COUNCIL NO 45, 14 GREENE ELMHURST COUNCIL NO 91. 14 GREENE PROVIDENCE COUNCIL NO 95, 14 GREENE J A FINNEGAN COUNCIL 320 VEAZIE'
p1791
(S'PROVIDENCE PL'
p1792
I58
I17631
tp1793
sS'ANGE LL'
p1794
(S'ANGELL RD'
p1795
I86
I16022
tp1796
sS'-SHIP'
p1797
(g1265
I100
I15955
tp1798
sS'DUDLEY'
p1799
(S'DUDLEY ST'
p1800
I100
I15830
tp1801
sS'CUSTOM'
p1802
(g224
I83
I15820
tp1803
sS'WEYBOSSET CENTRAL 296 ANGELL CENTRAL'
p1804
(g517
I70
I15992
tp1805
sS'4'
p1806
(S'4TH ST'
p1807
I50
I16874
tp1808
sS'GARNET'
p1809
(S'GARNET ST'
p1810
I100
I15862
tp1811
sS'; STORAGE C0 AGENTS) WORLDS LARGEST LONG DISTANCE MOVERS'
p1812
(S'OLD STONE SQ'
p1813
I48
I15919
tp1814
sS'INDUSTRIAL BANK BLDG. TEL DASBEE 1-8723'
p1815
(S'INDUSTRIAL DR'
p1816
I71
I16249
tp1817
sS'VALLEY'
p1818
(S'VALLEY ST'
p1819
I100
I17693
tp1820
sS'WEYBOSSET LOYAL LILY LODGE NO 6675. 320 VEAZIE ODD LADIES LOYAL HOPE LODGE NO 9619, 248 WEYBOSSETF'
p1821
(g17
I56
I15992
tp1822
sS'NARRLS AV'
p1823
(S'HARRIS AVE'
p1824
I67
I15869
tp1825
sS"WESTMINSTER TE DEXTER 2740-FOR FURTHER INFOMATION SEE PAGE 168 BUYERS' GUIDE"
p1826
(g77
I63
I15991
tp1827
sS'VANDEWATERZ'
p1828
(S'VANDEWATER ST'
p1829
I95
I16513
tp1830
sS'WESTMINSTER R 703;'
p1831
(g157
I89
I15991
tp1832
sS"WESTMINSTER TEI WEST 0114-F0R FURTHER INFORMATION SEE PAGE 46 BUYERS' GUIDE"
p1833
(g8
I63
I15991
tp1834
sS'ANGELL CIGARS-MFRS'
p1835
(g5
I75
I16022
tp1836
sS'WESTMINSTER PROVIDENCE BUSINESS FINDER'
p1837
(g947
I72
I15991
tp1838
sS'-1934-1-1935-886 PAGE KAPSTEM DANL'
p1839
(S'AMSTERDAM ST'
p1840
I46
I17745
tp1841
sS'WMTMINSTER RM'
p1842
(g380
I80
I15991
tp1843
sS'WALLING'
p1844
(S'WALLING ST'
p1845
I100
I21723
tp1846
sS'WESTMINSTER R46'
p1847
(g157
I92
I15991
tp1848
sS'DIKE LST FL'
p1849
(S'DIKE ST'
p1850
I76
I17827
tp1851
sS'WESTMINSTER R45'
p1852
(g157
I92
I15991
tp1853
sS'ATWOM'
p1854
(S'ATWOOD AVE'
p1855
I73
I16037
tp1856
sS'MOORETIELD'
p1857
(S'MOOREFIELD ST'
p1858
I90
I17965
tp1859
sS'PENN .'
p1860
(S'PENN ST'
p1861
I100
I17989
tp1862
sS'FENNER RM3 PROVIDENCE BUSINESS FINDER'
p1863
(g227
I72
I17631
tp1864
sS'OAK LST FL'
p1865
(S'OAK ST'
p1866
I73
I17974
tp1867
sS'PLAINTIELD'
p1868
(g1646
I90
I17994
tp1869
sS'189 MATHEWSON'
p1870
(S'MATHEWSON ST'
p1871
I91
I15904
tp1872
sS'I O R M 59 CHESTNUT'
p1873
(g72
I79
I15807
tp1874
sS"DORRANCE STJOHNS LODGE NO 1. 127 DORRANC'E MTVERNON LODGE NO 4. 127 DORRANCE WHAT CHEER LODGE NO 21, 127 DORRANCE CORINTHIAN LODGE NO 27. 127 DORRANCE ADELPHOI LODGE NO 33, 127 DORRANCE"
p1875
(S'CORINTH ST'
p1876
I44
I17186
tp1877
sS'WESTMINSTER RHODE ISLAND STATE COUNCIL 48'
p1878
(g752
I71
I15991
tp1879
sS'ED DY'
p1880
(g1030
I78
I15834
tp1881
sS'CHURCH'
p1882
(S'CHURCH ST'
p1883
I100
I16103
tp1884
sS'A CHARLES'
p1885
(g322
I94
I16096
tp1886
sS'BENEFIT *HA.MMOND ROLAND'
p1887
(S'BENEFIT ST'
p1888
I73
I15781
tp1889
sS"ANGELL '.*CHANA.S BENEDICT 341 SMITH"
p1890
(S'BENEDICT ST'
p1891
I68
I16053
tp1892
sS',210 BWAY'
p1893
(g358
I83
I21699
tp1894
sS'CARPENTERESEE PAGE 174'
p1895
(S'CARPENTER ST'
p1896
I70
I15801
tp1897
sS'FRIENDSHIP LST FL'
p1898
(S'FRIENDSHIP ST'
p1899
I87
I15858
tp1900
sS'5'
p1901
(g1667
I53
I15881
tp1902
sS"ATWELLS AV'"
p1903
(g1033
I100
I15775
tp1904
sS"128 DO'RRANCE"
p1905
(S'DORRANCE ST'
p1906
I81
I15829
tp1907
sS'WESTMINSTER R1032'
p1908
(g157
I89
I15991
tp1909
sS'SUTTON'
p1910
(S'SUTTON ST'
p1911
I100
I15966
tp1912
sS'AT. WELLS AV'
p1913
(S'ATWELLS AVE'
p1914
I88
I15775
tp1915
sS'WESTMINSTER R33'
p1916
(g157
I92
I15991
tp1917
sS'; LOAN ASSOCIATION OF PROVIDENCE'
p1918
(g557
I54
I15978
tp1919
sS"WEYBOSSE'T"
p1920
(g46
I94
I15992
tp1921
sS'38 DIKE LST FL'
p1922
(g1850
I72
I17827
tp1923
sS'BENEFIT ORG ANIZATIONS-POLITICAL'
p1924
(S'COMMUNICATIONS PL'
p1925
I58
I15813
tp1926
sS'830 WESTMINSTER'
p1927
(g8
I92
I15991
tp1928
sS'I ADMIRAL'
p1929
(S'ADMIRAL ST'
p1930
I94
I16005
tp1931
sS'MATHEWSON R711'
p1932
(g419
I89
I15904
tp1933
sS'TURKS HEAD BLDG 76 WESTMINSTER. TEL DEXTER 1-5045'
p1934
(g157
I68
I15991
tp1935
sS'TURKS HEAD BLDG 76 WESTMINSTER, TEL GASPEE 1-8900'
p1936
(g157
I68
I15991
tp1937
sS'EDDY GLOBE STREETS'
p1938
(S'POINT STREET BRG'
p1939
I69
I16403
tp1940
sS"SANITAS WALL-TEX WALL W001 WILLIAM'S WATCH REPAIRING"
p1941
(S'COLD SPRING ST'
p1942
I45
I16927
tp1943
sS'CATAJPA. RD'
p1944
(S'CATALPA RD'
p1945
I88
I16920
tp1946
sS'OCEAH'
p1947
(g1767
I80
I16756
tp1948
sS'CAPOBIANCO SILVIO'
p1949
(S'BIANCO CT'
p1950
I63
I17773
tp1951
sS"BUYERS' GUIDE"
p1952
(g192
I63
I16606
tp1953
sS'PLAIN-'
p1954
(S'PLAIN ST'
p1955
I100
I15934
tp1956
sS'WESTMINSTER R518'
p1957
(g157
I90
I15991
tp1958
sS'BWAY MM 301'
p1959
(g442
I76
I21699
tp1960
sS'EXCHANGE PL SPORTING GOODS MFRS'
p1961
(g999
I75
I15846
tp1962
sS"WEYBOS'SET"
p1963
(g46
I87
I15992
tp1964
sS'BENEFLT'
p1965
(g488
I86
I15781
tp1966
sS'MATHEWSON. TEL GASPEE 145250 SEE YELLOW PAGE 40)'
p1967
(g419
I66
I15904
tp1968
sS'EAGLE1'
p1969
(S'EAGLE ST'
p1970
I91
I17477
tp1971
sS'FOUN-F TAIN'
p1972
(S'FOUNTAIN ST'
p1973
I75
I15853
tp1974
sS'WESTMINSTER R514'
p1975
(g157
I90
I15991
tp1976
sS'WESTMINSTER TEL GASPEEV1-9870'
p1977
(g157
I77
I15991
tp1978
sS'WESTMINSTER R516'
p1979
(g157
I90
I15991
tp1980
sS'SHARON'
p1981
(S'SHARON DR'
p1982
I100
I16447
tp1983
sS'ELM-'
p1984
(S'ELM ST'
p1985
I100
I15837
tp1986
sS'EDDY FLYNN FRANK MFG CO'
p1987
(S'LYNN AV'
p1988
I59
I16719
tp1989
sS'187 WICKENDEN'
p1990
(g1327
I91
I15995
tp1991
sS"RHODES '"
p1992
(S'RHODES ST'
p1993
I100
I15945
tp1994
sS'WESTMINSTER ,'
p1995
(g151
I100
I15991
tp1996
sS'HOSPITAL'
p1997
(S'HOSPITAL ST'
p1998
I100
I15878
tp1999
sS'WESTMINSTER OCE PIETRO 347 POINT'
p2000
(g77
I75
I15991
tp2001
sS'FIRST FLOOR 10 WEYBOSSET'
p2002
(g319
I77
I15992
tp2003
sS"WWE'YBDSSET"
p2004
(g960
I77
I15992
tp2005
sS'B CO 185 EDDY'
p2006
(S'EDDY ST'
p2007
I73
I15834
tp2008
sS"'PINE"
p2009
(S'PINE ST'
p2010
I100
I15933
tp2011
sS'BENEFIT DYER CAMP N0 7, 176 BENEFIT'
p2012
(S'BENEFIT ST'
p2013
I67
I15781
tp2014
sS'A; ATWOOD'
p2015
(g1855
I93
I16037
tp2016
sS'262-264 WEYBOSSET'
p2017
(g91
I84
I15992
tp2018
sS"' FOR FURTHER INFORMATION SEE PAGE"
p2019
(g1789
I51
I16362
tp2020
sS'BROAD AMERICAN FEDERATION OF LABOR, R I STATE BRANCH 77 WASH'
p2021
(S'FEDERAL ST'
p2022
I46
I15848
tp2023
sS'WESTMINSTER ; RM11210'
p2024
(g151
I86
I15991
tp2025
sS'WESTMINSTER R212'
p2026
(g157
I90
I15991
tp2027
sS'MAPLE , PAWTUCKET, TEL PAWTUCKET 5-5600'
p2028
(g1311
I57
I16771
tp2029
sS'HOPE; HOPKINS SQUARE; OLNEYVILLE SQUARE; WASHINGTON PARK'
p2030
(g368
I69
I17978
tp2031
sS'STEVENS TEL'
p2032
(S'STEUBEN ST'
p2033
I63
I18056
tp2034
sS'CLEMENCE'
p2035
(S'CLEMENCE ST'
p2036
I100
I15810
tp2037
sS'SMITH'
p2038
(S'SMITH ST'
p2039
I100
I16457
tp2040
sS"WEYBOSSET RM'12"
p2041
(g46
I87
I15992
tp2042
sS'.8 MAIN'
p2043
(S'MAIDEN LN'
p2044
I73
I15899
tp2045
sS'CLIFFORD 3DFL'
p2046
(S'CLIFFORD ST'
p2047
I88
I15811
tp2048
sS'DOUGLA AV'
p2049
(S'DOUGLAS AVE'
p2050
I92
I16154
tp2051
sS'JEFFERSON'
p2052
(S'JEFFERSON ST'
p2053
I100
I17548
tp2054
sS'-60 TAFT AV'
p2055
(S'TAFT AVE'
p2056
I86
I16484
tp2057
sS'WILLARD AV'
p2058
(S'WILLARD ST'
p2059
I100
I16545
tp2060
sS'WESTMINSTER, TEL GASPEE 1-8900'
p2061
(g157
I77
I15991
tp2062
sS'MASSASOIT AV, E PROV'
p2063
(S'MASSASOIT AVE'
p2064
I79
I16726
tp2065
sS'WINTBR'
p2066
(S'WINTER ST'
p2067
I83
I15999
tp2068
sS'WEST MINSTER'
p2069
(g8
I87
I15991
tp2070
sS'DYER SHOE MFRS'
p2071
(S'DYER ST'
p2072
I72
I15831
tp2073
sS'A513 WINCHESTER HERBERT B ARCADE BLDG RM INC'
p2074
(S'WINCHESTER ST'
p2075
I68
I16547
tp2076
sS'ATWELLS AV'
p2077
(S'ATWELLS AVE'
p2078
I100
I15775
tp2079
sS'WESTMINSTER MI'
p2080
(g8
I94
I15991
tp2081
sS"NARRAGAN' SETT AV"
p2082
(S'NARRAGANSETT ST'
p2083
I88
I16747
tp2084
sS'EDDY'
p2085
(S'EDDY ST'
p2086
I100
I15834
tp2087
sS"WESTMINSTER, ROOM 1601, TEL GASPEE 1-1274'"
p2088
(g157
I72
I15991
tp2089
sS"RICP; ' MOND"
p2090
(S'RICHMOND ST'
p2091
I66
I15946
tp2092
sS'PRAIRIE AV'
p2093
(g477
I100
I16787
tp2094
sS'AD-'
p2095
(S'ADA ST'
p2096
I80
I16003
tp2097
sS'THAYER AV'
p2098
(g659
I100
I17112
tp2099
sS', 241'
p2100
(g680
I33
I16871
tp2101
sS'BENEFIT ARNOLDS RELIEF CORPS NO 22, 48'
p2102
(S'BENEFIT ST'
p2103
I66
I15781
tp2104
sS'I CRANSP'
p2105
(S'CRANSTON ST'
p2106
I67
I15817
tp2107
sS'FAMOUS PUBLIC ROOMS SERVING FOOD BEVERAGES'
p2108
(S'EVERGREEN ST'
p2109
I45
I16966
tp2110
sS'ALLERFS AV'
p2111
(g578
I77
I15768
tp2112
sS'NARRAGANSETT A BLVD'
p2113
(S'NARRAGANSETT BLVD'
p2114
I97
I16745
tp2115
sS'ELMWOOD AV'
p2116
(g1276
I100
I17207
tp2117
sS'ANGELL CIGAR MIRS'
p2118
(S'ANGELL RD'
p2119
I76
I16022
tp2120
sS'J OHN'
p2121
(S'JOHN ST'
p2122
I87
I16259
tp2123
sS'HILTON BOITLERS-MINERAL SPRING & DIS-'
p2124
(S'SILVER SPRING ST'
p2125
I52
I16454
tp2126
sS'MASONF TEL PLAXITATIONS'
p2127
(g557
I56
I15978
tp2128
sS'; BEACON AV'
p2129
(S'BEACON AVE'
p2130
I100
I15779
tp2131
sS'BAKER PROVIDENCE BUSINESS FINDER'
p2132
(S'PROVIDENCE ST'
p2133
I74
I17299
tp2134
sS"AT' WELLS AV"
p2135
(g1033
I88
I15775
tp2136
sS'HOSPITAL TRUST BLDG 15 WESTMINSTER, TEL DEXTER 1-8011'
p2137
(g157
I67
I15991
tp2138
sS'THAYER 55'
p2139
(S'THAYER ST'
p2140
I90
I17112
tp2141
sS'MEET-'
p2142
(S'MEETING ST'
p2143
I73
I15907
tp2144
sS'ACADEMY AV'
p2145
(S'ACADEMY AVE'
p2146
I100
I17365
tp2147
sS'WESTMINSTER RM". 1411'
p2148
(g8
I86
I15991
tp2149
sS'WEYBOSSET R6 03'
p2150
(g51
I87
I15992
tp2151
sS', 32'
p2152
(S'2ND ST'
p2153
I40
I16872
tp2154
sS'BUCKLIN.'
p2155
(S'BUCKLIN ST'
p2156
I100
I17171
tp2157
sS'BROADWAY R28'
p2158
(g1371
I90
I15794
tp2159
sS'WATERMAN *HAMILTON JAS'
p2160
(S'WATERMAN ST'
p2161
I77
I15988
tp2162
sS'VVESTMINSTER'
p2163
(g77
I87
I15991
tp2164
sS'PINIE'
p2165
(S'PINE ST'
p2166
I89
I15933
tp2167
sS'RICHMAND'
p2168
(S'RICHMOND ST'
p2169
I88
I15946
tp2170
sS"BEACON' AV"
p2171
(S'BEACON AVE'
p2172
I100
I15779
tp2173
sS'HOPE'
p2174
(S'HOPE ST'
p2175
I100
I15875
tp2176
sS'; LOAN A880CIATION'
p2177
(g557
I55
I15978
tp2178
sS'INDUSTRIAL BANK BLDG 111 WESTMINSTER, TEL DEXTER 1-2740'
p2179
(g157
I67
I15991
tp2180
sS'HUNTINGTON AV'
p2181
(S'HUNTINGTON AVE'
p2182
I100
I17236
tp2183
sS"RICHMOND ALLEN'S AV"
p2184
(S'RICHMOND SQ'
p2185
I82
I17086
tp2186
sS'BENEM;'
p2187
(g488
I67
I15781
tp2188
sS'; COMMODORE'
p2189
(S'COMMODORE ST'
p2190
I100
I16115
tp2191
sS'EDDY POST 592 MCKENNA-MCALLISTER POST 300 PLAINFIELD'
p2192
(S'CARLISLE ST'
p2193
I45
I17177
tp2194
sS'VINTON 1ST 11'
p2195
(S'VINTON ST'
p2196
I81
I15981
tp2197
sS'DORRANCE'
p2198
(S'DORRANCE ST'
p2199
I100
I15829
tp2200
sS'WESTMINS; . TER'
p2201
(g1186
I90
I15991
tp2202
sS'WEYBOSSET TELS GASPEE'
p2203
(g51
I80
I15992
tp2204
sS'BENEFIT'
p2205
(S'BENEFIT ST'
p2206
I100
I15781
tp2207
sS'PM TUESDAYS BY APPDINTMENT'
p2208
(S'MANOMET ST'
p2209
I46
I17583
tp2210
sS'DORRANCE MTVERNON LODGE NO 4, 127 DORRANCE'
p2211
(S'DORRANCE PLZ'
p2212
I69
I15828
tp2213
sS',WEYBOSSET'
p2214
(g46
I100
I15992
tp2215
sS'BEACON AV'
p2216
(g2130
I100
I15779
tp2217
sS'CONPEAS AV'
p2218
(S'COES ST'
p2219
I73
I16108
tp2220
sS'POINT LST FL'
p2221
(S'POINT ST'
p2222
I79
I15936
tp2223
sS'CHARLES A'
p2224
(g322
I94
I16096
tp2225
sS'CHARLES BLDZ 24'
p2226
(S'CHARLES ST'
p2227
I82
I16096
tp2228
sS'WEYBOSSET JOHN BECKER COUNCIL NO'
p2229
(g91
I72
I15992
tp2230
sS'OAKLAND AV'
p2231
(S'OAKLAND AVE'
p2232
I100
I17609
tp2233
sS'WESTMINSTER R601'
p2234
(g157
I90
I15991
tp2235
sS'WEYBOSSET, TEL GASPEE 8488'
p2236
(g51
I76
I15992
tp2237
sS"A'NGELL"
p2238
(g5
I91
I16022
tp2239
sS'URKE HELEN MRS,100 N MAIN'
p2240
(S'HELEN ST'
p2241
I64
I16690
tp2242
sS', 48'
p2243
(S'4TH ST'
p2244
I40
I16874
tp2245
sS'WESTMINSTER. TEIS GASNEE'
p2246
(g157
I82
I15991
tp2247
sS'MOULTON'
p2248
(S'MOULTON LN'
p2249
I100
I15913
tp2250
sS"A'CADEMY AV"
p2251
(g1100
I92
I17365
tp2252
sS'WESTMINSTER RNI 329'
p2253
(g462
I86
I15991
tp2254
sS"&63 PAWTUCK'ET AV. EAST PROVI DENCE;"
p2255
(g1311
I50
I16771
tp2256
sS'TAPPANSEE LEFT BOTTOM LINES AND PAGE 36 BUYERS4 GUIDE'
p2257
(S'TAPPAN ST'
p2258
I50
I17680
tp2259
sS'SHOW'
p2260
(S'SNOW ST'
p2261
I75
I15957
tp2262
sS'WESTMINSTER STWILHELM COURT NO 146, 1929'
p2263
(g520
I72
I15991
tp2264
sS'WESTN'
p2265
(g1284
I89
I15990
tp2266
sS'CRANSTON *PRINTERS--CATALOG'
p2267
(S'CRANSTON ST'
p2268
I74
I15817
tp2269
sS'POINT,'
p2270
(S'POINT ST'
p2271
I100
I15936
tp2272
sS'ASHTON LST FL'
p2273
(S'ASHTON ST'
p2274
I81
I16033
tp2275
sS'CHARLES 5'
p2276
(g322
I94
I16096
tp2277
sS'; ELMWOOD AV'
p2278
(g835
I100
I17207
tp2279
sS"-2704 BEE YELLOW' PAG'E45 LEFT BOTTOM LINES)"
p2280
(S'LONGFELLOW TER'
p2281
I46
I17252
tp2282
sS'BWAY GESUE CARDUCCO LODGE 625, 210 BWAY'
p2283
(S'CAROL CT'
p2284
I42
I17794
tp2285
sS"TELGASPEE 9008-FOR TURTHER INFORMATION SEE PAGE 39' BUYERS GUIDE"
p2286
(g1170
I44
I16362
tp2287
sS'WEST; MINSTER'
p2288
(g733
I87
I15991
tp2289
sS'WEYB08SET'
p2290
(g46
I78
I15992
tp2291
sS'BENEFIT AUXILIARY OF ALLYN K CAPRON CAMP'
p2292
(S'HILARY DR'
p2293
I44
I17529
tp2294
sS'WESTMINSTER COURT WHAT CHEER NO 3737, 59 CHESTNUT COMPANION COURT HARRIET NO 726 1929 WESTMINSTER'
p2295
(g8
I60
I15991
tp2296
sS'WESTMINSTER R412'
p2297
(g157
I90
I15991
tp2298
sS'26 CUSTOM'
p2299
(S'CUSTOM HOUSE ST'
p2300
I78
I15820
tp2301
sS'KNIGHT'
p2302
(g653
I100
I15890
tp2303
sS'SNOW'
p2304
(S'SNOW ST'
p2305
I100
I15957
tp2306
sS'BUTTON MFRS'
p2307
(S'SUTTON ST'
p2308
I71
I15966
tp2309
sS'MALLETT'
p2310
(S'MAPLE ST'
p2311
I67
I15900
tp2312
sS'ACORN.'
p2313
(S'ACORN ST'
p2314
I100
I15764
tp2315
sS'ACORN-'
p2316
(g2314
I100
I15764
tp2317
sS'W EXCHANGE'
p2318
(S'WEST EXCHANGE ST'
p2319
I100
I15982
tp2320
s.