(dp0
S'BQ POCASSET AVE'
p1
(S'POCASSET AVE'
p2
I94
I17995
tp3
sS'HOSPITAL TRUST PLAZA, SUITE 2700'
p4
(S'HOSPITAL ST'
p5
I76
I15878
tp6
sS'PLAIN-ST'
p7
(S'PLAIN ST'
p8
I100
I15934
tp9
sS'HOWARD BLDG'
p10
(S'NORTH HOWARD AVE'
p11
I76
I16363
tp12
sS"NIM'GRET AVE"
p13
(S'GREAT VIEW AVE'
p14
I75
I16211
tp15
sS'W EXCHANGE ST'
p16
(S'WEST EXCHANGE ST'
p17
I100
I15982
tp18
sS'ALICE ST'
p19
(S'ARLINE ST'
p20
I77
I17383
tp21
sS'BUCKLLN ST'
p22
(S'BUCKLIN ST'
p23
I88
I17171
tp24
sS'WESTMINSTER STRM524'
p25
(S'WESTMINSTER ST'
p26
I92
I15991
tp27
sS"ELMG'ROVE AVE"
p28
(S'ELMGROVE AVE'
p29
I81
I16960
tp30
sS'4'
p31
(S'4TH ST'
p32
I39
I16874
tp33
sS'CRZIRY ST'
p34
(S'CRARY ST'
p35
I77
I15818
tp36
sS'TUMER ST'
p37
(S'SUMMER ST'
p38
I77
I15965
tp39
sS'KENNEDY PLAZA RM 400'
p40
(S'KENNEDY PLZ'
p41
I85
I15887
tp42
sS'86 ELMGROVE AVE'
p43
(g29
I94
I16960
tp44
sS'GILLAN ST'
p45
(S'GILLEN ST'
p46
I86
I16203
tp47
sS'DORRANOE ST'
p48
(S'DORRANCE ST'
p49
I89
I15829
tp50
sS'MANBON AVE'
p51
(S'MANTON AVE'
p52
I86
I17947
tp53
sS'KENNEDY PLAZA RM 407'
p54
(g41
I85
I15887
tp55
sS'TH FL'
p56
(g32
I67
I16874
tp57
sS'VEDNA ST'
p58
(S'EDNA ST'
p59
I91
I17841
tp60
sS'SERVICE STATION 800 CHARLES ST'
p61
(S'SERVICE ROAD 7'
p62
I75
I15954
tp63
sS'S COUNTY TRAIL'
p64
(S'COUNTY ST'
p65
I79
I16126
tp66
sS'VALLEY .ST'
p67
(S'VALLEY ST'
p68
I100
I17693
tp69
sS'CRANSBON ST'
p70
(S'CRANSTON ST'
p71
I89
I15817
tp72
sS'WESTMINSTER MALL RM 903'
p73
(g26
I82
I15991
tp74
sS'WESTMINSTER STRM200'
p75
(g26
I92
I15991
tp76
sS'WESTMINSTER STRM606'
p77
(g26
I92
I15991
tp78
sS'A MANTON AVE'
p79
(g52
I95
I17947
tp80
sS'WILLIAM ST'
p81
(S'WILLIAMS ST'
p82
I94
I15997
tp83
sS'DIMAN P1'
p84
(S'DIMAN PL'
p85
I94
I16943
tp86
sS'0'
p87
(S'10TH ST'
p88
I32
I16868
tp89
sS'TH FL HOWARD BLDG'
p90
(g11
I80
I16363
tp91
sS'8'
p92
(S'8TH ST'
p93
I39
I16878
tp94
sS'W BROAD ST'
p95
(S'BROAD ST'
p96
I88
I15793
tp97
sS'106 BOYD AVE'
p98
(S'BOYD ST'
p99
I76
I17410
tp100
sS'7'
p101
(S'7TH ST'
p102
I39
I16877
tp103
sS'MT HOPE AVE'
p104
(S'HOPE ST'
p105
I78
I15875
tp106
sS'PLAINFLEID ST'
p107
(S'PLAINFIELD ST'
p108
I82
I17994
tp109
sS'IMERA AVE'
p110
(S'IMERA ST'
p111
I85
I17908
tp112
sS'CRANSTON ST.'
p113
(g71
I100
I15817
tp114
sS'D FL'
p115
(S'FALLS PL'
p116
I45
I15847
tp117
sS'XFORDST'
p118
(S'OXFORD ST'
p119
I82
I16764
tp120
sS'TERMINAL WAY'
p121
(S'TERMINAL RD'
p122
I89
I16838
tp123
sS'HOSPITAL TRUST TOWER PROVIDENCE, RI 02903'
p124
(S'PROVIDENCE ST'
p125
I71
I17299
tp126
sS'WESTMINSTER STRM 1908'
p127
(g26
I90
I15991
tp128
sS'PARKJS AVE'
p129
(S'PARKIS AVE'
p130
I86
I17282
tp131
sS'ELMGR OVE AVE'
p132
(g29
I86
I16960
tp133
sS'RANDALL SQ SUITE 402'
p134
(S'RANDALL SQ'
p135
I83
I16416
tp136
sS"CHALKSTONE ' AVE"
p137
(S'CHALKSTONE AVE'
p138
I100
I17433
tp139
sS'TURKS HEAD BLDG, 76 WESTMINSTER ST'
p140
(g26
I80
I15991
tp141
sS'WEVBOSSET ST'
p142
(S'WEYBOSSET ST'
p143
I90
I15992
tp144
sS'V; HOPE ST'
p145
(g105
I94
I15875
tp146
sS'PLAINFIELD PIKE'
p147
(g108
I89
I17994
tp148
sS'HOSPITAL TRUST TOWER'
p149
(g5
I85
I15878
tp150
sS'ZCOINC22OSMAINST2D'
p151
(S'CONCORD ST'
p152
I49
I16119
tp153
sS'U S W A 4 PONTIAC AVE'
p154
(S'PONTIAC AVE'
p155
I78
I17292
tp156
sS'WEYBOSAET ST'
p157
(g143
I90
I15992
tp158
sS'37 CLEMENCE ST'
p159
(S'CLEMENCE ST'
p160
I94
I15810
tp161
sS'OLNEYVILLE SQUL'
p162
(S'OLNEYVILLE SQ'
p163
I96
I17978
tp164
sS'A F LG I O 170 WESTMINSTER ST'
p165
(g26
I82
I15991
tp166
sS'DYER AVE'
p167
(S'DYER ST'
p168
I83
I15831
tp169
sS'CANDY CO 49 RATHBONE ST'
p170
(S'RATHBONE ST'
p171
I82
I17637
tp172
sS'WASHINAN ST'
p173
(S'WASHINGTON ST'
p174
I80
I15987
tp175
sS'WESTMINSTEY ST'
p176
(g26
I92
I15991
tp177
sS'BLANDING RD,'
p178
(S'BLAINE ST'
p179
I65
I16061
tp180
sS'HONE ST'
p181
(S'THORNE ST'
p182
I84
I17682
tp183
sS'PRINCETON AVE'
p184
(S'PRINCETON AV'
p185
I98
I17298
tp186
sS'KENNEDY PLAZA RM 405'
p187
(g41
I85
I15887
tp188
sS'A WATERMAN ST'
p189
(S'WATERMAN ST'
p190
I96
I15988
tp191
sS'WATERMAN STA'
p192
(g190
I98
I15988
tp193
sS'DRYDEN LA'
p194
(S'DRYDEN LN'
p195
I94
I16156
tp196
sS'TAN DRIVE'
p197
(S'WEST RIVER ST'
p198
I67
I16541
tp199
sS'RANDALL SQ SUITE 307'
p200
(g135
I83
I16416
tp201
sS'BENEIIT ST'
p202
(S'BENEFIT ST'
p203
I88
I15781
tp204
sS'226 LABAN ST'
p205
(S'LABAN ST'
p206
I90
I17924
tp207
sS'WHITTIER RD'
p208
(S'WHITTIER AVE'
p209
I89
I18107
tp210
sS"VAI'IETY STORE 777 BROAD ST"
p211
(S'POINT STREET BRG'
p212
I60
I16403
tp213
sS'ABOM ST'
p214
(S'ABORN ST'
p215
I73
I15763
tp216
sS'WELFARE FUND 340 LOCKWOOD ST'
p217
(S'LOCKWOOD ST'
p218
I78
I15895
tp219
sS'INDUSTRIAL PARK'
p220
(S'INDUSTRIAL DR'
p221
I93
I16249
tp222
sS'BROADWAY'
p223
(S'BROADWAY ST'
p224
I92
I15794
tp225
sS'ISLAND CHESS CLUB 681'
p226
(S'RHODE ISLAND COLL'
p227
I73
I17643
tp228
sS"DORRANCE S'. RM 510"
p229
(g49
I84
I15829
tp230
sS'MEWELF ST'
p231
(S'JEWELL ST'
p232
I72
I17911
tp233
sS'A CHALKSTONE AVE'
p234
(g138
I96
I17433
tp235
sS'SUNBE ST'
p236
(S'JUNE ST'
p237
I73
I16264
tp238
sS'FUNERAL HOME 260 ELMWOOD AVE'
p239
(S'MINERAL SPRING AV'
p240
I55
I16343
tp241
sS'-517 ATWELLA AVE'
p242
(S'ATWELLS AVE'
p243
I81
I15775
tp244
sS'WESTMINSTER STRM638'
p245
(g26
I92
I15991
tp246
sS'PLAINTIELD ST'
p247
(g108
I91
I17994
tp248
sS'S WATER ST'
p249
(S'SOUTH WATER ST'
p250
I100
I15949
tp251
sS"A'GOVEMOR ST"
p252
(S'GOVERNOR ST'
p253
I79
I16983
tp254
sS'ANSELL ST'
p255
(S'ANGELL ST'
p256
I86
I16890
tp257
sS'CHARMING AVE'
p258
(S'HARDING AVE'
p259
I83
I16686
tp260
sS'DANCE ST'
p261
(S'DIANE ST'
p262
I84
I16144
tp263
sS"CL'OVE ST"
p264
(S'CLOVE ST'
p265
I84
I17442
tp266
sS'DON- ST'
p267
(S'DON AVE'
p268
I81
I16149
tp269
sS'OAK ST,'
p270
(S'OAK ST'
p271
I100
I17974
tp272
sS'B POMFRET ST'
p273
(S'SOMERSET ST'
p274
I68
I17325
tp275
sS'DORRANEE ST'
p276
(g49
I89
I15829
tp277
sS'275 HARTFORD AVE'
p278
(S'HARTFORD AVE'
p279
I93
I17889
tp280
sS'ATWELLA AVE'
p281
(g243
I88
I15775
tp282
sS'J ACKSON WALKWAY'
p283
(S'JACKSON WALKWAY'
p284
I63
I15884
tp285
sS'TOWNER ST'
p286
(S'TOWER ST'
p287
I92
I16841
tp288
sS'EDDYSTRM306'
p289
(S'EDDY ST'
p290
I60
I15834
tp291
sS'WATERMAN STRM500'
p292
(g190
I90
I15988
tp293
sS'PEAZL ST'
p294
(S'PEARL ST'
p295
I84
I16775
tp296
sS'SELINA ST'
p297
(S'SALINA ST'
p298
I86
I17658
tp299
sS'WESTMINSTER STRM47'
p300
(g26
I94
I15991
tp301
sS'WESTMINSBER ST'
p302
(g26
I92
I15991
tp303
sS"'TOO1 & DIE INC 387 CHARLES ST"
p304
(S'CHARLES ST'
p305
I77
I16096
tp306
sS'189 GOVERNOR ST'
p307
(g253
I92
I16983
tp308
sS'S ANGELL ST'
p309
(S'SOUTH ANGELL ST'
p310
I100
I17093
tp311
sS'HILLSIDE RD,'
p312
(S'HILLSIDE DR'
p313
I95
I16235
tp314
sS'MANTAN AVE'
p315
(g52
I86
I17947
tp316
sS'VZ ATWELLS AVE'
p317
(g243
I94
I15775
tp318
sS'W FRIENDSHIP ST'
p319
(S'WEST FRIENDSHIP ST'
p320
I100
I17345
tp321
sS',PARK AV,'
p322
(S'PARK AV'
p323
I100
I16765
tp324
sS'WEYBOSSET STREET,'
p325
(g143
I93
I15992
tp326
sS'KENNEDY PLAZA RM 406'
p327
(g41
I85
I15887
tp328
sS'HARRIS AV 3DE'
p329
(S'HARRIS AVE'
p330
I93
I15869
tp331
sS'BOYD AVE'
p332
(g99
I83
I17410
tp333
sS'LILY ST;'
p334
(S'LILY ST'
p335
I100
I15894
tp336
sS'ACADEMV AVE'
p337
(S'ACADEMY AVE'
p338
I88
I17365
tp339
sS'DE PASQUALE'
p340
(S'DE PASQUALE AVE'
p341
I92
I15824
tp342
sS'LB EDDY ST'
p343
(g290
I91
I15834
tp344
sS'A WESTMINSTER ST'
p345
(g26
I96
I15991
tp346
sS'OLNEYVILLE SQ RM 12'
p347
(g163
I90
I17978
tp348
sS'VICTORIA AVE'
p349
(S'VICTORIA ST'
p350
I89
I18089
tp351
sS'HOSPITAL MT BLDG, 15 WESTMINSTER ST'
p352
(g26
I79
I15991
tp353
sS'TERMINAL'
p354
(g122
I92
I16838
tp355
sS'650 POTTERS AVE'
p356
(S'POTTERS AVE'
p357
I92
I16786
tp358
sS'007 DOUGLAS AVE'
p359
(S'DOUGLAS AVE'
p360
I92
I16154
tp361
sS'& EASTWOOD AVE'
p362
(S'EASTWOOD AVE'
p363
I100
I17839
tp364
sS'WESTMINSTER STRM908'
p365
(g26
I92
I15991
tp366
sS'B'
p367
(S'BROADWAY'
p368
I40
I21699
tp369
sS'50 DIVISION ST'
p370
(S'DIVISION ST'
p371
I94
I17828
tp372
sS'WEYBOSSET HILL'
p373
(g143
I88
I15992
tp374
sS'DE SOTO ST'
p375
(S'DESOTO ST'
p376
I87
I17823
tp377
sS'HOPE'
p378
(g105
I86
I15875
tp379
sS'; IATINUCCILLO ONE HOSP TRUST PLAZA 25TH FL'
p380
(S'FINANCIAL PLAZA'
p381
I50
I15851
tp382
sS'W KNIGHT ST'
p383
(S'KNIGHT ST'
p384
I89
I15890
tp385
sS'86 WEYBOSSET ST'
p386
(g143
I94
I15992
tp387
sS'WESTMINSTER STRM71'
p388
(g26
I94
I15991
tp389
sS'OSIMSAV'
p390
(S'SIMS AVE'
p391
I76
I18041
tp392
sS'CUSTOM HOUSE'
p393
(S'CUSTOM HOUSE ST'
p394
I94
I15820
tp395
sS'WAVLAND AVE'
p396
(S'WAYLAND AVE'
p397
I88
I17125
tp398
sS'PARK AVF'
p399
(g323
I96
I16765
tp400
sS'TH FL COUNTY CT'
p401
(g65
I83
I16126
tp402
sS'A HOPE ST'
p403
(g105
I94
I15875
tp404
sS'WESTMINSTER STRM78'
p405
(g26
I94
I15991
tp406
sS'S ANGELI ST'
p407
(g310
I88
I17093
tp408
sS'PUTNAM PIKE'
p409
(S'PUTNAM ST'
p410
I85
I18003
tp411
sS'SCHESTNUTST'
p412
(S'CHESTNUT ST'
p413
I87
I15807
tp414
sS'DE FOE P1'
p415
(S'DEFOE PL'
p416
I78
I16941
tp417
sS'WATERMAN AVE'
p418
(g190
I89
I15988
tp419
sS'NEWPORT AVENUE,'
p420
(S'NEWPORT ST'
p421
I83
I16360
tp422
sS'TIPPECANOE ST'
p423
(S'TAPPAN ST'
p424
I68
I17680
tp425
sS'POWER RD'
p426
(S'POWER ST'
p427
I87
I15939
tp428
sS"WA'BERMAN ST"
p429
(g190
I79
I15988
tp430
sS'ANGEL) ST'
p431
(g256
I92
I16890
tp432
sS'BROADWAY LE'
p433
(g224
I91
I15794
tp434
sS'CALVERLEY ST'
p435
(S'CALVERLY ST'
p436
I95
I17419
tp437
sS'396 BENEFIT ST'
p438
(g203
I91
I15781
tp439
sS'MAIN ST'
p440
(S'MARVIN ST'
p441
I84
I17952
tp442
sS', MATHEWSON ST,'
p443
(S'MATHEWSON ST'
p444
I100
I15904
tp445
sS'A GOVERNOR ST'
p446
(g253
I96
I16983
tp447
sS'RARYST'
p448
(g35
I79
I15818
tp449
sS'BROADWAY SUITE E'
p450
(g224
I86
I15794
tp451
sS'HOSPITAL'
p452
(g5
I92
I15878
tp453
sS'VINTOU ST'
p454
(S'VINTON ST'
p455
I86
I15981
tp456
sS'DF1'
p457
(g416
I43
I16941
tp458
sS'DORMNCE ST'
p459
(g49
I83
I15829
tp460
sS'NMAINST3DFL'
p461
(S'MANSFIELD ST'
p462
I56
I17584
tp463
sS'PINEST'
p464
(S'PINE ST'
p465
I86
I15933
tp466
sS'2'
p467
(S'2ND ST'
p468
I39
I16872
tp469
sS'60 MAPLE ST'
p470
(S'MAPLE ST'
p471
I92
I15900
tp472
sS'INCKWOOD ST'
p473
(g218
I78
I15895
tp474
sS'6'
p475
(S'6TH ST'
p476
I39
I16876
tp477
sS'SPECTACLE ST'
p478
(S'PEACE ST'
p479
I75
I17286
tp480
sS'RICHMOND STRM207'
p481
(S'RICHMOND ST'
p482
I90
I15946
tp483
sS'CHALKSTAONE AVE'
p484
(g138
I96
I17433
tp485
sS'HARBORSIDE BLVD,'
p486
(S'HARBORSIDE BLVD'
p487
I100
I16683
tp488
sS'BROAD ST.'
p489
(g96
I100
I15793
tp490
sS'LE CRANSTON ST'
p491
(g71
I94
I15817
tp492
sS'OLNEYVILLE'
p493
(g163
I93
I17978
tp494
sS'MT PLEASANT AVE'
p495
(S'MOUNT PLEASANT AVE'
p496
I95
I17599
tp497
sS'NARRAGANSETT AVE'
p498
(S'NARRAGANSETT AV'
p499
I98
I17270
tp500
sS'WICKENDEN STV'
p501
(S'WICKENDEN ST'
p502
I98
I15995
tp503
sS'ACOMST'
p504
(S'BALCOM ST'
p505
I73
I17160
tp506
sS'II 111 WESTMINSTER ST'
p507
(g26
I90
I15991
tp508
sS'17 EDWARD ST'
p509
(S'EDWARD ST'
p510
I93
I16164
tp511
sS'VZ BROAD ST'
p512
(g96
I92
I15793
tp513
sS'W PARK ST'
p514
(S'WEST PARK ST'
p515
I100
I17704
tp516
sS'141 GANO ST'
p517
(S'GANO ST'
p518
I89
I15861
tp519
sS'WEYBOSSET STRM326'
p520
(g143
I91
I15992
tp521
sS'WARREN AVE'
p522
(S'WARREN WY'
p523
I87
I16851
tp524
sS'WEXCHANGEST'
p525
(S'EXCHANGE ST'
p526
I87
I15845
tp527
sS'A CANDACE ST'
p528
(S'CANDACE ST'
p529
I95
I17422
tp530
sS'40 WESTMINSTER ST'
p531
(g26
I95
I15991
tp532
sS'149 MATHEWSON ST'
p533
(g444
I93
I15904
tp534
sS'ALIENS AVE'
p535
(S'ALLENS AVE'
p536
I86
I15768
tp537
sS'KENNEDY PLAZA'
p538
(g41
I96
I15887
tp539
sS'ANGELI ST'
p540
(g256
I86
I16890
tp541
sS'328 WICKENDEN ST'
p542
(g502
I93
I15995
tp543
sS'WESTMINSTER STRM204'
p544
(g26
I92
I15991
tp545
sS'A BRANCH AVE'
p546
(S'BRANCH AVE'
p547
I95
I16067
tp548
sS'CHALKSBONE AVE'
p549
(g138
I91
I17433
tp550
sS'ATTVELLS AVE'
p551
(g243
I83
I15775
tp552
sS'WIGGIN HUNT CT'
p553
(S'HIGGINS AVE'
p554
I62
I17528
tp555
sS'111 MATHEWSON ST'
p556
(g444
I93
I15904
tp557
sS'GOVERNOR SK'
p558
(g253
I95
I16983
tp559
sS') PARK'
p560
(S'PARK ST'
p561
I86
I16391
tp562
sS'176 BENEFIT ST'
p563
(g203
I91
I15781
tp564
sS'RIVER AV,'
p565
(S'RIVER AVE'
p566
I97
I16423
tp567
sS'DONANCE ST'
p568
(g49
I83
I15829
tp569
sS'EARL ST'
p570
(S'EARLY ST'
p571
I91
I16646
tp572
sS'EXCHANGE ST, R300'
p573
(g526
I90
I15845
tp574
sS'),353ROADSTF1-ANKLLN'
p575
(g96
I48
I15793
tp576
sS"O'NEIL ST"
p577
(S'ONEIL ST'
p578
I91
I16378
tp579
sS'ABBOTT PARK PL 1ST FL'
p580
(S'ABBOTT PARK PL'
p581
I90
I15762
tp582
sS'HOSPITAL TRUST PLAZA'
p583
(g5
I85
I15878
tp584
sS'WESTMINSTER STLEOOO'
p585
(g26
I92
I15991
tp586
sS'NMAIN ST'
p587
(g441
I77
I17952
tp588
sS'CATAMORE BLVD'
p589
(S'SYCAMORE ST'
p590
I66
I18063
tp591
sS"MAJ'N ST"
p592
(S'NORTH CT'
p593
I85
I15918
tp594
sS'WESTMINSTER ST, 2D FL'
p595
(g26
I91
I15991
tp596
sS'BRANCH QV'
p597
(g547
I92
I16067
tp598
sS'WESTMINSTER STRM920'
p599
(g26
I92
I15991
tp600
sS'7 WESTMINSTER ST'
p601
(g26
I96
I15991
tp602
sS'A SMITH ST'
p603
(S'SMITH ST'
p604
I94
I16457
tp605
sS'DELMAR AVE'
p606
(S'DELMAR ST'
p607
I87
I17194
tp608
sS'WESTMINSTER STRM938'
p609
(g26
I92
I15991
tp610
sS'DE PINEDO ST'
p611
(S'DEPINEDO ST'
p612
I91
I16140
tp613
sS'PAWTUCKET AVE'
p614
(S'PAWTUXET AVE'
p615
I85
I16772
tp616
sS'WATERMANSTRM404'
p617
(g190
I73
I15988
tp618
sS'; SON 37VZ HUDSON ST'
p619
(S'HUDSON ST'
p620
I83
I17903
tp621
sS'BRBAD ST'
p622
(g96
I84
I15793
tp623
sS'CRARYST'
p624
(g35
I88
I15818
tp625
sS'WESTMINSTER STRM509'
p626
(g26
I92
I15991
tp627
sS"PLAINL'LELD ST"
p628
(g8
I82
I15934
tp629
sS'CLIFFORDST'
p630
(S'CLIFFORD ST'
p631
I92
I15811
tp632
sS'LAA PLAINFIELD ST'
p633
(g108
I93
I17994
tp634
sS'ZFINDINGSCOINC52 SALEM ST'
p635
(S'LIVINGSTON ST'
p636
I53
I16287
tp637
sS'SANDY LANE'
p638
(S'ANDY ST'
p639
I74
I16020
tp640
sS'WATERMAN'
p641
(g190
I92
I15988
tp642
sS'TLOQUE AVE'
p643
(S'LONGUE VUE AVE'
p644
I67
I16292
tp645
sS'CABOT ST'
p646
(S'TALBOT ST'
p647
I77
I16485
tp648
sS'WESTMINSTER ST, 211 FL'
p649
(g26
I90
I15991
tp650
sS'WESTMINSTER STREET, SUITE 830'
p651
(g26
I83
I15991
tp652
sS'N MAIN ST'
p653
(S'NORTH MAIN ST'
p654
I100
I15916
tp655
sS'1'
p656
(S'I 195'
p657
I41
I15880
tp658
sS'PLAINFLELD ST'
p659
(g108
I91
I17994
tp660
sS'FURNITURE CO 436 ATWELLS AVE'
p661
(S'FRUIT HILL AVE'
p662
I54
I16192
tp663
sS'205 REGENT AVE'
p664
(S'REGENT AVE'
p665
I91
I17642
tp666
sS'OLNEYVILLE SQ RM 9'
p667
(g163
I92
I17978
tp668
sS'TH'
p669
(g32
I65
I16874
tp670
sS'RAILROAD ST'
p671
(S'RAILROAD TERR'
p672
I91
I15943
tp673
sS') 401'
p674
(g657
I29
I15880
tp675
sS'-39 NARRAGANSETT AVE'
p676
(g499
I94
I17270
tp677
sS'N DAVIS ST'
p678
(S'NORTH DAVIS ST'
p679
I100
I17601
tp680
sS'OLNEYVILLE SQ RM 3'
p681
(g163
I92
I17978
tp682
sS'A PRAIRIE AVE'
p683
(S'PRAIRIE AVE'
p684
I96
I16787
tp685
sS'OLNEYVILLE SQ RM 11'
p686
(g163
I90
I17978
tp687
sS'E MANNING ST'
p688
(S'EAST MANNING ST'
p689
I100
I16951
tp690
sS'WATERMANRST'
p691
(g190
I87
I15988
tp692
sS'A PITMAN ST'
p693
(S'PITMAN ST'
p694
I95
I17073
tp695
sS'WHIPPLE ST,'
p696
(S'WHIPPLE ST'
p697
I100
I17716
tp698
sS'GAME ST'
p699
(S'AMES ST'
p700
I80
I15771
tp701
sS'B UNION AVE'
p702
(S'UNION AVE'
p703
I95
I16507
tp704
sS'INDUSTRIAL BANK BLDG, 111 WESTMINSTER ST'
p705
(g26
I76
I15991
tp706
sS'361 DYER AVE'
p707
(g168
I76
I15831
tp708
sS'CUSTOMHOUSERM20'
p709
(g394
I65
I15820
tp710
sS'ABBOTT PARK P1'
p711
(g581
I96
I15762
tp712
sS'WASHBUM ST'
p713
(S'WASHBURN ST'
p714
I83
I17712
tp715
sS'AV'
p716
(S'AVON ST'
p717
I55
I16040
tp718
sS'KENNEDY PLAZA RM 416'
p719
(g41
I85
I15887
tp720
sS'WESTMINSTER STRM301'
p721
(g26
I92
I15991
tp722
sS'KENNEDY PLAZA RM 415'
p723
(g41
I85
I15887
tp724
sS'KENNEDY PLAZA RM 412'
p725
(g41
I85
I15887
tp726
sS'E GEORGE ST'
p727
(S'EAST GEORGE ST'
p728
I100
I16950
tp729
sS'W RIVER ST'
p730
(g198
I100
I16541
tp731
sS'MINERAL SPRING AVE'
p732
(g240
I98
I16343
tp733
sS'-01 1 L'
p734
(S'11TH ST'
p735
I39
I16869
tp736
sS'ELIZAST'
p737
(S'ELIZA ST'
p738
I88
I17843
tp739
sS'S MAIN ST'
p740
(S'SOUTH MAIN ST'
p741
I100
I15948
tp742
sS'HHODES ST'
p743
(S'RHODES ST'
p744
I86
I15945
tp745
sS'A F LG I O 278 SILVER SPRING ST'
p746
(S'SILVER SPRING ST'
p747
I84
I16454
tp748
sS'CREATIVE'
p749
(S'CREST AVE'
p750
I66
I16128
tp751
sS'RANDALL SQ SUITE 308'
p752
(g135
I83
I16416
tp753
sS'WESTMIRISTER ST'
p754
(g26
I88
I15991
tp755
sS'ANZELL ST'
p756
(g256
I86
I16890
tp757
sS'USPO'
p758
(S'RUSSO ST'
p759
I58
I16439
tp760
sS'1840 MINERAL SPRING AVE'
p761
(g240
I92
I16343
tp762
sS'LAUNDROMAT 1117 ATWELLS AVE'
p763
(S'AURORA AV'
p764
I53
I16570
tp765
sS'ELMWOOD AV, SUITE 103'
p766
(S'ELMWOOD AVE'
p767
I85
I17207
tp768
sS'RANDALL SQ SUITE 305'
p769
(g135
I83
I16416
tp770
sS"' WESTMINSTER ST"
p771
(g26
I100
I15991
tp772
sS'HILLSIDE AVE'
p773
(g313
I89
I16235
tp774
s.