(dp0
S"NIAGARA '"
p1
(S'NIAGARA ST'
p2
I100
I17273
tp3
sS'STEEPLE'
p4
(S'STEEPLE ST'
p5
I100
I15962
tp6
sS'I RESERVOIR AV'
p7
(S'RESERVOIR AVE'
p8
I95
I17303
tp9
sS'-257 SMITH'
p10
(S'SMITH ST'
p11
I85
I16457
tp12
sS'0'
p13
(S'10TH ST'
p14
I40
I16868
tp15
sS"REGENT AV'"
p16
(S'REGENT AVE'
p17
I100
I17642
tp18
sS'TOCKWO-TTON'
p19
(S'TOCKWOTTON ST'
p20
I85
I15973
tp21
sS'ALGONQUIN'
p22
(S'ALGONQUIN ST'
p23
I100
I17151
tp24
sS'FRUIT, HILL AV'
p25
(S'FRUIT HILL AVE'
p26
I100
I16192
tp27
sS'RHODES'
p28
(S'RHODES ST'
p29
I100
I15945
tp30
sS'ALLEN; AV'
p31
(S'ALLENS AVE'
p32
I91
I15768
tp33
sS"' ATWELLS AV"
p34
(S'ATWELLS AVE'
p35
I100
I15775
tp36
sS'BALSER'
p37
(S'ALDER DR'
p38
I73
I16558
tp39
sS'MAMON AV'
p40
(S'DAMON ST'
p41
I80
I17460
tp42
sS'REGENT AV'
p43
(g17
I100
I17642
tp44
sS'-214 WEST AV'
p45
(S'WEST ST'
p46
I83
I15990
tp47
sS'WEYBOW SET'
p48
(S'WEYBOSSET ST'
p49
I75
I15992
tp50
sS'BROOLI'
p51
(S'BROOK ST'
p52
I73
I15795
tp53
sS'-58& HARRISON'
p54
(S'HARRISON ST'
p55
I92
I17226
tp56
sS'CUSTONI'
p57
(S'HOUSTON ST'
p58
I71
I16696
tp59
sS'WESTMINSTER 318 HOWARD BLDG'
p60
(S'WESTMINSTER ST'
p61
I79
I15991
tp62
sS'; BWAY'
p63
(S'BROADWAY'
p64
I100
I21699
tp65
sS'WINTER .'
p66
(S'WINTER ST'
p67
I100
I15999
tp68
sS'INDUSTRIAL'
p69
(S'INDUSTRIAL DR'
p70
I100
I16249
tp71
sS'WESTMINSTH'
p72
(g61
I86
I15991
tp73
sS'UNION'
p74
(S'UNION ST'
p75
I100
I15977
tp76
sS'-78 WEVBOSSET'
p77
(g49
I82
I15992
tp78
sS'WEST MINSTE-R'
p79
(g61
I81
I15991
tp80
sS'S MAIN'
p81
(S'SOUTH MAIN ST'
p82
I100
I15948
tp83
sS'PLAINFXELD'
p84
(S'PLAINFIELD ST'
p85
I90
I17994
tp86
sS'WESTMIM STER'
p87
(g61
I77
I15991
tp88
sS'HAWTHORNE'
p89
(S'HAWTHORNE ST'
p90
I100
I16225
tp91
sS"WESTMINSTER TE'L GASPEE"
p92
(g61
I82
I15991
tp93
sS'WESTMINSTER.'
p94
(g61
I100
I15991
tp95
sS'BENELITT'
p96
(S'BENEFIT ST'
p97
I80
I15781
tp98
sS'BIANEFIT'
p99
(g97
I80
I15781
tp100
sS'FRIENDSHIP'
p101
(S'FRIENDSHIP ST'
p102
I100
I15858
tp103
sS'HOLDEN'
p104
(S'HOLDEN ST'
p105
I100
I17532
tp106
sS'HOPKINS'
p107
(S'HOPKINS ST'
p108
I100
I15876
tp109
sS'263 RICHMOND'
p110
(S'RICHMOND ST'
p111
I90
I15946
tp112
sS', GREENE'
p113
(S'GREENE ST'
p114
I100
I15866
tp115
sS'N MAIN'
p116
(S'NORTH MAIN ST'
p117
I100
I15916
tp118
sS'.ATWELLS AV'
p119
(g35
I100
I15775
tp120
sS'GUIDE'
p121
(S'GRIDLEY ST'
p122
I67
I16213
tp123
sS'ELM WOOD AV'
p124
(S'ELMWOOD AVE'
p125
I83
I17207
tp126
sS'U MON'
p127
(S'AUMOND ST'
p128
I70
I16569
tp129
sS"WESTMINSTER '"
p130
(g61
I100
I15991
tp131
sS'FEDERAL'
p132
(S'FEDERAL ST'
p133
I100
I15848
tp134
sS'WICKENDEN MARION CLEANSERS 37 E TRANSIT'
p135
(S'WICKENDEN ST'
p136
I67
I15995
tp137
sS'. HOSPITAL'
p138
(S'HOSPITAL ST'
p139
I100
I15878
tp140
sS'WESTMINSTER'
p141
(g61
I100
I15991
tp142
sS'S WAITIR'
p143
(S'WAITE AVE'
p144
I60
I16850
tp145
sS"ATWOO'DF"
p146
(S'ATWOOD AVE'
p147
I88
I16037
tp148
sS'ALLEN,S AV'
p149
(g32
I81
I15768
tp150
sS'-5 BAKER'
p151
(S'BAKER ST'
p152
I91
I16576
tp153
sS'WEEDEN. PAWTUCKET'
p154
(S'PAWTUXET AV'
p155
I70
I16771
tp156
sS'CHARLES DEFELICE SHELL SERVICE STA 773 BROAD'
p157
(S'SERVICE ROAD 7'
p158
I47
I15954
tp159
sS'RINGGOLD'
p160
(S'RINGGOLD ST'
p161
I100
I15947
tp162
sS'WESTMINSTER MM 310, 49 DO'
p163
(g61
I81
I15991
tp164
sS'BALBO,AV'
p165
(S'BALBO AVE'
p166
I100
I21740
tp167
sS'THAYER -'
p168
(S'THAYER ST'
p169
I100
I17112
tp170
sS'SALGENT AV'
p171
(S'SARGENT AVE'
p172
I86
I17095
tp173
sS'ATWEILS AV'
p174
(g35
I86
I15775
tp175
sS"EDDY '"
p176
(S'EDDY ST'
p177
I100
I15834
tp178
sS"C'OMSTOCK"
p179
(S'COMSTOCK AVE'
p180
I93
I16631
tp181
sS'WESTMINSTER KM 408'
p182
(g61
I88
I15991
tp183
sS'A'
p184
(S'A ST'
p185
I100
I17146
tp186
sS'P0CASSET AV'
p187
(S'POCASSET AVE'
p188
I88
I17995
tp189
sS'ALLEN1S AV'
p190
(g32
I92
I15768
tp191
sS'HAMILTON X'
p192
(S'HAMILTON ST'
p193
I94
I17223
tp194
sS"MATHEWSON I'M 701"
p195
(S'MATHEWSON ST'
p196
I84
I15904
tp197
sS'WOODMONT'
p198
(S'WOODMONT ST'
p199
I100
I17361
tp200
sS"' WILLARD AV"
p201
(S'WILLARD ST'
p202
I100
I16545
tp203
sS'SHIP READ & LUNDY INC 44 CLIFFORD'
p204
(S'WEST CLIFFORD ST'
p205
I72
I17344
tp206
sS', RICHMOND'
p207
(g111
I100
I15946
tp208
sS"ARCA'DE"
p209
(S'ARCADE ST'
p210
I86
I15773
tp211
sS'. DYER'
p212
(S'DYER ST'
p213
I100
I15831
tp214
sS'W ESTMINSTER'
p215
(g61
I90
I15991
tp216
sS"WESTMINSTER'RM 308"
p217
(g61
I88
I15991
tp218
sS'HOSPTAL'
p219
(g139
I93
I15878
tp220
sS'ALLEYS AV'
p221
(g32
I83
I15768
tp222
sS'CHARLES ERNSTOF J INC 94 DORRANCE.'
p223
(S'DORRANCE ST'
p224
I69
I15829
tp225
sS'-07 WEYBOSSET'
p226
(g49
I93
I15992
tp227
sS'& PRAIRIE AV'
p228
(S'PRAIRIE AVE'
p229
I100
I16787
tp230
sS'CLEM4 ENCE'
p231
(S'CLEMENCE ST'
p232
I75
I15810
tp233
sS'-1 ELMWOOD AV'
p234
(g125
I94
I17207
tp235
sS'ARA CADE BLDG'
p236
(g210
I71
I15773
tp237
sS"WESTMINSTER -RM' 403"
p238
(g61
I88
I15991
tp239
sS'BUYERS GUIDE TOWER IRON WORKS'
p240
(S'BURNS ST'
p241
I51
I16075
tp242
sS'BROAD'
p243
(S'BROAD ST'
p244
I100
I15793
tp245
sS'N MAIN ,'
p246
(g117
I100
I15916
tp247
sS'PINE 2ND FL'
p248
(S'PINE HILL AVE'
p249
I80
I16780
tp250
sS'ALLENPS AV'
p251
(g32
I92
I15768
tp252
sS'BALBOA'
p253
(g166
I91
I21740
tp254
sS'318 BWAY'
p255
(g64
I83
I21699
tp256
sS'ABORN'
p257
(S'ABORN ST'
p258
I100
I15763
tp259
sS'.00 STORE'
p260
(S'STONE ST'
p261
I71
I16476
tp262
sS'DDRRANCE'
p263
(S'DORRANCE ST'
p264
I88
I15829
tp265
sS'-367 BROADWAY'
p266
(S'BROADWAY ST'
p267
I90
I15794
tp268
sS'PRESIDENT AV'
p269
(S'PRESIDENT AVE'
p270
I100
I17079
tp271
sS'VVEYBOSSET'
p272
(g49
I84
I15992
tp273
sS'ELMWOOD'
p274
(g125
I100
I17207
tp275
sS'CRANSTON ST, CRANSTON RI'
p276
(S'CRANSTON ST'
p277
I76
I15817
tp278
sS',ANGE11'
p279
(S'ORANGE ST'
p280
I67
I15921
tp281
sS'DOUGLAS AV'
p282
(S'DOUGLAS AVE'
p283
I100
I16154
tp284
sS'MOTOR MART INC 14 MASON'
p285
(S'MONITOR ST'
p286
I58
I16346
tp287
sS"BROAD STJOSEPH'S CONVENT 182 GEORGE"
p288
(S'JOSEPH ST'
p289
I56
I16261
tp290
sS'AMERICA.'
p291
(S'AMERICA ST'
p292
I100
I15770
tp293
sS'37 CLEMENCE'
p294
(g232
I92
I15810
tp295
sS"WESTMINSTER TEL' GA'SPEE 8370-F0R FURTHER INFORMATION SEE PAGE 122 BUYERS' GUIDE"
p296
(g61
I62
I15991
tp297
sS'71 RICHMOND'
p298
(g111
I92
I15946
tp299
sS'WESTMINO STER'
p300
(g61
I83
I15991
tp301
sS'BROAD SKOURAS JOHN 664 N MAIN'
p302
(S'SOUTH MAIN ST'
p303
I48
I15948
tp304
sS'CBNGRESS AV'
p305
(S'CONGRESS AVE'
p306
I88
I17184
tp307
sS'CEDAR,'
p308
(S'CEDAR ST'
p309
I100
I15803
tp310
sS"FOUNTAIN TOWER I'OOIIL"
p311
(S'FOUNTAIN ST'
p312
I76
I15853
tp313
sS', WESTMINSTER'
p314
(g61
I100
I15991
tp315
sS'BROWN -'
p316
(S'BROWN ST'
p317
I100
I16073
tp318
sS'ARMINGTON EDGEWOOD RI'
p319
(S'ARMINGTON ST'
p320
I80
I16565
tp321
sS'BWAY ASSEMBLEA CHRISTIANA 61 TELL .ASSEMBLY OF GOD CHURCH 68 ALTHEA. BAHAJI SPIRITUAL ASSEMBLY 92 UNI-'
p322
(S'CHRISTOPHER ST'
p323
I37
I16102
tp324
sS'OF SIDNEY F HOAR CAMP 17 6 BENEFIT'
p325
(S'BENEFIT ST'
p326
I67
I15781
tp327
sS'BROAD WANSKUCK ASBURY 13 VANDEWATER WASHINGTON PARK 297 ALABAMA'
p328
(S'VANDEWATER ST'
p329
I63
I16513
tp330
sS'I; ATWELLS AV'
p331
(g35
I94
I15775
tp332
sS'MANTON AV'
p333
(S'MANTON AVE'
p334
I100
I17947
tp335
sS'ALLELRS AV'
p336
(g32
I77
I15768
tp337
sS'CRAWFORD'
p338
(S'BRADFORD ST'
p339
I75
I15790
tp340
sS'EDDY POST 592 MCKENNA-MCALLISTER POST 300 PLAINFIELD'
p341
(S'CARLISLE ST'
p342
I45
I17177
tp343
sS'ELTON'
p344
(S'ELTON ST'
p345
I100
I16962
tp346
sS"BUYERS' GUIDE LEFT TOP LINES"
p347
(g241
I52
I16075
tp348
sS'-50 VVEYBOSSET'
p349
(g49
I78
I15992
tp350
sS'HILTON BOITLERS-MINERAL SPRING & DIS-'
p351
(S'SILVER SPRING ST'
p352
I52
I16454
tp353
sS'S WATER'
p354
(S'SOUTH WATER ST'
p355
I100
I15949
tp356
sS'-756 BROAD TEL. HOPKINS'
p357
(g108
I75
I15876
tp358
sS'BROWN'
p359
(g317
I100
I16073
tp360
sS"WESTMINS-' TER"
p361
(g61
I90
I15991
tp362
sS'HOSPITAL'
p363
(g139
I100
I15878
tp364
sS'WEST;MINSTER'
p365
(g61
I87
I15991
tp366
sS'POTTER2S AV-'
p367
(S'POTTERS AVE'
p368
I93
I16786
tp369
sS"' SPRAGUE"
p370
(S'SPRAGUE ST'
p371
I100
I17327
tp372
sS'NATIONAL . BANK OF COMMERCE BLDG'
p373
(S'NATURAL HISTORY WY'
p374
I52
I16748
tp375
sS'PRAIRIE AV'
p376
(g229
I100
I16787
tp377
sS'ABORN 3RD FL'
p378
(g258
I79
I15763
tp379
sS'CONNOR APARTMENTS 234-242 PRESIDENT AW'
p380
(S'PARENTE ST'
p381
I51
I16389
tp382
sS'MAIDEN LA'
p383
(S'MAIDEN LN'
p384
I90
I15899
tp385
sS'EXCHANGE PL RMS 306'
p386
(S'EXCHANGE TER'
p387
I82
I15846
tp388
sS'ANGELL'
p389
(S'ANGELL RD'
p390
I100
I16022
tp391
sS'BRAYTON AV'
p392
(S'BRAYTON AVE'
p393
I100
I15791
tp394
sS'A11EN1S AV'
p395
(g32
I62
I15768
tp396
sS'PLAINFLELD'
p397
(g85
I90
I17994
tp398
sS'-219 BROAD'
p399
(g244
I85
I15793
tp400
sS'WESTMINSTERRM 212'
p401
(g61
I85
I15991
tp402
sS'; CHESTNUT'
p403
(S'CHESTNUT ST'
p404
I100
I15807
tp405
sS"A'TWELLS AV"
p406
(g35
I92
I15775
tp407
sS'-FOR FURTHER INFORMATION SEE PAGE'
p408
(S'NORMAN DR'
p409
I51
I16362
tp410
sS'WEYBOSSET R'
p411
(g49
I95
I15992
tp412
sS'WES STER'
p413
(S'WESTERN ST'
p414
I76
I17127
tp415
sS'BWAY-ZD FL'
p416
(g64
I78
I21699
tp417
sS'.WEYBOSSET'
p418
(g49
I100
I15992
tp419
sS'& GREENWICH'
p420
(S'GREENWICH ST'
p421
I100
I17220
tp422
sS"WESTMINSTER 'RM 22"
p423
(g61
I89
I15991
tp424
sS'XVESTMINSTER'
p425
(g61
I87
I15991
tp426
sS"WEYBOSSET RMS 525-526-FOR FURTHER INFORMATION SEE PAGE 94 BUYERS' GUIDE"
p427
(g409
I43
I16362
tp428
sS'BWAY ROGER .WII.LIAMS SAVINGS FUND AND LOAN ASSOCIATION 105 GROSVENOR BLDGFLRST FLOOR 10 WEYBOHSSET'
p429
(S'UNION STATION ST'
p430
I43
I15978
tp431
sS'EMPIRE'
p432
(S'EMPIRE ST'
p433
I100
I15840
tp434
sS'-261 ALLEMS AV'
p435
(g32
I73
I15768
tp436
sS"LAURISTON'"
p437
(S'LAURISTON ST'
p438
I100
I17020
tp439
sS'EX CHANGE'
p440
(S'EXCHANGE ST'
p441
I90
I15845
tp442
sS'WESTMINSSTER'
p443
(g61
I96
I15991
tp444
sS'WATERMAN'
p445
(S'WATERMAN ST'
p446
I100
I15988
tp447
sS'FOUNTAIN 2D'
p448
(g312
I92
I15853
tp449
sS'CAMP INTERNATIONAL INSTITUTE 49 ORMS'
p450
(S'MINERAL SPRING AV'
p451
I50
I16343
tp452
sS'D CORNER BOOK SHOP 44K WEYBOSSET'
p453
(g49
I72
I15992
tp454
sS'-14 SMITH'
p455
(g11
I88
I16457
tp456
sS'ELMWOOD AV'
p457
(g125
I100
I17207
tp458
sS'WESTMINF STER'
p459
(g61
I83
I15991
tp460
sS'WESTMNISTER'
p461
(g61
I91
I15991
tp462
sS'BRIDGHAM BELLUCCI ANGELA MRS 41 MCMILLEN'
p463
(S'BRIDGHAM ST'
p464
I66
I17169
tp465
sS"BRANCH 485'ANGE11"
p466
(S'BRANCH AVE'
p467
I76
I16067
tp468
sS"' CHARLES"
p469
(S'CHARLES ST'
p470
I100
I16096
tp471
sS'CRANSTON ST, CRANSTON'
p472
(g277
I78
I15817
tp473
sS'ALLELFS AV'
p474
(g32
I77
I15768
tp475
sS'WEVBOSSET'
p476
(g49
I89
I15992
tp477
sS'MATTHEWSON'
p478
(g196
I95
I15904
tp479
sS'ELMWOOD A.V'
p480
(g125
I89
I17207
tp481
sS'WESTL, MINSTER'
p482
(g61
I85
I15991
tp483
sS'POTTEFS AV'
p484
(g368
I86
I16786
tp485
sS'N MAIN 4111'
p486
(g117
I90
I15916
tp487
sS'CITY HALL'
p488
(S'CITY VIEW CIR'
p489
I72
I17437
tp490
sS'WEYBOSSET TEI GASPEE 4'
p491
(g49
I79
I15992
tp492
sS'.6 EXCHANGE PL'
p493
(S'EXCHANGE ST'
p494
I88
I15845
tp495
sS'THOS S & VINCENT LUONGO MEM SQ'
p496
(S'VINCENT AVE'
p497
I68
I16522
tp498
sS'CHARLES'
p499
(g470
I100
I16096
tp500
sS'128 BAKER'
p501
(g152
I85
I16576
tp502
sS'GARNET 3RD TIOOR'
p503
(S'GARNET ST'
p504
I77
I15862
tp505
sS'YORK LIFE INSURANCE CO6 111 WESTMINSTER'
p506
(g61
I72
I15991
tp507
sS'8'
p508
(S'8TH ST'
p509
I50
I16878
tp510
sS'WESTMINSTER AM 201'
p511
(g61
I88
I15991
tp512
sS'FRANCIS'
p513
(S'FRANCIS AVE'
p514
I100
I16187
tp515
sS'; GORDON AV'
p516
(S'GORDON AVE'
p517
I100
I16675
tp518
sS'EXDHANGE'
p519
(g494
I88
I15845
tp520
sS'UXBRIDGE CRANSTON RI'
p521
(S'BRIDGE ST'
p522
I66
I15792
tp523
sS'UXBRIDGE CRANSTON, RI FTEL UNION OLOO-FOR FURTHER INFORMATIN SEE PAGE 101 BUYERS, GUIDE'
p524
(g409
I44
I16362
tp525
sS"WESTMINSTER TEL'GASPEE"
p526
(g61
I83
I15991
tp527
sS'-24 CLIE'
p528
(S'CLIFDEN AVE'
p529
I65
I16623
tp530
sS'WICKENDEN'
p531
(g136
I100
I15995
tp532
sS'FRANKLIN RMS 208209'
p533
(S'FRANKLIN SQ'
p534
I83
I15856
tp535
sS'; SMITH'
p536
(g11
I100
I16457
tp537
sS'ALMY'
p538
(S'ALMY ST'
p539
I100
I17741
tp540
sS'DORRANCE THOMPSON BLDG'
p541
(S'DORRANCE PLZ'
p542
I82
I15828
tp543
sS'145 CRARY'
p544
(S'CRARY ST'
p545
I85
I15818
tp546
sS'UNION AV;'
p547
(g75
I100
I15977
tp548
sS'WE BOSSET'
p549
(g49
I84
I15992
tp550
sS"' HARTFORD AV"
p551
(S'HARTFORD AVE'
p552
I100
I17889
tp553
sS'BROADWAY'
p554
(g267
I100
I15794
tp555
sS'CUMERFORD'
p556
(S'CUMERFORD ST'
p557
I100
I17812
tp558
sS'N MAIN 6 HALL JAS K JR 305 BLACKSTONE BLVD'
p559
(S'BLACKSTONE BLVD'
p560
I74
I16904
tp561
sS"' BERKLEY"
p562
(S'BERKLEY ST'
p563
I100
I17401
tp564
sS'ELMGROVE AV'
p565
(S'ELMGROVE AVE'
p566
I100
I16960
tp567
sS"CHESTNUT REL DEXTER 4903-FOR FURTHER INFORMATION SEE PAGE 105 BUYERS' GUIDE"
p568
(g409
I43
I16362
tp569
sS'C'
p570
(S'CYR ST'
p571
I50
I16634
tp572
sS'-10 ORMS .'
p573
(S'ORMS ST'
p574
I86
I16384
tp575
sS'SHAYER'
p576
(g169
I83
I17112
tp577
sS'WESTMINTER'
p578
(g61
I95
I15991
tp579
sS'N MAIN 4TH,TL'
p580
(g117
I87
I15916
tp581
sS'CLIFFORD'
p582
(S'CLIFFORD ST'
p583
I100
I15811
tp584
sS'POCASSET-AV'
p585
(g188
I100
I17995
tp586
sS"EXCHANGE PL 'RM 509"
p587
(g387
I83
I15846
tp588
sS', 279'
p589
(S'I 95'
p590
I34
I15881
tp591
sS'SUMMER'
p592
(S'SUMMER ST'
p593
I100
I15965
tp594
sS'ANDI63 WESTMINSTER'
p595
(g61
I88
I15991
tp596
sS"POTTER'S AV"
p597
(g368
I83
I16786
tp598
sS'* WESTMINSTER'
p599
(g61
I100
I15991
tp600
sS'PAWTUCKET, PAWTUCKET'
p601
(g155
I67
I16771
tp602
sS'WEYBOS-'
p603
(g49
I80
I15992
tp604
sS'-264 WEYR BOSSET'
p605
(g49
I77
I15992
tp606
sS'CHERRY'
p607
(S'CHERRY ST'
p608
I100
I16100
tp609
sS'DESOTD'
p610
(S'DESOTO ST'
p611
I83
I17823
tp612
sS'CAMP WHAT CHEER TAILORING CO 60 WEYBOSSET'
p613
(S'LORING LN'
p614
I53
I16295
tp615
sS"EXCHANGE PL RM' 412"
p616
(g387
I83
I15846
tp617
sS'EXCHANGE'
p618
(g494
I100
I15845
tp619
sS'FRIEND SHIP'
p620
(g102
I85
I15858
tp621
sS'; PLAINFIELD'
p622
(g85
I100
I17994
tp623
sS'CHARLESF BVAINDEU S 8 MACHINE CO 228 ABORN I'
p624
(S'CHARLES ST'
p625
I59
I16096
tp626
sS'DORRANCE'
p627
(g264
I100
I15829
tp628
sS"BUYERS' GUIDE LEFT BOTTOM LINES"
p629
(g241
I51
I16075
tp630
sS'WESTMINC STER'
p631
(g61
I83
I15991
tp632
sS'36 DIKE'
p633
(S'DIKE ST'
p634
I86
I17827
tp635
sS'ATWELLS AVU'
p636
(g35
I89
I15775
tp637
sS'; EARL'
p638
(S'PEARL AVE'
p639
I89
I16394
tp640
sS"WASH '"
p641
(S'WASHINGTON ST'
p642
I100
I21700
tp643
sS'PUBLIC'
p644
(S'PUBLIC ST'
p645
I100
I15942
tp646
sS'EDDY 4TH'
p647
(g177
I83
I15834
tp648
sS"BWAY'"
p649
(g64
I100
I21699
tp650
sS"JEWETT '"
p651
(S'JEWETT ST'
p652
I100
I17549
tp653
sS'BWAY9'
p654
(g64
I89
I21699
tp655
sS'HILLVIEW AV'
p656
(S'HILLVIEW DR'
p657
I100
I16237
tp658
sS'31 RANDALL'
p659
(S'RANDALL RD'
p660
I91
I16415
tp661
sS'WESMTINSTER'
p662
(g61
I91
I15991
tp663
sS'; ATWELLS AV'
p664
(g35
I100
I15775
tp665
sS'MFG CO 150 CHESTNUT'
p666
(g404
I79
I15807
tp667
sS'DYER CBR WESTMINSTER'
p668
(g61
I85
I15991
tp669
sS'N EXCHANGE'
p670
(S'WEST EXCHANGE ST'
p671
I87
I15982
tp672
sS'PLAINFIELD'
p673
(g85
I100
I17994
tp674
sS'BEANIT'
p675
(g97
I77
I15781
tp676
sS'COMMERCIAL PAWTUXET'
p677
(S'COMMERCIAL DR'
p678
I84
I16114
tp679
sS"' WICKENDEN"
p680
(g136
I100
I15995
tp681
sS'WESLEYAN AV'
p682
(S'WESLEYAN AVE'
p683
I100
I17353
tp684
sS"LLOYD AV-FOI' FURTHER INFORMATION SEE PAGE 160 BUYERY GUIDE"
p685
(g409
I45
I16362
tp686
sS'8 WATER'
p687
(g144
I73
I16850
tp688
sS'BROOK'
p689
(g52
I100
I15795
tp690
sS'KINSLEV AV'
p691
(S'KINSLEY AVE'
p692
I86
I15889
tp693
sS'CUSTOM HOUSE CT'
p694
(S'CUSTOM HOUSE ST'
p695
I100
I15820
tp696
sS'A POTTEFS AV'
p697
(g368
I80
I16786
tp698
sS'CLIFFORD 2ND FL'
p699
(g583
I85
I15811
tp700
sS"CHALK' STONE AV"
p701
(S'CHALKSTONE AVE'
p702
I81
I17433
tp703
sS'-367BROADWAY'
p704
(g267
I84
I15794
tp705
sS'ANGELI'
p706
(S'ANGELA CT'
p707
I83
I16021
tp708
sS'-44 WENDELL'
p709
(S'WENDELL ST'
p710
I91
I16535
tp711
sS'PINE'
p712
(S'PINE ST'
p713
I100
I15933
tp714
sS'58 WEYBOSSET'
p715
(g49
I93
I15992
tp716
sS'TXCHANGE PL'
p717
(g494
I81
I15845
tp718
sS'WEYBOSSET'
p719
(g49
I100
I15992
tp720
sS'ALLEN4S AV'
p721
(g32
I92
I15768
tp722
sS'75 GRAHAM'
p723
(S'GRAHAM ST'
p724
I90
I16984
tp725
sS'WEYBOSSET RM.706'
p726
(g49
I86
I15992
tp727
sS'ATWENS'
p728
(S'ATWELLS AVE'
p729
I77
I15775
tp730
sS'-1288 CHALKSTONE AV'
p731
(g702
I90
I17433
tp732
sS'WICKENDEN PARENTE PAUL 22 UNIT'
p733
(S'WICKENDEN ST'
p734
I73
I15995
tp735
sS'RICHMOND RMS 203-204'
p736
(S'RICHMOND SQ'
p737
I82
I17086
tp738
sS"MAN' NING"
p739
(S'MANNING ST'
p740
I83
I17034
tp741
sS'WESTMINSTER CO'
p742
(g61
I94
I15991
tp743
sS'NEWARK'
p744
(S'NEWARK ST'
p745
I100
I17604
tp746
sS'VALLEY'
p747
(S'VALLEY ST'
p748
I100
I17693
tp749
sS'GOVERNOR EAGAN RUTH M 107 ABBOTT'
p750
(S'GOVERNOR NOTTE PKWY'
p751
I75
I16206
tp752
sS'FRANK1IN'
p753
(S'FRANKLIN ST'
p754
I88
I16188
tp755
sS'ALLEN S AV'
p756
(g32
I81
I15768
tp757
sS"-38 WESTMINSTER'"
p758
(g61
I94
I15991
tp759
sS'WALLING'
p760
(S'WALLING ST'
p761
I100
I21723
tp762
sS'HARRI. SON'
p763
(S'HARRIS AVE'
p764
I85
I15869
tp765
sS"MEET' ING"
p766
(S'MEETING ST'
p767
I83
I15907
tp768
sS'WQSTMINSTER'
p769
(g61
I91
I15991
tp770
sS'INDUSTRIAL TRUST BLDG'
p771
(g70
I82
I16249
tp772
sS"BROAD '"
p773
(g244
I100
I15793
tp774
sS"ATWELL'S AV"
p775
(g35
I83
I15775
tp776
sS"TAUN'TON AV"
p777
(S'STANTON ST'
p778
I67
I18051
tp779
sS'CONGDON APT 11'
p780
(S'CONGDON ST'
p781
I83
I16932
tp782
sS'POTTER,S AV'
p783
(g368
I83
I16786
tp784
sS'POCASSET AV'
p785
(g188
I100
I17995
tp786
sS'FIRST NOOR 10 WEYBOSSET'
p787
(g49
I78
I15992
tp788
sS'ED DY'
p789
(g177
I78
I15834
tp790
sS'MEADER'
p791
(S'MEADER ST'
p792
I100
I17957
tp793
sS'; FEDERAL'
p794
(g133
I100
I15848
tp795
sS'-78 WEYBOSET'
p796
(g49
I87
I15992
tp797
sS'CLITFORD'
p798
(g583
I88
I15811
tp799
sS'BENOVOLENT'
p800
(S'BENEVOLENT ST'
p801
I90
I16902
tp802
sS"BELLE'VUE AV"
p803
(S'BELLEVUE AVE'
p804
I85
I16051
tp805
sS'SCHOOL PAWTUCKET'
p806
(g155
I70
I16771
tp807
sS'PLAIRMELD'
p808
(g85
I74
I17994
tp809
sS'MATHEWSON,'
p810
(g196
I100
I15904
tp811
sS'EMPIRE 2ND FL'
p812
(S'EMPIRE PLAZA'
p813
I82
I15839
tp814
sS"BUYERS' GUIDE"
p815
(S'BURNSIDE ST'
p816
I63
I16606
tp817
sS'JEFFERSON BLVD HILLSFZROVE RI'
p818
(S'HILLSIDE DR'
p819
I47
I16235
tp820
sS'BENEFLT'
p821
(g97
I86
I15781
tp822
sS'206 WASHINGTON'
p823
(S'WASHINGTON ST'
p824
I91
I15987
tp825
sS'.CO 1153-1155 WESTMINSTER'
p826
(g61
I81
I15991
tp827
sS'S INC 291-297 WESTMINSTER'
p828
(g61
I77
I15991
tp829
sS'MESSER'
p830
(S'MESSER ST'
p831
I100
I17961
tp832
sS'.334WESTMINSTER RM'
p833
(g61
I83
I15991
tp834
sS'ANZELL'
p835
(g390
I83
I16022
tp836
sS'SERVICE'
p837
(S'SERVICE RD'
p838
I100
I15953
tp839
sS'-06 INDUSTRIAL'
p840
(g70
I93
I16249
tp841
sS'SMITH'
p842
(g11
I100
I16457
tp843
sS"ALLEN'S AV"
p844
(g32
I81
I15768
tp845
sS'GAME'
p846
(S'AMES ST'
p847
I75
I15771
tp848
sS'NGRIS AV'
p849
(S'SUNRISE DR'
p850
I67
I17677
tp851
sS'MOOREFLELD'
p852
(S'MOOREFIELD ST'
p853
I90
I17965
tp854
sS'-129 POST ROAD APPONAUG'
p855
(S'EAST APPROACH'
p856
I54
I15832
tp857
sS'WEEDEN PAWTUCKET'
p858
(g155
I70
I16771
tp859
sS'ATWELLS AV'
p860
(g35
I100
I15775
tp861
sS'; CRANSTON'
p862
(g277
I100
I15817
tp863
sS'EDDY'
p864
(g177
I100
I15834
tp865
sS'BROAD EDGEWOOD.'
p866
(S'EDGEWOOD AV'
p867
I86
I16650
tp868
sS'EXCHANGE PL *'
p869
(g494
I92
I15845
tp870
sS'EDDY 2ND'
p871
(g177
I83
I15834
tp872
sS'VWESTMINSTER'
p873
(g61
I96
I15991
tp874
sS'WINTER DICKS LUNCHEONETTE 204 ABORN'
p875
(S'WINCHESTER ST'
p876
I47
I16547
tp877
sS"E'LMWOOD AV"
p878
(g125
I85
I17207
tp879
sS'MANTOXI AV'
p880
(g334
I77
I17947
tp881
sS', 784'
p882
(S'4TH ST'
p883
I33
I16874
tp884
sS'WATERMAN LST FL'
p885
(g446
I85
I15988
tp886
sS'ATWELPS AV'
p887
(g35
I86
I15775
tp888
sS'WESTMINSTER 4TH 11'
p889
(g61
I88
I15991
tp890
sS'WEYBOSSET LOCAL 285'
p891
(g49
I82
I15992
tp892
sS'CLIFFORD 3RD FL'
p893
(g583
I85
I15811
tp894
sS'CLIFFORD 3RD FI'
p895
(g583
I85
I15811
tp896
sS', WINTHROP'
p897
(S'WINTHROP AVE'
p898
I100
I17720
tp899
sS'HOSNITAL'
p900
(g139
I88
I15878
tp901
sS'VVESTMINSTER'
p902
(g61
I87
I15991
tp903
sS'J ILLSON'
p904
(S'JILLSON ST'
p905
I92
I16706
tp906
sS'WEST'
p907
(g46
I100
I15990
tp908
sS'BENEM'
p909
(g97
I67
I15781
tp910
sS'N MAIN 4TL'
p911
(g117
I91
I15916
tp912
sS'I; WEBSTER AV'
p913
(S'WEBSTER AVE'
p914
I94
I18098
tp915
sS'BASSET'
p916
(S'BASSETT ST'
p917
I92
I15777
tp918
sS'EAAY'
p919
(S'EARLY ST'
p920
I67
I16646
tp921
sS'DEXTER'
p922
(S'DEXTER ST'
p923
I100
I17198
tp924
sS'EDDY APPLETON FREDERICK J 1742 WESTMINSTER'
p925
(g61
I71
I15991
tp926
sS'ANARRAGANSETT AV'
p927
(S'NARRAGANSETT ST'
p928
I96
I16747
tp929
sS'WESTMINSTER .TEL GASDEE 0403'
p930
(g61
I79
I15991
tp931
sS"A'NGELL"
p932
(g390
I91
I16022
tp933
sS'DORRANCE RMS 401-404'
p934
(g542
I78
I15828
tp935
sS'PRAIRIE'
p936
(g229
I100
I16787
tp937
sS'A1-'
p938
(g185
I67
I17146
tp939
sS'WEYBOLSSET'
p940
(g49
I95
I15992
tp941
sS'I CHARLES'
p942
(g470
I94
I16096
tp943
sS'AFCADE BLDZ'
p944
(g210
I71
I15773
tp945
sS'EDDY 3RD FL'
p946
(g177
I76
I15834
tp947
sS'WASH.'
p948
(g642
I100
I21700
tp949
sS'THAYER'
p950
(g169
I100
I17112
tp951
sS'KNIGHT'
p952
(S'KNIGHT ST'
p953
I100
I15890
tp954
sS'DYER'
p955
(g213
I100
I15831
tp956
s.