(dp0
S'WESTNIINSTER RM'
p1
(S'WESTMINSTER ST'
p2
I82
I15991
tp3
sS'199'
p4
(S'I 195'
p5
I58
I15880
tp6
sS'HOWARD BLDG'
p7
(S'NORTH HOWARD AVE'
p8
I76
I16363
tp9
sS'POPE'
p10
(S'POPE ST'
p11
I100
I16405
tp12
sS'ORMS'
p13
(S'ORMS ST'
p14
I100
I16384
tp15
sS'CULVER'
p16
(S'CULVER ST'
p17
I100
I16633
tp18
sS'WASH RM 203'
p19
(S'WASHINGTON ST'
p20
I76
I21700
tp21
sS'HARRIS AV'
p22
(S'HARRIS AVE'
p23
I100
I15869
tp24
sS'RICHMOND-'
p25
(S'RICHMOND ST'
p26
I100
I15946
tp27
sS'RICHMOND,'
p28
(g26
I100
I15946
tp29
sS'NORTH MAIN'
p30
(S'NORTH MAIN ST'
p31
I100
I15916
tp32
sS'V; HOPE ST'
p33
(S'HOPE ST'
p34
I94
I15875
tp35
sS'HALL'
p36
(S'HALL ST'
p37
I100
I16216
tp38
sS'K CRANSTON ST'
p39
(S'CRANSTON ST'
p40
I96
I15817
tp41
sS'-58I HARRIS AV'
p42
(S'HARRIS AVE'
p43
I87
I15869
tp44
sS'; CHARLES'
p45
(S'CHARLES ST'
p46
I100
I16096
tp47
sS'-127 BLACKSTONE BLVD'
p48
(S'BLACKSTONE BLVD'
p49
I94
I16904
tp50
sS'DORRANOE ST'
p51
(S'DORRANCE ST'
p52
I89
I15829
tp53
sS'AT1311TH AV'
p54
(S'11TH ST'
p55
I67
I16869
tp56
sS'APPLETON'
p57
(S'APPLETON ST'
p58
I100
I17749
tp59
sS'BRAMAN'
p60
(S'BRAMAN ST'
p61
I100
I16907
tp62
sS'EDDY 2D 11'
p63
(S'EDDY ST'
p64
I78
I15834
tp65
sS'DECATUR SQ'
p66
(S'DECATUR AVE'
p67
I91
I16138
tp68
sS'375 PROMENADE'
p69
(S'PROMENADE ST'
p70
I91
I17630
tp71
sS'I CRANSTON'
p72
(S'CRANSTON ST'
p73
I94
I15817
tp74
sS'BLOUNT'
p75
(S'BELMONT AVE'
p76
I77
I17398
tp77
sS'CHAPIN'
p78
(S'CHAPIN AVE'
p79
I100
I17800
tp80
sS'ELTON'
p81
(S'ELTON ST'
p82
I100
I16962
tp83
sS'CO INC 136 RHODES'
p84
(S'RHODES ST'
p85
I76
I15945
tp86
sS'W FRIENDSHIP'
p87
(S'WEST FRIENDSHIP ST'
p88
I100
I17345
tp89
sS'0'
p90
(S'10TH ST'
p91
I40
I16868
tp92
sS'DARTMOUTH AV'
p93
(S'DARTMOUTH AVE'
p94
I100
I17192
tp95
sS'MERRILL JUNCTION FEDERAL ST'
p96
(S'JUNCTION ST'
p97
I79
I17238
tp98
sS'WESTMINSTER RMZ4'
p99
(g2
I90
I15991
tp100
sS'WOODMONT'
p101
(S'WOODMONT ST'
p102
I100
I17361
tp103
sS'MARKET SQUEE BACK COLORED PAGE Y'
p104
(S'COLE FARM CT'
p105
I51
I16929
tp106
sS'HAMMOND'
p107
(S'HAMMOND ST'
p108
I100
I17880
tp109
sS'SEARS AV'
p110
(S'SEARS AVE'
p111
I100
I17663
tp112
sS'A F M 179 BROADWAY'
p113
(S'BROADWAY ST'
p114
I81
I15794
tp115
sS'A POCASSET AV'
p116
(S'POCASSET AVE'
p117
I94
I17995
tp118
sS'TURKS HEAD BLDFZ 76 WESTMINSTER'
p119
(g2
I76
I15991
tp120
sS'WESTMINSTER RMS 1-2'
p121
(g2
I86
I15991
tp122
sS'GORDON AV'
p123
(S'GORDON AVE'
p124
I100
I16675
tp125
sS'EXCHANGE PL RM6'
p126
(S'EXCHANGE TER'
p127
I87
I15846
tp128
sS'WEST PARK'
p129
(S'WEST PARK ST'
p130
I100
I17704
tp131
sS'PEACE'
p132
(S'PEACE ST'
p133
I100
I17286
tp134
sS'CRANSTON ST.'
p135
(g40
I100
I15817
tp136
sS'WASHBUM ST'
p137
(S'WASHBURN ST'
p138
I83
I17712
tp139
sS'LANZDON'
p140
(S'LANGDON ST'
p141
I86
I16272
tp142
sS'STATE HOUSE'
p143
(S'STATE ST'
p144
I81
I17672
tp145
sS'FRANKLIN 7'
p146
(S'FRANKLIN ST'
p147
I94
I16188
tp148
sS'-1 AMHERST'
p149
(S'AMHERST ST'
p150
I94
I17744
tp151
sS'ALGONQUIN'
p152
(S'ALGONQUIN ST'
p153
I100
I17151
tp154
sS'DORA'
p155
(S'DORA ST'
p156
I100
I17830
tp157
sS'GALLUP'
p158
(S'GALLUP ST'
p159
I100
I16668
tp160
sS'WESTMINSTER STRM 1908'
p161
(S'WESTMINSTER ST'
p162
I84
I15991
tp163
sS'G BRANCH AV'
p164
(S'BRANCH AVE'
p165
I93
I16067
tp166
sS'PORTLAND'
p167
(S'PORTLAND ST'
p168
I100
I17293
tp169
sS'PRAIRIE AV-'
p170
(S'PRAIRIE AVE'
p171
I100
I16787
tp172
sS'WEVBOSSET ST'
p173
(S'WEYBOSSET ST'
p174
I90
I15992
tp175
sS'POTTER1S AV'
p176
(S'POTTERS AVE'
p177
I93
I16786
tp178
sS'WEYBOSSET DAUGHTERS OF ARGYLE NO 2, 248'
p179
(S'WEYBOSSET ST'
p180
I69
I15992
tp181
sS'.110 VIOLIN)'
p182
(S'PAVILION AVE'
p183
I63
I16770
tp184
sS'RHODES'
p185
(g85
I100
I15945
tp186
sS'PAGE 3D A'
p187
(S'PAGE ST'
p188
I81
I15923
tp189
sS'334 WESTMINSTER'
p190
(g2
I92
I15991
tp191
sS'LILY'
p192
(S'LILY ST'
p193
I100
I15894
tp194
sS'DYER AVE'
p195
(S'DYER ST'
p196
I100
I15831
tp197
sS'WESTMINSTER 4TH'
p198
(g2
I92
I15991
tp199
sS'W EXCHANGE-'
p200
(S'WEST EXCHANGE ST'
p201
I100
I15982
tp202
sS"ELMG'ROVE AVE"
p203
(S'ELMGROVE AVE'
p204
I81
I16960
tp205
sS'COLLEGE'
p206
(S'COLLEGE ST'
p207
I100
I15812
tp208
sS'GLOVER'
p209
(S'GLOVER ST'
p210
I100
I17514
tp211
sS'A EDDY ST'
p212
(S'EDDY ST'
p213
I94
I15834
tp214
sS"WESTMIN' STER"
p215
(g2
I87
I15991
tp216
sS'PRESCOTT'
p217
(S'PRESCOTT ST'
p218
I100
I17629
tp219
sS'VIEW'
p220
(S'VIEW AV'
p221
I100
I16520
tp222
sS'CANAL'
p223
(S'CANAL ST'
p224
I100
I15798
tp225
sS'WATERMAN STA'
p226
(S'WATERMAN ST'
p227
I90
I15988
tp228
sS'HAROLD'
p229
(S'HAROLD ST'
p230
I100
I17519
tp231
sS'REGENT AV'
p232
(S'REGENT AVE'
p233
I100
I17642
tp234
sS'DRYDEN LA'
p235
(S'DRYDEN LN'
p236
I90
I16156
tp237
sS'PARADE'
p238
(S'PARADE ST'
p239
I100
I17278
tp240
sS'HOPE 196'
p241
(S'HOPE ST'
p242
I83
I15875
tp243
sS'ORANGE 3D 11'
p244
(S'ORANGE ST'
p245
I83
I15921
tp246
sS'BWAV'
p247
(S'BROADWAY'
p248
I75
I21699
tp249
sS'HOSPITAL TRUST BLDG'
p250
(S'HOSPITAL ST'
p251
I79
I15878
tp252
sS'POMFRET'
p253
(S'SOMERSET ST'
p254
I67
I17325
tp255
sS'WARREN AVE'
p256
(S'WARREN ST'
p257
I100
I17349
tp258
sS'HOLDEN'
p259
(S'HOLDEN ST'
p260
I100
I17532
tp261
sS'BYRON'
p262
(S'BROWN ST'
p263
I80
I16073
tp264
sS'ORCHARD P1'
p265
(S'ORCHARD PL'
p266
I95
I17064
tp267
sS'MOULTO-N'
p268
(S'MOULTON LN'
p269
I83
I15913
tp270
sS'WHITTIER RD'
p271
(S'WHITTIER AVE'
p272
I100
I18107
tp273
sS'BLAINE'
p274
(S'BLAINE ST'
p275
I100
I16061
tp276
sS'7TH'
p277
(S'7TH ST'
p278
I100
I16877
tp279
sS'YALE AV'
p280
(S'YALE AVE'
p281
I100
I17725
tp282
sS'POCASSET'
p283
(g117
I100
I17995
tp284
sS'; ELMWOOD AVE'
p285
(S'ELMWOOD AVE'
p286
I100
I17207
tp287
sS'MEWELF ST'
p288
(S'JEWELL ST'
p289
I72
I17911
tp290
sS'EXCHANGE PL'
p291
(S'EXCHANGE ST'
p292
I92
I15845
tp293
sS'WESTMINSTER STRM301'
p294
(g162
I86
I15991
tp295
sS'WESTMIN STER'
p296
(g2
I87
I15991
tp297
sS'WESTMINSTER STRM302'
p298
(g162
I86
I15991
tp299
sS'MARLBOROU;ZH AV'
p300
(S'MARLBOROUGH AVE'
p301
I88
I17259
tp302
sS'BARNES'
p303
(S'BARNES ST'
p304
I100
I16898
tp305
sS'ASHMONT'
p306
(S'ASHMONT ST'
p307
I100
I16567
tp308
sS'ANSELL ST'
p309
(S'ANSEL AVE'
p310
I91
I17154
tp311
sS'WESTMINSTER--'
p312
(g2
I100
I15991
tp313
sS'DANCE ST'
p314
(S'DIANE ST'
p315
I84
I16144
tp316
sS'& THAYER'
p317
(S'THAYER ST'
p318
I100
I17112
tp319
sS'RICHMOND'
p320
(S'RICHMOND ST'
p321
I100
I15946
tp322
sS'OAK ST,'
p323
(S'OAK ST'
p324
I100
I17974
tp325
sS'HOSPITAL TRUST PLAZA SUITE 2700'
p326
(S'HOSPITAL ST'
p327
I70
I15878
tp328
sS'COMMON'
p329
(S'COMMON ST'
p330
I100
I17449
tp331
sS'WATERMAN AVENUE, NORTH'
p332
(g227
I77
I15988
tp333
sS'SPRUCE 291 THAYER'
p334
(S'SPRUCE ST'
p335
I76
I15961
tp336
sS'CEDAR'
p337
(S'CEDAR ST'
p338
I100
I15803
tp339
sS'HAWKINS'
p340
(S'HAWKINS ST'
p341
I100
I16223
tp342
sS'SOCIETY FOR MENTAL HYGIENE 100 N MAIN'
p343
(S'CITY VIEW CIR'
p344
I53
I17437
tp345
sS'A; WALLING'
p346
(S'WALLING ST'
p347
I94
I21723
tp348
sS'BENEIIT'
p349
(S'BENEFIT ST'
p350
I86
I15781
tp351
sS'WATERMAN STRM500'
p352
(g227
I83
I15988
tp353
sS'DODGE'
p354
(S'DODGE ST'
p355
I100
I16148
tp356
sS'CANA1-'
p357
(S'CANAL ST'
p358
I80
I15798
tp359
sS'RUGBY'
p360
(S'RUGBY ST'
p361
I100
I16803
tp362
sS'ANTHONY AV'
p363
(S'ANTHONY AVE'
p364
I100
I17155
tp365
sS'WESTMINSTER STRM47'
p366
(g162
I88
I15991
tp367
sS'UNION'
p368
(S'UNION ST'
p369
I100
I15977
tp370
sS'ANDEM'
p371
(S'ANDEM ST'
p372
I100
I17376
tp373
sS'WEYBOSSET RM 942'
p374
(g180
I86
I15992
tp375
sS'AMERICA'
p376
(S'AMERICA ST'
p377
I100
I15770
tp378
sS'A ELMWOOD AVE'
p379
(g286
I96
I17207
tp380
sS'WILLIAM ELLERY P1'
p381
(S'WILLIAM ELLERY PL'
p382
I97
I17134
tp383
sS'VERNDALE AV'
p384
(S'VERNDALE AVE'
p385
I100
I16846
tp386
sS'WESTMINSTER MM 1029'
p387
(g2
I86
I15991
tp388
sS'SMITH RM3'
p389
(S'SMITH ST'
p390
I85
I16457
tp391
sS'S MAIN'
p392
(S'SOUTH MAIN ST'
p393
I100
I15948
tp394
sS'TRIPPS LANE'
p395
(S'TRIPOLI ST'
p396
I59
I18077
tp397
sS'B CHARLES ST'
p398
(S'CHARLES ST'
p399
I95
I16096
tp400
sS'WARREN'
p401
(S'WARREN ST'
p402
I100
I17349
tp403
sS'-1218 BROAD'
p404
(S'BROAD ST'
p405
I83
I15793
tp406
sS'JASTRAM'
p407
(S'JASTRAM ST'
p408
I100
I17547
tp409
sS"ATWELLS'AV"
p410
(S'ATWELLS AVE'
p411
I100
I15775
tp412
sS'A PLAINFIELD'
p413
(S'PLAINFIELD ST'
p414
I95
I17994
tp415
sS'MARENGO'
p416
(S'MARENGO ST'
p417
I100
I15901
tp418
sS'WADSWORTH .-'
p419
(S'WADSWORTH ST'
p420
I100
I17346
tp421
sS'NEW YORK AV'
p422
(S'NEW YORK AVE'
p423
I100
I16751
tp424
sS'HAWTHORNE'
p425
(S'HAWTHORNE ST'
p426
I100
I16225
tp427
sS'WATERMAN ST.'
p428
(g227
I100
I15988
tp429
sS'PAGE'
p430
(g188
I100
I15923
tp431
sS'WESTMINSTER-'
p432
(g2
I100
I15991
tp433
sS'WESTMINSTER,'
p434
(g2
I100
I15991
tp435
sS'WESTMINSTER.'
p436
(g2
I100
I15991
tp437
sS'310'
p438
(S'10TH ST'
p439
I57
I16868
tp440
sS'ALTHEA'
p441
(S'ALTHEA ST'
p442
I100
I17152
tp443
sS'SOCIAL'
p444
(S'SOCIAL ST'
p445
I100
I16460
tp446
sS"WESTMINSTER'"
p447
(g2
I100
I15991
tp448
sS'ATWELLS AVA'
p449
(g411
I89
I15775
tp450
sS'FRIENDSHIP'
p451
(S'FRIENDSHIP ST'
p452
I100
I15858
tp453
sS'GLOBE'
p454
(S'GLOBE ST'
p455
I100
I15865
tp456
sS'ANZELL ST'
p457
(S'ANGELL ST'
p458
I86
I16890
tp459
sS'CLAVERICK'
p460
(S'CLAVERICK ST'
p461
I100
I15809
tp462
sS'WEYBOSSET'
p463
(S'WEYBOSSET ST'
p464
I100
I15992
tp465
sS'S ANGELL'
p466
(S'SOUTH ANGELL ST'
p467
I100
I17093
tp468
sS'I WILLARD AV'
p469
(S'WILLARD ST'
p470
I94
I16545
tp471
sS'PEQUOT'
p472
(S'PEQUOT ST'
p473
I100
I15930
tp474
sS'WEYBOSSET RMS 49-50'
p475
(g180
I82
I15992
tp476
sS'ASSN MACHINISTS 59 CHESTNUT'
p477
(S'MASSACHUSETTS AV'
p478
I55
I16725
tp479
sS'RESERVOIR AV'
p480
(S'RESERVOIR AVE'
p481
I100
I17303
tp482
sS'WH-ITMARSH'
p483
(S'WHITMARSH ST'
p484
I91
I17355
tp485
sS"WARNER'S LANE"
p486
(S'WARNERS LN'
p487
I75
I15985
tp488
sS'WEYBOSSET MI 301'
p489
(g180
I86
I15992
tp490
sS'MONTICELLO'
p491
(S'MONTICELLO ST'
p492
I100
I16348
tp493
sS'XFORDST'
p494
(S'OXFORD ST'
p495
I77
I16764
tp496
sS'DABOLL'
p497
(S'DABOLL ST'
p498
I100
I17191
tp499
sS'SCHESTNUTST'
p500
(S'CHESTNUT ST'
p501
I84
I15807
tp502
sS'EXCHANGE PL M 306'
p503
(g292
I82
I15845
tp504
sS'MARIETTA'
p505
(S'MARIETTA ST'
p506
I100
I16314
tp507
sS'SABIN RM'
p508
(S'SABIN ST'
p509
I88
I15950
tp510
sS'ADELAIDE AV'
p511
(S'ADELAIDE AVE'
p512
I100
I17148
tp513
sS'BEVERLY'
p514
(S'BEVERLY ST'
p515
I100
I15783
tp516
sS'SUTTON'
p517
(S'SUTTON ST'
p518
I100
I15966
tp519
sS'WINSLOW'
p520
(S'WINSLOW ST'
p521
I100
I15998
tp522
sS'WESHRFLNSTER'
p523
(g2
I70
I15991
tp524
sS'MEETING'
p525
(S'MEETING ST'
p526
I100
I15907
tp527
sS'I CLEMENCE'
p528
(S'CLEMENCE ST'
p529
I94
I15810
tp530
sS'KENYON'
p531
(S'KENYON ST'
p532
I100
I15888
tp533
sS') ATWELLS AV'
p534
(g411
I100
I15775
tp535
sS'CALDERWOOD RD'
p536
(S'CALDER ST'
p537
I75
I17175
tp538
sS'CALLA.'
p539
(S'CALLA ST'
p540
I100
I16611
tp541
sS'CHAD BROWN'
p542
(S'CHAD BROWN ST'
p543
I100
I17432
tp544
sS'RARYST'
p545
(S'CRARY ST'
p546
I73
I15818
tp547
sS'TOURO'
p548
(S'TOURO ST'
p549
I100
I16498
tp550
sS'N MAIN'
p551
(g31
I100
I15916
tp552
sS'BENTH ST'
p553
(S'BENTON ST'
p554
I77
I17771
tp555
sS'ARNOLD'
p556
(S'ARNOLD CT'
p557
I100
I16028
tp558
sS"COHZDON '"
p559
(S'CONGDON ST'
p560
I71
I16932
tp561
sS'WESTMINSTER -'
p562
(g2
I100
I15991
tp563
sS'UPDIKE'
p564
(S'UPDIKE ST'
p565
I100
I17342
tp566
sS'OSIMSAV'
p567
(S'SIMS AVE'
p568
I73
I18041
tp569
sS'WEYBOSSET RM 309'
p570
(g180
I86
I15992
tp571
sS'6'
p572
(S'6TH ST'
p573
I50
I16876
tp574
sS'VERMONT AV'
p575
(S'VERMONT AVE'
p576
I100
I16845
tp577
sS'CATHEDRAL AV'
p578
(S'CATHEDRAL AVE'
p579
I100
I17429
tp580
sS'BLACK'
p581
(S'BLACKSTONE ST'
p582
I67
I15785
tp583
sS'DYER.'
p584
(S'DYER ST'
p585
I100
I15831
tp586
sS'BENETIT'
p587
(g350
I86
I15781
tp588
sS'HARTFORD AV'
p589
(S'HARTFORD AVE'
p590
I100
I17889
tp591
sS'PLAINFLELD 28'
p592
(S'PLAINFIELD ST'
p593
I84
I17994
tp594
sS'BOND'
p595
(S'BOND ST'
p596
I100
I15786
tp597
sS'BATES'
p598
(S'BATES ST'
p599
I100
I21739
tp600
sS'CLARENCE'
p601
(S'CLARENCE ST'
p602
I100
I16104
tp603
sS'-1961 WESTMINSTER'
p604
(g2
I90
I15991
tp605
sS'WESTMINSTER ST, 211'
p606
(g162
I88
I15991
tp607
sS'FEDERAL'
p608
(S'FEDERAL ST'
p609
I100
I15848
tp610
sS'PLAIN'
p611
(S'PLAIN ST'
p612
I100
I15934
tp613
sS'FRIENDSHIP 6TH'
p614
(S'FRIENDSHIP ST'
p615
I91
I15858
tp616
sS'W PARK ST'
p617
(S'WEST PARK ST'
p618
I100
I17704
tp619
sS'KOSSUTH'
p620
(S'KOSSUTH ST'
p621
I100
I17923
tp622
sS'WESTMINSTER'
p623
(S'WESTMINSTER ST'
p624
I100
I15991
tp625
sS'NISBET'
p626
(S'NISBET ST'
p627
I100
I17055
tp628
sS'WATTIRMAN'
p629
(S'WATERMAN ST'
p630
I82
I15988
tp631
sS'D 11'
p632
(g55
I58
I16869
tp633
sS'VIOLA'
p634
(S'VIOLA ST'
p635
I100
I18091
tp636
sS'CALENDER 3D'
p637
(g537
I78
I17175
tp638
sS'HOUSTON'
p639
(S'HOUSTON ST'
p640
I100
I16696
tp641
sS'CALENDAR'
p642
(S'CALDAR RD'
p643
I86
I16078
tp644
sS'PINEHURST AV'
p645
(S'PINEHURST AVE'
p646
I100
I17626
tp647
sS'DEBORAH'
p648
(S'DEBORAH ST'
p649
I100
I17820
tp650
sS'-197 WESTMINSTER'
p651
(g2
I92
I15991
tp652
sS'EVERGREEN'
p653
(S'EVERGREEN ST'
p654
I100
I16966
tp655
sS'CHESTNUT A'
p656
(S'CHESTNUT ST'
p657
I94
I15807
tp658
sS'ANGELI ST'
p659
(g458
I86
I16890
tp660
sS'STERLING AV'
p661
(S'STERLING AVE'
p662
I100
I18055
tp663
sS'LATHAM'
p664
(S'CHATHAM ST'
p665
I77
I16098
tp666
sS'BROAD PAWTUCKET'
p667
(S'PAWTUXET AV'
p668
I71
I16771
tp669
sS'HOPE ANNEX 159 PROSPECT'
p670
(S'PROSPECT ST'
p671
I76
I16409
tp672
sS'7 CRAWFORD'
p673
(S'BRADFORD ST'
p674
I71
I15790
tp675
sS'NICHOLS'
p676
(S'NICHOLS ST'
p677
I100
I21722
tp678
sS'WALNUT'
p679
(S'WALNUT ST'
p680
I100
I16527
tp681
sS'IVES'
p682
(S'IVES ST'
p683
I100
I17007
tp684
sS'MATHEWSON'
p685
(S'MATHEWSON ST'
p686
I100
I15904
tp687
sS'FOUNTAIN'
p688
(S'FOUNTAIN ST'
p689
I100
I15853
tp690
sS'WEYBOS SET'
p691
(g180
I87
I15992
tp692
sS'COMMODORE'
p693
(S'COMMODORE ST'
p694
I100
I16115
tp695
sS'NELLIE'
p696
(S'NELLIE ST'
p697
I100
I16355
tp698
sS'MALVERN'
p699
(S'MALVERN ST'
p700
I100
I16307
tp701
sS'ELLERY'
p702
(S'ELLERY ST'
p703
I100
I17844
tp704
sS'PAWTUCKET'
p705
(S'PAWTUXET AV'
p706
I82
I16771
tp707
sS'ARDOENE'
p708
(S'ARDOENE ST'
p709
I100
I17157
tp710
sS'CRANSTON'
p711
(g40
I100
I15817
tp712
sS'WESTMINSTER STRM934'
p713
(g162
I86
I15991
tp714
sS'SYCAMORE'
p715
(S'SYCAMORE ST'
p716
I100
I18063
tp717
sS'-130 W EXCHANGE'
p718
(g201
I93
I15982
tp719
sS'LOWELL AV'
p720
(S'LOWELL AVE'
p721
I100
I17938
tp722
sS'-96 DORRANCE'
p723
(S'DORRANCE ST'
p724
I92
I15829
tp725
sS'ROCHAMBEAU AV'
p726
(S'ROCHAMBEAU AVE'
p727
I100
I17088
tp728
sS'RIDGE'
p729
(S'RIDGE ST'
p730
I100
I18010
tp731
sS'), 1450'
p732
(S'I 195'
p733
I50
I15880
tp734
sS'PINE 5TH'
p735
(S'PINE HILL AVE'
p736
I85
I16780
tp737
sS'WESTMINSTER STRM938'
p738
(g162
I86
I15991
tp739
sS'DE PINEDO ST'
p740
(S'DEPINEDO ST'
p741
I91
I16140
tp742
sS'UNION RM'
p743
(S'UNION ST'
p744
I88
I15977
tp745
sS'WEYBOSSET STRM506'
p746
(g174
I84
I15992
tp747
sS'BOGMAN'
p748
(S'BOGMAN ST'
p749
I100
I16597
tp750
sS'LABAN'
p751
(S'LABAN ST'
p752
I100
I17924
tp753
sS'BRIDGHAM'
p754
(S'BRIDGHAM ST'
p755
I100
I17169
tp756
sS'MOOREFIELD'
p757
(S'MOOREFIELD ST'
p758
I100
I17965
tp759
sS'AMES'
p760
(S'AMES ST'
p761
I100
I15771
tp762
sS'ARMINGTON AV'
p763
(S'ARMINGTON ST'
p764
I100
I16565
tp765
sS'OLNEYVILLE AV'
p766
(S'OLNEYVILLE SQ'
p767
I93
I17978
tp768
sS'BENENT'
p769
(g350
I77
I15781
tp770
sS'CALHOUN AV'
p771
(S'CALHOUN AVE'
p772
I100
I17176
tp773
sS'DORR'
p774
(S'DORR ST'
p775
I100
I17471
tp776
sS'CANDACE'
p777
(S'CANDACE ST'
p778
I100
I17422
tp779
sS'SABIN'
p780
(g509
I100
I15950
tp781
sS'RICHMOND TOP'
p782
(g26
I90
I15946
tp783
sS'1'
p784
(S'1ST ST'
p785
I50
I16871
tp786
sS'MANNING'
p787
(S'MANNING ST'
p788
I100
I17034
tp789
sS'EDDY 2'
p790
(g64
I90
I15834
tp791
sS'LEIUREL HILL AV'
p792
(S'LAUREL HILL AVE'
p793
I82
I17926
tp794
sS'POPLAR'
p795
(S'POPLAR ST'
p796
I100
I17076
tp797
sS'BENEVOLENT'
p798
(S'BENEVOLENT ST'
p799
I100
I16902
tp800
sS'ACORN'
p801
(S'ACORN ST'
p802
I100
I15764
tp803
sS'WAINWRIGHT'
p804
(S'WAINWRIGHT ST'
p805
I100
I17706
tp806
sS'VIRGINIA AV'
p807
(S'VIRGINIA AVE'
p808
I100
I16849
tp809
sS'CORLISS'
p810
(S'CORLISS ST'
p811
I100
I16123
tp812
sS'PAYTON'
p813
(S'PAYTON ST'
p814
I100
I16773
tp815
sS'ATLANTIC AV'
p816
(S'ATLANTIC AVE'
p817
I100
I16035
tp818
sS'GODDARD'
p819
(S'GODDARD ST'
p820
I100
I17515
tp821
sS'-211'
p822
(g55
I57
I16869
tp823
sS'LANCASTER'
p824
(S'LANCASTER ST'
p825
I100
I17015
tp826
sS'P0CASSET AV'
p827
(g117
I88
I17995
tp828
sS"CHALKSTONE AV; '"
p829
(S'CHALKSTONE AVE'
p830
I100
I17433
tp831
sS'E MANNING'
p832
(S'EAST MANNING ST'
p833
I100
I16951
tp834
sS"VALLEY-SE'E PAGE 150"
p835
(S'VALLEY GREEN CT'
p836
I75
I16512
tp837
sS'ALLEN6S AV'
p838
(S'ALLENS AVE'
p839
I92
I15768
tp840
sS'ALLEN1S AV'
p841
(g839
I92
I15768
tp842
sS'WESTMINSBER ST'
p843
(g162
I92
I15991
tp844
sS'DIKE'
p845
(S'DIKE ST'
p846
I100
I17827
tp847
sS'B UNION AVE'
p848
(S'UNION AVE'
p849
I95
I16507
tp850
sS'BROAD-'
p851
(g405
I100
I15793
tp852
sS'ANGELL .'
p853
(S'ANGELL RD'
p854
I100
I16022
tp855
sS'PEARL'
p856
(S'PEARL AVE'
p857
I100
I16394
tp858
sS'COOKE'
p859
(S'COOKE ST'
p860
I100
I16933
tp861
sS'-20 CONGDON'
p862
(g560
I91
I16932
tp863
sS'LEDGE'
p864
(S'LEDGE ST'
p865
I100
I16275
tp866
sS'WALCOTT PAWTUCKET'
p867
(g668
I69
I16771
tp868
sS'A ADMIRAL ST'
p869
(S'ADMIRAL ST'
p870
I95
I16005
tp871
sS'KING'
p872
(S'KING AV'
p873
I100
I16711
tp874
sS'PAUL'
p875
(S'PAUL ST'
p876
I100
I16393
tp877
sS'ATWOOD-'
p878
(S'ATWOOD AVE'
p879
I100
I16037
tp880
sS'GANO'
p881
(S'GANO ST'
p882
I100
I15861
tp883
sS'ABORN RM2'
p884
(S'ABORN ST'
p885
I85
I15763
tp886
sS'BRADFORD'
p887
(g674
I100
I15790
tp888
sS'MINERAL SPRING AVE'
p889
(S'MINERAL SPRING AV'
p890
I100
I16343
tp891
sS'CUSTOM HOUSE 2DFL'
p892
(S'CUSTOM HOUSE ST'
p893
I91
I15820
tp894
sS'N MAIN RM4'
p895
(S'NORTH MAIN ST'
p896
I91
I15916
tp897
sS'BLACKSTONE'
p898
(S'BLACKSTONE ST'
p899
I100
I15785
tp900
sS'DEANST'
p901
(S'DEAN ST'
p902
I80
I15825
tp903
sS'CRAWFORD SQ'
p904
(g674
I69
I15790
tp905
sS'ROSEDALE'
p906
(S'ROSEDALE ST'
p907
I100
I18017
tp908
sS'NORTH MAIN SUITE 6-'
p909
(g896
I85
I15916
tp910
sS', 59'
p911
(S'I 95'
p912
I41
I15881
tp913
sS'MELROSE'
p914
(S'MELROSE ST'
p915
I100
I17263
tp916
sS'GO 414 ORMS'
p917
(g14
I76
I16384
tp918
sS'KNOWLES'
p919
(S'KNOWLES ST'
p920
I100
I17014
tp921
sS'LENOX AV'
p922
(S'LENOX AVE'
p923
I100
I17244
tp924
sS'SABIN 2D'
p925
(g509
I88
I15950
tp926
sS'WESTMINSTER 4TH NOOR'
p927
(g2
I85
I15991
tp928
sS"CRANSTON '"
p929
(g73
I100
I15817
tp930
sS'DELAINE'
p931
(S'DELAINE ST'
p932
I100
I17822
tp933
sS'WILLIAM ST'
p934
(S'WILLIAMS ST'
p935
I94
I15997
tp936
sS') HOPE'
p937
(g242
I100
I15875
tp938
sS'ABBOTT PARK PL 5TH FL'
p939
(S'ABBOTT PARK PL'
p940
I90
I15762
tp941
sS'VZ HUDSON ST'
p942
(S'HUDSON ST'
p943
I93
I17903
tp944
sS'ELMGR OVE AVE'
p945
(g204
I86
I16960
tp946
sS'A EDDY'
p947
(g64
I90
I15834
tp948
sS'CRANSTON 7'
p949
(g73
I94
I15817
tp950
sS'BROADWAY REEVES JAMES A 1420 BROAD ST'
p951
(g114
I73
I15794
tp952
sS'-394 WESTMINSTER-'
p953
(g2
I92
I15991
tp954
sS'WEYBOESET'
p955
(g180
I89
I15992
tp956
sS'EDDY 3D 11'
p957
(g64
I78
I15834
tp958
sS'GREENWICH'
p959
(S'GREENWICH ST'
p960
I100
I17220
tp961
sS'WESTMINSTER STRM 19'
p962
(g162
I86
I15991
tp963
sS'WESTMINSTER STRM 18'
p964
(g162
I86
I15991
tp965
sS'-114 S MAIN'
p966
(S'SOUTH MAIN ST'
p967
I91
I15948
tp968
sS'SEABURY'
p969
(S'SEABURY ST'
p970
I100
I17320
tp971
sS'RICHMOND 4'
p972
(g26
I94
I15946
tp973
sS'KNIGHT;'
p974
(S'KNIGHT ST'
p975
I100
I15890
tp976
sS'BOWEN'
p977
(S'BOWEN ST'
p978
I100
I15789
tp979
sS'CHA&EE'
p980
(S'CHACE AVE'
p981
I74
I16921
tp982
sS'PEMBROKE AV'
p983
(S'PEMBROKE AVE'
p984
I100
I17624
tp985
sS'DANFORTH'
p986
(S'DANFORTH ST'
p987
I100
I17462
tp988
sS'DIMAN P1'
p989
(S'DIMAN PL'
p990
I94
I16943
tp991
sS'VEAZIE'
p992
(S'VEAZIE ST'
p993
I100
I16515
tp994
sS'HAZAEL'
p995
(S'HAZAEL ST'
p996
I100
I16226
tp997
sS'WESTMINSTER 16TH'
p998
(g2
I90
I15991
tp999
sS'ATWOOD'
p1000
(g879
I100
I16037
tp1001
sS'WESTMINSTER RMS'
p1002
(g2
I92
I15991
tp1003
sS'BELAIR AV'
p1004
(S'BELAIR AVE'
p1005
I100
I16900
tp1006
sS'NIAGARA'
p1007
(S'NIAGARA ST'
p1008
I100
I17273
tp1009
sS'WESTMINSTER 4TH TL'
p1010
(g2
I88
I15991
tp1011
sS'EDDY-'
p1012
(g64
I100
I15834
tp1013
sS'CARLETON'
p1014
(S'CARLETON ST'
p1015
I100
I17427
tp1016
sS'408'
p1017
(S'4TH ST'
p1018
I33
I16874
tp1019
sS'FOUNDATION'
p1020
(g689
I78
I15853
tp1021
sS'DOVLE AV'
p1022
(S'DOVE ST'
p1023
I89
I16945
tp1024
sS'SHELDON'
p1025
(S'SHELDON ST'
p1026
I100
I16818
tp1027
sS'HAWTHORNE OFFICE HOURS'
p1028
(S'HAWTHORNE PL'
p1029
I79
I16224
tp1030
sS'ATWELLS &V'
p1031
(g411
I94
I15775
tp1032
sS'BROAD'
p1033
(S'BROAD ST'
p1034
I100
I15793
tp1035
sS'WHAT CHEER AV'
p1036
(S'WHAT CHEER AVE'
p1037
I100
I18104
tp1038
sS'KILLINGLY'
p1039
(S'KILLINGLY ST'
p1040
I100
I17917
tp1041
sS'GLENHAM'
p1042
(S'GLENHAM ST'
p1043
I100
I17218
tp1044
sS'WASH 2D'
p1045
(S'WASHINGTON ST'
p1046
I86
I21700
tp1047
sS'WESTMINSTER RMS 308 309'
p1048
(g624
I82
I15991
tp1049
sS'N MAIN 4TH 11'
p1050
(g896
I87
I15916
tp1051
sS'WESTMINSTER RM7'
p1052
(g2
I92
I15991
tp1053
sS'WESTMINSTER RM6'
p1054
(g2
I92
I15991
tp1055
sS'WESTMINSTER RM1'
p1056
(g2
I92
I15991
tp1057
sS'CALENDER'
p1058
(g537
I86
I17175
tp1059
sS'WESTMINSTER RM2'
p1060
(g2
I92
I15991
tp1061
sS'OLNEY'
p1062
(S'OLNEY ST'
p1063
I100
I16377
tp1064
sS'ROBINSON'
p1065
(S'ROBINSON ST'
p1066
I100
I16798
tp1067
sS'PRINCE'
p1068
(S'PRINCE ST'
p1069
I100
I15941
tp1070
sS'BENEM ST'
p1071
(S'EBEN ST'
p1072
I73
I16163
tp1073
sS'WESTBAINSTER'
p1074
(g2
I87
I15991
tp1075
sS'HARRISON'
p1076
(S'HARRISON ST'
p1077
I100
I17226
tp1078
sS'HEMPSTEAD'
p1079
(S'HEMPSTEAD ST'
p1080
I100
I17232
tp1081
sS'MTPIEASANT AV'
p1082
(S'PLEASANT AV'
p1083
I80
I16399
tp1084
sS'MCMILLEN'
p1085
(S'MCMILLEN ST'
p1086
I100
I16329
tp1087
sS'-106 BLACKSTONE BLVD'
p1088
(S'BLACKSTONE BLVD'
p1089
I94
I16904
tp1090
sS'ABORN'
p1091
(g885
I100
I15763
tp1092
sS'MAWNEY'
p1093
(S'MAWNEY ST'
p1094
I100
I17261
tp1095
sS'HIGH PAWTUCKET'
p1096
(g668
I73
I16771
tp1097
sS'HOME AV'
p1098
(S'HOME AVE'
p1099
I100
I17534
tp1100
sS'SOUTH MAIN BRANCHES EMPIRE-ABORN STREETS 87-93 EMPIRE 22-30 ABORN,OLNEYVILLE BRANCH 19171921 WESTMINSTER'
p1101
(g2
I59
I15991
tp1102
sS'PEARL-'
p1103
(S'PEARL AVE'
p1104
I100
I16394
tp1105
sS'NELSON'
p1106
(S'NELSON ST'
p1107
I100
I17603
tp1108
sS'PROGRESS'
p1109
(S'PROGRESS AVE'
p1110
I100
I18001
tp1111
sS'BELLEVUE AV'
p1112
(S'BELLEVUE AVE'
p1113
I100
I16051
tp1114
sS'G BROAD'
p1115
(g405
I91
I15793
tp1116
sS'& EASTWOOD AVE'
p1117
(S'EASTWOOD AVE'
p1118
I100
I17839
tp1119
sS'CLIFF'
p1120
(S'CLIFF ST'
p1121
I100
I17441
tp1122
sS'PROGRESS AV'
p1123
(g1110
I100
I18001
tp1124
sS'A'
p1125
(S'A ST'
p1126
I100
I17146
tp1127
sS'BYFIELD'
p1128
(S'BYFIELD ST'
p1129
I100
I16607
tp1130
sS'BOWDOIN'
p1131
(S'BOWDOIN ST'
p1132
I100
I17778
tp1133
sS'-24 DEXTER PAWTUCKET -'
p1134
(g668
I67
I16771
tp1135
sS'EDENDALE AVE'
p1136
(S'VERNDALE AVE'
p1137
I79
I16846
tp1138
sS'SPRAGUE ATTLEBORO FALLS MASS'
p1139
(S'ALBRO ST'
p1140
I50
I15767
tp1141
sS'RADCLIFFE AV'
p1142
(S'RADCLIFFE AVE'
p1143
I100
I17634
tp1144
sS'DOUGLAS AV'
p1145
(S'DOUGLAS AVE'
p1146
I100
I16154
tp1147
sS'9 CALENDER'
p1148
(g537
I80
I17175
tp1149
sS'STENTON AV'
p1150
(S'STENTON AVE'
p1151
I100
I17104
tp1152
sS'W RIVER'
p1153
(S'WEST RIVER ST'
p1154
I100
I16541
tp1155
sS'S WATER'
p1156
(S'SOUTH WATER ST'
p1157
I100
I15949
tp1158
sS'681 BROADWAY'
p1159
(g114
I90
I15794
tp1160
sS'FOSDYKE'
p1161
(S'FOSDYKE ST'
p1162
I100
I16973
tp1163
sS'ISLAND CHESS CLUB 681'
p1164
(S'RHODE ISLAND COLL'
p1165
I73
I17643
tp1166
sS'COLFAX'
p1167
(S'COLFAX ST'
p1168
I100
I16626
tp1169
sS'DORRANCE MM 405'
p1170
(g724
I85
I15829
tp1171
sS'UNIVERSITY AV'
p1172
(S'UNIVERSITY AVE'
p1173
I100
I17119
tp1174
sS'WHITEHALL'
p1175
(S'WHITEHALL ST'
p1176
I100
I18106
tp1177
sS'WAYLAND AV'
p1178
(S'WAYLAND AVE'
p1179
I100
I17125
tp1180
sS'PLAIN-'
p1181
(S'PLAIN ST'
p1182
I100
I15934
tp1183
sS'SUMMIT AV'
p1184
(S'SUMMIT AVE'
p1185
I100
I17106
tp1186
sS'PARK'
p1187
(S'PARK ST'
p1188
I100
I16391
tp1189
sS'WESTMINSTER STRM630'
p1190
(g162
I86
I15991
tp1191
sS'RANDALL SQ SUITE 104'
p1192
(S'RANDALL SQ'
p1193
I83
I16416
tp1194
sS'GREENE'
p1195
(S'GREENE ST'
p1196
I100
I15866
tp1197
sS'A RANDALL'
p1198
(S'RANDALL RD'
p1199
I94
I16415
tp1200
sS'WEYBOSSET RMS'
p1201
(g180
I91
I15992
tp1202
sS'COLE AV'
p1203
(S'COLE AVE'
p1204
I100
I16928
tp1205
sS'HWAHERMAN ST'
p1206
(g227
I84
I15988
tp1207
sS'7'
p1208
(S'7TH ST'
p1209
I50
I16877
tp1210
sS', 266'
p1211
(S'2ND ST'
p1212
I33
I16872
tp1213
sS'OLIVE'
p1214
(S'OLIVE ST'
p1215
I100
I17061
tp1216
sS'ATWELLA AVE'
p1217
(S'ATWELLS AVE'
p1218
I88
I15775
tp1219
sS'J EWETT ST'
p1220
(S'JEWETT ST'
p1221
I93
I17549
tp1222
sS'MORRIS AV'
p1223
(S'MORRIS AVE'
p1224
I100
I17047
tp1225
sS'ABBOTT'
p1226
(S'ABBOTT ST'
p1227
I100
I16880
tp1228
sS'MASSACHUSETTS AVE'
p1229
(S'MASSACHUSETTS AV'
p1230
I100
I16725
tp1231
sS'HOSPITAL TRUST BLDG, 15 WESTMINSTER ST,'
p1232
(g162
I77
I15991
tp1233
sS'PILGRIM'
p1234
(S'PILGRIM DR'
p1235
I100
I16778
tp1236
sS'GRAY'
p1237
(S'GRAY ST'
p1238
I100
I16210
tp1239
sS'HOYLE'
p1240
(S'DOYLE AVE'
p1241
I80
I16946
tp1242
sS'TO 1961 WESTMINSTER'
p1243
(g2
I86
I15991
tp1244
sS'WASHINGTON'
p1245
(S'WASHINGTON ST'
p1246
I100
I15987
tp1247
sS'PLAINIIELD'
p1248
(g593
I90
I17994
tp1249
sS'N MAIN 4THII'
p1250
(g896
I88
I15916
tp1251
sS'ALGER AV'
p1252
(S'ALGER AVE'
p1253
I100
I17150
tp1254
sS'BROADWAY LE'
p1255
(g114
I92
I15794
tp1256
sS'LUNA'
p1257
(S'LUNA ST'
p1258
I100
I16299
tp1259
sS'AIRPORT RD'
p1260
(S'ARBOR DR'
p1261
I67
I17380
tp1262
sS'TO 77 WESTMINSTER'
p1263
(g624
I89
I15991
tp1264
sS'WEYBOSSET STREET,'
p1265
(g174
I86
I15992
tp1266
sS'63 WASH'
p1267
(g20
I86
I21700
tp1268
sS'WHITMARSH'
p1269
(g484
I100
I17355
tp1270
sS'FORD'
p1271
(S'FORD ST'
p1272
I100
I17212
tp1273
sS'CONNECTICUT MUTUAL LIFE INS CO 111'
p1274
(S'CONSTITUTION HILL ST'
p1275
I52
I16121
tp1276
sS'DORMNCE ST'
p1277
(g52
I83
I15829
tp1278
sS'CALENDERM'
p1279
(g537
I80
I17175
tp1280
sS'REDWOOD'
p1281
(S'REDWOOD DR'
p1282
I100
I17640
tp1283
sS'LINTON'
p1284
(S'LINTON ST'
p1285
I100
I17568
tp1286
sS'HOME LIFE INSURANCE CO OF N Y 111 WESTMINSTER'
p1287
(g2
I68
I15991
tp1288
sS'KNIZHT ST'
p1289
(S'KNIGHT ST'
p1290
I86
I15890
tp1291
sS'MASON ST'
p1292
(S'MATSON AVE'
p1293
I91
I17953
tp1294
sS'WESTMINSTER BRANCHES'
p1295
(g2
I85
I15991
tp1296
sS'GLENDALE AV'
p1297
(S'GLENDALE AVE'
p1298
I100
I16979
tp1299
sS'RANKIN AV'
p1300
(S'RANKIN AVE'
p1301
I100
I17636
tp1302
sS'MANTON AV'
p1303
(S'MANTON AVE'
p1304
I100
I17947
tp1305
sS"; ALLEN'S AV"
p1306
(g839
I81
I15768
tp1307
sS'WESTMINSTER STRM908'
p1308
(g162
I86
I15991
tp1309
sS'MASSIE AV'
p1310
(S'MASSIE AVE'
p1311
I100
I16727
tp1312
sS'HIDDEN'
p1313
(S'HIDDEN ST'
p1314
I100
I16996
tp1315
sS'CRAWFORD'
p1316
(g674
I75
I15790
tp1317
sS'HOSPITAL'
p1318
(g327
I100
I15878
tp1319
sS'WESTMINSTER RMS 209-210'
p1320
(g624
I82
I15991
tp1321
sS'CHESTNUT'
p1322
(S'CHESTNUT ST'
p1323
I100
I15807
tp1324
sS'CHAPMAN'
p1325
(S'CHAPMAN ST'
p1326
I100
I16617
tp1327
sS'OLNEYVILLE SQ RM8'
p1328
(S'OLNEYVILLE SQ'
p1329
I93
I17978
tp1330
sS'JACKSON'
p1331
(S'JACKSON ST'
p1332
I100
I16253
tp1333
sS'WESTMINSTER STRM71'
p1334
(g162
I88
I15991
tp1335
sS'A BROAD'
p1336
(g405
I91
I15793
tp1337
sS'PALMER'
p1338
(S'PALMER DR'
p1339
I100
I16387
tp1340
sS'SPRING'
p1341
(S'SPRING ST'
p1342
I100
I16465
tp1343
sS'THURBERS AV'
p1344
(S'THURBERS AVE'
p1345
I100
I16839
tp1346
sS'WESTMINSTER STRM78'
p1347
(g162
I88
I15991
tp1348
sS'SLOCUM'
p1349
(S'SLOCUM ST'
p1350
I100
I18043
tp1351
sS'ATWELLS AV'
p1352
(S'ATWELLS AVE'
p1353
I100
I15775
tp1354
sS'WESLEYAN AV1'
p1355
(S'WESLEYAN AVE'
p1356
I90
I17353
tp1357
sS'DE FOE P1'
p1358
(S'DEFOE PL'
p1359
I78
I16941
tp1360
sS'CHESTER AV'
p1361
(S'CHESTER AVE'
p1362
I100
I16619
tp1363
sS'G CHALKSTONE AV'
p1364
(g830
I95
I17433
tp1365
sS'WICKENDEN STV'
p1366
(S'WICKENDEN ST'
p1367
I91
I15995
tp1368
sS'; CRANSTON'
p1369
(g73
I100
I15817
tp1370
sS'SACKETT'
p1371
(S'SACKETT ST'
p1372
I100
I17314
tp1373
sS'BISHOP ST'
p1374
(S'BRISTOW ST'
p1375
I68
I16069
tp1376
sS'STEWART'
p1377
(S'STEWART ST'
p1378
I100
I15963
tp1379
sS'BROWN'
p1380
(g263
I100
I16073
tp1381
sS'WILDWOOD AV'
p1382
(S'WILDWOOD AVE'
p1383
I100
I17357
tp1384
sS'FENNER RM1'
p1385
(S'FENNER ST'
p1386
I87
I15849
tp1387
sS'FENNER RM3'
p1388
(g1386
I87
I15849
tp1389
sS'-24 DEXTER PAWTUCKET'
p1390
(g668
I67
I16771
tp1391
sS'WHITTIER AV'
p1392
(S'WHITTIER AVE'
p1393
I100
I18107
tp1394
sS'WESTMINSTER RMB'
p1395
(g2
I92
I15991
tp1396
sS'GESLER'
p1397
(S'GESLER ST'
p1398
I100
I17864
tp1399
sS'SWAN'
p1400
(S'SWAN CT'
p1401
I100
I16481
tp1402
sS'BRANCH AV'
p1403
(S'BRANCH AVE'
p1404
I100
I16067
tp1405
sS'979'
p1406
(g912
I34
I15881
tp1407
sS'SAYLES'
p1408
(S'SAYLES ST'
p1409
I100
I16809
tp1410
sS'BUTLER AV'
p1411
(S'BUTLER AVE'
p1412
I100
I16915
tp1413
sS'2'
p1414
(S'2ND ST'
p1415
I50
I16872
tp1416
sS'BEAUFORT'
p1417
(S'BEAUFORT ST'
p1418
I100
I17397
tp1419
sS'PLAINFLELD'
p1420
(g593
I90
I17994
tp1421
sS'SOMERSET'
p1422
(g254
I100
I17325
tp1423
sS'HARBORSIDE BLVD,'
p1424
(S'HARBORSIDE BLVD'
p1425
I100
I16683
tp1426
sS'HOSPITAL TRUST TOWER PROVIDENCE, RI 02903'
p1427
(S'PROVIDENCE PL'
p1428
I71
I17631
tp1429
sS'ORANGE'
p1430
(g245
I100
I15921
tp1431
sS'PARNELL'
p1432
(S'PARNELL ST'
p1433
I100
I17987
tp1434
sS'LINDEN'
p1435
(S'LINDEN DR'
p1436
I100
I17023
tp1437
sS'WEYBOSSET 1 ,'
p1438
(g180
I95
I15992
tp1439
sS'PRAIRIE AV'
p1440
(S'PRAIRIE AVE'
p1441
I100
I16787
tp1442
sS'CENTRAL'
p1443
(S'CENTRAL AVE'
p1444
I100
I16095
tp1445
sS'NIANTIC AV'
p1446
(S'NIANTIC AVE'
p1447
I100
I17274
tp1448
sS'FRONT PAWTUCKET'
p1449
(g668
I71
I16771
tp1450
sS'WOODBURY'
p1451
(S'WOODBURY RD'
p1452
I100
I16866
tp1453
sS'TAUNTON AV'
p1454
(S'STANTON ST'
p1455
I86
I18051
tp1456
sS"WEST' MINSTER"
p1457
(g2
I87
I15991
tp1458
sS'LAVAUGHN'
p1459
(S'LAVAUGHN ST'
p1460
I100
I17927
tp1461
sS'; KNIGHT'
p1462
(g975
I100
I15890
tp1463
sS"'CON"
p1464
(g802
I75
I15764
tp1465
sS"WESTMINSTER';"
p1466
(g2
I100
I15991
tp1467
sS'OGDEN'
p1468
(S'OGDEN ST'
p1469
I100
I17059
tp1470
sS'BRAYTON AV'
p1471
(S'BRAYTON AVE'
p1472
I100
I15791
tp1473
sS'A11EN1S AV'
p1474
(g839
I62
I15768
tp1475
sS'BURRINGTON'
p1476
(S'BURRINGTON ST'
p1477
I100
I21717
tp1478
sS'MATHEWSON STRM302'
p1479
(S'MATHEWSON ST'
p1480
I84
I15904
tp1481
sS'FENNER RML'
p1482
(g1386
I87
I15849
tp1483
sS'SHIP'
p1484
(S'SHIP ST'
p1485
I100
I15955
tp1486
sS'CRANSBON ST'
p1487
(g40
I89
I15817
tp1488
sS'CHARLES FIELD ST'
p1489
(g399
I88
I16096
tp1490
sS'RHODEST'
p1491
(S'RHODES ST'
p1492
I92
I15945
tp1493
sS'EATON'
p1494
(S'EATON ST'
p1495
I100
I17478
tp1496
sS'CROMWELL'
p1497
(S'CROMWELL ST'
p1498
I100
I17190
tp1499
sS'JOHN'
p1500
(S'JOHN ST'
p1501
I100
I16259
tp1502
sS'MAIN WOONSOCKET'
p1503
(S'WOONASQUATUCKET AV'
p1504
I66
I18113
tp1505
sS'PONTIAC'
p1506
(S'PONTIAC AVE'
p1507
I100
I17292
tp1508
sS'WESTMINSTER RM 23'
p1509
(g2
I89
I15991
tp1510
sS".184 ALLEN'S AV"
p1511
(g839
I74
I15768
tp1512
sS'A BRANCH AVE'
p1513
(S'BRANCH AVE'
p1514
I95
I16067
tp1515
sS'TRANSIT'
p1516
(S'TRANSIT ST'
p1517
I100
I15975
tp1518
sS"CRANSTON -'"
p1519
(g73
I100
I15817
tp1520
sS'11 HAYES'
p1521
(S'HAYES ST'
p1522
I88
I17522
tp1523
sS'WEST EXCHANGE'
p1524
(g201
I100
I15982
tp1525
sS'GEORGE WASHINGTON HWY'
p1526
(S'WASHINGTON PL'
p1527
I82
I15986
tp1528
sS'A WEB STER AV'
p1529
(S'WEBSTER AVE'
p1530
I77
I18098
tp1531
sS'RIVER AV,'
p1532
(S'RIVER AVE'
p1533
I100
I16423
tp1534
sS'RIVER AV-'
p1535
(S'RIVER AVE'
p1536
I100
I16423
tp1537
sS'ROCKLAND AV'
p1538
(S'ROCKLAND AVE'
p1539
I100
I17651
tp1540
sS"87, 40'DANLEL"
p1541
(S'DANIEL AVE'
p1542
I69
I17817
tp1543
sS'BEMON ST'
p1544
(S'BELMONT AVE'
p1545
I83
I17398
tp1546
sS"WEYBOSSET I'M 19"
p1547
(g180
I86
I15992
tp1548
sS'JUDITH'
p1549
(S'JUDITH ST'
p1550
I100
I17913
tp1551
sS'S MAIN ST'
p1552
(S'SOUTH MAIN ST'
p1553
I100
I15948
tp1554
sS'ANGELL STREET'
p1555
(S'ANGELL RD'
p1556
I81
I16022
tp1557
sS'ROANOKE'
p1558
(S'ROANOKE ST'
p1559
I100
I17648
tp1560
sS'BORDEN'
p1561
(S'BORDEN ST'
p1562
I100
I15787
tp1563
sS"WESTMINSTER-SE'ZE PAGE 182"
p1564
(g2
I79
I15991
tp1565
sS'VZ CRANSTON ST'
p1566
(g40
I94
I15817
tp1567
sS'COMSTOCK AV'
p1568
(S'COMSTOCK AVE'
p1569
I100
I16631
tp1570
sS'WIASFNXINSTER ST'
p1571
(g162
I70
I15991
tp1572
sS'MERCY'
p1573
(S'MERCY ST'
p1574
I100
I17959
tp1575
sS"W'ESLEYAN AV"
p1576
(g1356
I86
I17353
tp1577
sS'DELMAR AVE'
p1578
(S'DELMAR ST'
p1579
I100
I17194
tp1580
sS'-264 WEYBOSSET'
p1581
(g180
I91
I15992
tp1582
sS'B'
p1583
(S'JOB ST'
p1584
I50
I16257
tp1585
sS'WATERMANSTRM404'
p1586
(g227
I70
I15988
tp1587
sS'CRANREBEKAH LODGEHOUSEHOLD OF RUTH NO 43, 310 CRANSTON'
p1588
(S'EDGEWOOD AV'
p1589
I39
I16650
tp1590
sS'TO 291 WEYBOSSET'
p1591
(g180
I86
I15992
tp1592
sS"WASH'RM 1"
p1593
(g20
I81
I21700
tp1594
sS'EMPIRE'
p1595
(S'EMPIRE ST'
p1596
I100
I15840
tp1597
sS'A ELMWOOD AV'
p1598
(S'ELMWOOD AVE'
p1599
I94
I17207
tp1600
sS"ELMI'OOD AV"
p1601
(S'ELMIRA AV'
p1602
I75
I16169
tp1603
sS'BLAIR LA'
p1604
(S'BELAIR AVE'
p1605
I81
I16900
tp1606
sS'WESTMINSSTER'
p1607
(g2
I96
I15991
tp1608
sS'WATERMAN'
p1609
(g227
I100
I15988
tp1610
sS"V'ALLEV"
p1611
(S'VALLEY ST'
p1612
I75
I17693
tp1613
sS"THURBER'S AV"
p1614
(S'THURBER ST'
p1615
I85
I16492
tp1616
sS'CABOT ST'
p1617
(S'TALBOT ST'
p1618
I77
I16485
tp1619
sS'N COURT'
p1620
(S'NORTH ROME AVE'
p1621
I83
I16364
tp1622
sS'CAMP'
p1623
(S'CAMP ST'
p1624
I100
I16917
tp1625
sS'N MAIN ST'
p1626
(S'NORTH MAIN ST'
p1627
I100
I15916
tp1628
sS'WATERMAN AV,'
p1629
(g227
I100
I15988
tp1630
sS"WESTMINSTE'R-SE'E PAGE 79"
p1631
(g2
I75
I15991
tp1632
sS'HOWELL'
p1633
(S'HOWELL ST'
p1634
I100
I17002
tp1635
sS'WESTMINSTER 17M 301'
p1636
(g2
I86
I15991
tp1637
sS'3D'
p1638
(S'3RD ST'
p1639
I80
I16873
tp1640
sS'CHESTNUT,'
p1641
(g657
I100
I15807
tp1642
sS'N DAVIS ST'
p1643
(S'NORTH DAVIS ST'
p1644
I100
I17601
tp1645
sS'CAMD'
p1646
(S'CAMDEN AVE'
p1647
I80
I17421
tp1648
sS'DIVISION'
p1649
(S'DIVISION ST'
p1650
I100
I17828
tp1651
sS'TAYLOR'
p1652
(S'TAYLOR ST'
p1653
I100
I17337
tp1654
sS'E MANNING ST'
p1655
(S'EAST MANNING ST'
p1656
I100
I16951
tp1657
sS'CANTON'
p1658
(S'CANTON ST'
p1659
I100
I17424
tp1660
sS'EAGLE'
p1661
(S'EAGLE ST'
p1662
I100
I17477
tp1663
sS'JULIAN'
p1664
(S'JULIAN ST'
p1665
I100
I17914
tp1666
sS'WEYBOSSET RMS 54-55'
p1667
(g180
I82
I15992
tp1668
sS'WESTMINSTER 2DFL'
p1669
(g2
I90
I15991
tp1670
sS'SHAWMUT'
p1671
(S'SHAW ST'
p1672
I73
I16448
tp1673
sS'ELMDALE AV'
p1674
(S'ELMDALE AVE'
p1675
I100
I17845
tp1676
sS'PLEASANT'
p1677
(g1083
I100
I16399
tp1678
sS'EQUITABLE LIFE INS CO OF IOWA 111'
p1679
(S'HERITAGE CIR'
p1680
I47
I16230
tp1681
sS'LIPPITT'
p1682
(S'LIPPITT ST'
p1683
I100
I17024
tp1684
sS'WATERMAN AVE'
p1685
(g227
I100
I15988
tp1686
sS'MILL'
p1687
(S'MILL ST'
p1688
I100
I15911
tp1689
sS'WILLIAMS'
p1690
(S'WILLIAMS ST'
p1691
I100
I15997
tp1692
sS'KINGSTOWN RD'
p1693
(S'KINGSTON AVE'
p1694
I94
I17013
tp1695
sS'W RIVER ST'
p1696
(S'WEST RIVER ST'
p1697
I100
I16541
tp1698
sS'CONGDON'
p1699
(g560
I100
I16932
tp1700
sS'ZONE'
p1701
(S'ZONE ST'
p1702
I100
I17730
tp1703
sS'INDIANA AV'
p1704
(S'INDIANA AVE'
p1705
I100
I16702
tp1706
sS'ELIZAST'
p1707
(S'ELIZA ST'
p1708
I83
I17843
tp1709
sS'PINE 6'
p1710
(S'PINE ST'
p1711
I90
I15933
tp1712
sS'SARGENT AV'
p1713
(S'SARGENT AVE'
p1714
I100
I17095
tp1715
sS"RICHMOND ALLEN'S AV"
p1716
(S'RICHMOND SQ'
p1717
I82
I17086
tp1718
sS'W EXCHANGE BRANCHES'
p1719
(g201
I87
I15982
tp1720
sS'CALVERLEY'
p1721
(S'CALVERLY ST'
p1722
I94
I17419
tp1723
sS'PLAINIIELD ST'
p1724
(S'PLAINFIELD ST'
p1725
I91
I17994
tp1726
sS'WEYBOSSET RM'
p1727
(g180
I93
I15992
tp1728
sS"CX'ANSTON"
p1729
(g73
I84
I15817
tp1730
sS') 401'
p1731
(S'1ST ST'
p1732
I33
I16871
tp1733
sS'ARCADE BLDG'
p1734
(S'ARCADE ST'
p1735
I85
I15773
tp1736
sS'MUSSOLINI'
p1737
(S'MESSINA ST'
p1738
I63
I17590
tp1739
sS"' WESTMINSTER ST"
p1740
(g162
I100
I15991
tp1741
sS'HILLSIDE AVE'
p1742
(S'HILLSIDE DR'
p1743
I100
I16235
tp1744
sS'& BWAY'
p1745
(g248
I100
I21699
tp1746
sS'PROSPECT'
p1747
(g671
I100
I16409
tp1748
sS'TAUNTON AVE'
p1749
(S'STANTON ST'
p1750
I86
I18051
tp1751
sS'HOSPITAL TRUST PLAZA, SUITE 2700'
p1752
(g327
I70
I15878
tp1753
sS'J EFFERSON'
p1754
(S'JEFFERSON ST'
p1755
I94
I17548
tp1756
sS'WESIMINSTER'
p1757
(g2
I91
I15991
tp1758
sS"NIM'GRET AVE"
p1759
(S'GREAT VIEW AVE'
p1760
I75
I16211
tp1761
sS', 1929'
p1762
(g5
I50
I15880
tp1763
sS'I COMMODORE'
p1764
(g694
I95
I16115
tp1765
sS'J EWETT'
p1766
(S'JEWETT ST'
p1767
I91
I17549
tp1768
sS'ROOSEVELT'
p1769
(S'ROOSEVELT ST'
p1770
I100
I16432
tp1771
sS'FOUNTAIN W PER ANNUM'
p1772
(g689
I76
I15853
tp1773
sS"EDDY TOP FL'"
p1774
(g64
I76
I15834
tp1775
sS'ORMSBEE'
p1776
(g14
I73
I16384
tp1777
sS'W CLIFFORD'
p1778
(S'WEST CLIFFORD ST'
p1779
I100
I17344
tp1780
sS'-196 WEST EXCHANGE'
p1781
(g201
I93
I15982
tp1782
sS'CLIFFORD TOP FL'
p1783
(S'CLIFFORD ST'
p1784
I85
I15811
tp1785
sS'TUMER ST'
p1786
(S'SUMMER ST'
p1787
I77
I15965
tp1788
sS'SPRING PAWTUCKET-'
p1789
(g668
I70
I16771
tp1790
sS'MARLBOROUGH AV'
p1791
(S'MARLBOROUGH AVE'
p1792
I100
I17259
tp1793
sS'LATHAM BOUCHER COAL & WOOD CO 1054 ATWELLS'
p1794
(g1037
I47
I18104
tp1795
sS'SOUTH'
p1796
(S'SOUTH CT'
p1797
I100
I15959
tp1798
sS'TH FL'
p1799
(S'4TH ST'
p1800
I65
I16874
tp1801
sS'& PLAIN'
p1802
(g1182
I100
I15934
tp1803
sS'A WAYLAND AVE'
p1804
(S'WAYLAND AVE'
p1805
I96
I17125
tp1806
sS'GLENBRIDGE AV'
p1807
(S'GLENBRIDGE AVE'
p1808
I100
I17868
tp1809
sS'PLEASANTUVALLLEY PKWY'
p1810
(S'PLEASANT VALLEY PKWY'
p1811
I80
I17627
tp1812
sS'PLAINFIELD ST;'
p1813
(g1725
I100
I17994
tp1814
sS'CHARLES'
p1815
(S'CHARLES ST'
p1816
I100
I16096
tp1817
sS'LANGDON'
p1818
(S'LANGDON ST'
p1819
I100
I16272
tp1820
sS'LLOYD AV'
p1821
(S'LLOYD AVE'
p1822
I100
I17025
tp1823
sS'ALDRICH'
p1824
(S'ALDRICH ST'
p1825
I100
I16559
tp1826
sS'BUSH'
p1827
(S'BRUSH HILL RD'
p1828
I73
I17786
tp1829
sS'MANHON AVE'
p1830
(S'MANTON AVE'
p1831
I86
I17947
tp1832
sS'LENNON'
p1833
(S'LENNON ST'
p1834
I100
I17563
tp1835
sS'DORRANCE-'
p1836
(S'DORRANCE ST'
p1837
I100
I15829
tp1838
sS'8'
p1839
(S'8TH ST'
p1840
I50
I16878
tp1841
sS'MALVEM ST'
p1842
(S'MALVERN ST'
p1843
I80
I16307
tp1844
sS'FRANCIS'
p1845
(S'FRANCIS AVE'
p1846
I100
I16187
tp1847
sS'-90 SMITH'
p1848
(g390
I88
I16457
tp1849
sS'TAPPAN'
p1850
(S'TAPPAN ST'
p1851
I100
I17680
tp1852
sS'FRIENDSHIP-'
p1853
(g615
I100
I15858
tp1854
sS'MELROSE 160 MESSER 3'
p1855
(g915
I76
I17263
tp1856
sS'MT HOPE AVE'
p1857
(g34
I86
I15875
tp1858
sS'BROADWAY RM'
p1859
(g114
I92
I15794
tp1860
sS'FENNER'
p1861
(g1386
I100
I15849
tp1862
sS'WESTMINSTER 3D'
p1863
(g2
I94
I15991
tp1864
sS'A EDNA ST'
p1865
(S'EDNA ST'
p1866
I94
I17841
tp1867
sS'WEYBOSSET OFFICE'
p1868
(g180
I86
I15992
tp1869
sS'TERMINAL WAY'
p1870
(S'TERMINAL RD'
p1871
I90
I16838
tp1872
sS'HAMILTON'
p1873
(S'HAMILTON ST'
p1874
I100
I17223
tp1875
sS'CAMDEN AV'
p1876
(S'CAMDEN AVE'
p1877
I100
I17421
tp1878
sS'OOSMAINST3DFL'
p1879
(S'MANSFIELD ST'
p1880
I55
I17584
tp1881
sS'OXFORD'
p1882
(S'OXFORD ST'
p1883
I100
I16764
tp1884
sS'THE'
p1885
(S'IANTHE ST'
p1886
I67
I16248
tp1887
sS'BURLINGTON'
p1888
(S'BURLINGTON ST'
p1889
I100
I16914
tp1890
sS'FLORENCE'
p1891
(S'FLORENCE ST'
p1892
I100
I16183
tp1893
sS'GEORGE'
p1894
(S'GEORGE ST'
p1895
I100
I16670
tp1896
sS'-61 CANAL'
p1897
(g358
I88
I15798
tp1898
sS'SHERBURNE'
p1899
(S'SHERBURNE ST'
p1900
I100
I16819
tp1901
sS'JEWETT'
p1902
(g1767
I100
I17549
tp1903
sS'PLAINFIELD PIKE'
p1904
(g1725
I90
I17994
tp1905
sS'OF R I THE'
p1906
(g1886
I58
I16248
tp1907
sS'MESSER 7'
p1908
(S'MESSER ST'
p1909
I93
I17961
tp1910
sS'AVENTINE AV'
p1911
(S'AVENTINE AVE'
p1912
I100
I16039
tp1913
sS'TELL'
p1914
(S'TELL ST'
p1915
I100
I18068
tp1916
sS'SUPERIOR'
p1917
(S'SUPERIOR ST'
p1918
I100
I17334
tp1919
sS'S ANGELL ST'
p1920
(S'SOUTH ANGELL ST'
p1921
I100
I17093
tp1922
sS'PROMENADE'
p1923
(g70
I100
I17630
tp1924
sS'WICKENDEN'
p1925
(S'WICKENDEN ST'
p1926
I100
I15995
tp1927
sS'WESTFNELD'
p1928
(S'WESTFIELD ST'
p1929
I89
I17354
tp1930
sS'; SMITH'
p1931
(g390
I100
I16457
tp1932
sS'PRINCETON AVE'
p1933
(S'PRINCETON AV'
p1934
I100
I17298
tp1935
sS'LONGMONT'
p1936
(S'LONGMONT ST'
p1937
I100
I17571
tp1938
sS'ALMY'
p1939
(S'ALMY ST'
p1940
I100
I17741
tp1941
sS'RICHMOND TOP FL'
p1942
(g26
I85
I15946
tp1943
sS"'WATERMAN"
p1944
(g630
I100
I15988
tp1945
sS'K CHARLES ST'
p1946
(g399
I95
I16096
tp1947
sS'WHIPPLE'
p1948
(S'WHIPPLE ST'
p1949
I100
I17716
tp1950
sS'WEYBPSSET'
p1951
(g180
I89
I15992
tp1952
sS'CARPENTER'
p1953
(S'CARPENTER ST'
p1954
I100
I15801
tp1955
sS'BURNSIDE'
p1956
(S'BURNSIDE ST'
p1957
I100
I16606
tp1958
sS'BELL'
p1959
(S'BELL ST'
p1960
I100
I17768
tp1961
sS'TAN DRIVE'
p1962
(g1697
I71
I16541
tp1963
sS'-34 DUDLEY'
p1964
(S'DUDLEY ST'
p1965
I90
I15830
tp1966
sS'I POCASSET AV'
p1967
(g117
I94
I17995
tp1968
sS'EDDY 6TH'
p1969
(g64
I83
I15834
tp1970
sS'BLACKSTONE BLVD APT 2'
p1971
(S'BLACKSTONE BLVD'
p1972
I91
I16904
tp1973
sS'EDDY 5TH 11'
p1974
(g64
I76
I15834
tp1975
sS'HELME'
p1976
(S'HELME ST'
p1977
I100
I17892
tp1978
sS'ABOM ST'
p1979
(S'ABORN ST'
p1980
I73
I15763
tp1981
sS'EDDY 5TH'
p1982
(g64
I83
I15834
tp1983
sS'MOUNTAIN'
p1984
(S'MOUNTAIN ST'
p1985
I100
I15914
tp1986
sS'BROADWAY'
p1987
(g114
I100
I15794
tp1988
sS'PINE 4TH'
p1989
(g736
I85
I16780
tp1990
sS'STANWOOD'
p1991
(S'STANWOOD ST'
p1992
I100
I17331
tp1993
sS'CHESTNUT ST3DF1'
p1994
(g501
I85
I15807
tp1995
sS'WEYBOSSET CENTRAL 296 ANGELL CENTRAL'
p1996
(g180
I70
I15992
tp1997
sS'227 DEAN'
p1998
(S'DEAN ST'
p1999
I83
I15825
tp2000
sS'HOSPITAL TRUST BLDG PROVIDENCE R I'
p2001
(g1428
I73
I17631
tp2002
sS'PLAINFIELD MUNICIPAL POST 38, 1 BURNSIDE ROGER WILLIAMS POST 35, 285 SMITH THOS L RYAN POST NO 47, 138 ACAD-'
p2003
(g593
I59
I17994
tp2004
sS'DYER AV'
p2005
(g585
I100
I15831
tp2006
sS'PAGE 2D 11'
p2007
(g188
I78
I15923
tp2008
sS'WILLOW'
p2009
(S'WILLOW ST'
p2010
I100
I18108
tp2011
sS'S WATER ST'
p2012
(S'SOUTH WATER ST'
p2013
I100
I15949
tp2014
sS'LAUREL HILL AV'
p2015
(S'LAUREL HILL AVE'
p2016
I100
I17926
tp2017
sS'WEYBOSSETSEE INSIDE BACK COVER'
p2018
(g180
I66
I15992
tp2019
sS'1, BENEFIT'
p2020
(g350
I94
I15781
tp2021
sS'FARMMGTON AV'
p2022
(S'FARMINGTON AVE'
p2023
I84
I17853
tp2024
sS'MATHEW8011'
p2025
(S'MATTHEW ST'
p2026
I71
I17587
tp2027
sS'PARKJS AVE'
p2028
(S'PARKIS AVE'
p2029
I86
I17282
tp2030
sS'70 ARCADE'
p2031
(g1735
I90
I15773
tp2032
sS'GORDON AV-'
p2033
(g124
I100
I16675
tp2034
sS'ELMGROVE AV'
p2035
(S'ELMGROVE AVE'
p2036
I100
I16960
tp2037
sS'EDDYSTRM306'
p2038
(g213
I53
I15834
tp2039
sS'DONANCE ST'
p2040
(g52
I83
I15829
tp2041
sS'PEAZL ST'
p2042
(S'PEARL ST'
p2043
I84
I16775
tp2044
sS'; PLAIN'
p2045
(g1182
I100
I15934
tp2046
sS'; LEDGE'
p2047
(g865
I100
I16275
tp2048
sS'SOLAR'
p2049
(S'SOLAR ST'
p2050
I100
I15958
tp2051
sS'ABORN-SEVE PAGE 169'
p2052
(g885
I71
I15763
tp2053
sS'BROADWAY PAWTUCKET'
p2054
(g668
I68
I16771
tp2055
sS'DORRANCE 5TH'
p2056
(g724
I90
I15829
tp2057
sS'VASSAR AV'
p2058
(S'VASSAR AVE'
p2059
I100
I17122
tp2060
sS'PLAIN SUB STATION 45 HAMILTON'
p2061
(g1874
I71
I17223
tp2062
sS'HOSPITAL TRUST PLAN'
p2063
(g327
I79
I15878
tp2064
sS'RIVER AV'
p2065
(S'RIVER AVE'
p2066
I100
I16423
tp2067
sS'DOYLE AV'
p2068
(S'DOYLE AVE'
p2069
I100
I16946
tp2070
sS'WEYBOUET ST'
p2071
(g174
I84
I15992
tp2072
sS'TM AVE'
p2073
(S'TIME ST'
p2074
I67
I16495
tp2075
sS'WELCOME AV'
p2076
(g1977
I67
I17892
tp2077
sS'WASH RM4'
p2078
(g20
I83
I21700
tp2079
sS'; HARRIS AV'
p2080
(g43
I100
I15869
tp2081
sS'UNIT'
p2082
(S'UNIT ST'
p2083
I100
I18082
tp2084
sS'CLIFFORD'
p2085
(g1784
I100
I15811
tp2086
sS'AND'
p2087
(S'ANDY ST'
p2088
I86
I16020
tp2089
sS'BROWNELL'
p2090
(S'BROWNELL ST'
p2091
I100
I17414
tp2092
sS'I BROAD'
p2093
(g405
I91
I15793
tp2094
sS'PINEST3DF1'
p2095
(S'PINEHURST AVE'
p2096
I63
I17626
tp2097
sS'ALVERSON AV'
p2098
(S'ALVERSON AVE'
p2099
I100
I17743
tp2100
sS'VWEYBOSSET'
p2101
(g180
I95
I15992
tp2102
sS'LB EDDY ST'
p2103
(g213
I91
I15834
tp2104
sS'AVERY'
p2105
(S'WAVERLY ST'
p2106
I83
I17351
tp2107
sS'GREELEY'
p2108
(S'GREELEY ST'
p2109
I100
I16212
tp2110
sS'A WESTMINSTER ST'
p2111
(g162
I96
I15991
tp2112
sS'BORDEN ALLEYS AV'
p2113
(g1562
I81
I15787
tp2114
sS'BROAD G " ,'
p2115
(g405
I91
I15793
tp2116
sS'MAIN STREET, WEST'
p2117
(S'POINT STREET BRG'
p2118
I81
I16403
tp2119
sS"' 10TH"
p2120
(g439
I100
I16868
tp2121
sS'LAURISTON'
p2122
(S'LAURISTON ST'
p2123
I100
I17020
tp2124
sS'EDWARD'
p2125
(S'EDWARD ST'
p2126
I100
I16164
tp2127
sS'UNION ST.'
p2128
(S'UNION ST'
p2129
I100
I15977
tp2130
sS'HEALTH AV'
p2131
(S'HEALTH AVE'
p2132
I100
I17524
tp2133
sS'MEDWAY'
p2134
(S'MEDWAY ST'
p2135
I100
I17040
tp2136
sS'EASTWOOD AV'
p2137
(S'EASTWOOD AVE'
p2138
I100
I17839
tp2139
sS'PAGE 4TH 11'
p2140
(g188
I76
I15923
tp2141
sS'W PARK'
p2142
(g130
I100
I17704
tp2143
sS'FAIROAKS AV'
p2144
(S'FAIROAKS AVE'
p2145
I100
I17492
tp2146
sS'DE SOTO ST'
p2147
(S'DESOTO ST'
p2148
I87
I17823
tp2149
sS'ELMWOOD AV, SUITE 103'
p2150
(g286
I76
I17207
tp2151
sS'SUMMER'
p2152
(S'SUMMER ST'
p2153
I100
I15965
tp2154
sS'HATHAWAY'
p2155
(S'HATHAWAY ST'
p2156
I100
I17229
tp2157
sS'EVERETT AV'
p2158
(S'EVERETT AVE'
p2159
I100
I16965
tp2160
sS'DUNCAN AV'
p2161
(S'DUNCAN AVE'
p2162
I100
I16947
tp2163
sS'FISK'
p2164
(S'FISK ST'
p2165
I100
I16662
tp2166
sS'PINE 3D 11'
p2167
(g1711
I78
I15933
tp2168
sS'W BROAD ST'
p2169
(S'BROAD ST'
p2170
I88
I15793
tp2171
sS'A HOPE ST'
p2172
(g34
I94
I15875
tp2173
sS'CHALKSTONE AV'
p2174
(S'CHALKSTONE AVE'
p2175
I100
I17433
tp2176
sS'S ANGELI ST'
p2177
(g1921
I88
I17093
tp2178
sS'MURRAY'
p2179
(S'MURRAY ST'
p2180
I100
I17968
tp2181
sS'59 DYER'
p2182
(g585
I86
I15831
tp2183
sS'RICHMOND TOP FLOOR'
p2184
(g26
I81
I15946
tp2185
sS'RINGGOLD'
p2186
(S'RINGGOLD ST'
p2187
I100
I15947
tp2188
sS'ATWELLS AV-'
p2189
(g411
I100
I15775
tp2190
sS'LEXINGTON AV'
p2191
(S'LEXINGTON AVE'
p2192
I100
I16281
tp2193
sS"POTTER'S AV"
p2194
(S'POTTERS AVE'
p2195
I83
I16786
tp2196
sS"'6 THAYER ST"
p2197
(S'THAYER ST'
p2198
I95
I17112
tp2199
sS'ANSEL AV'
p2200
(S'ANSEL AVE'
p2201
I100
I17154
tp2202
sS'11TH'
p2203
(g55
I100
I16869
tp2204
sS'-394 WESTMINSTER'
p2205
(g2
I92
I15991
tp2206
sS'SIMS AV'
p2207
(S'SIMS AVE'
p2208
I100
I18041
tp2209
sS'BRADLEY'
p2210
(S'BRADLEY ST'
p2211
I100
I17411
tp2212
sS'METCALF'
p2213
(S'METCALF ST'
p2214
I100
I16337
tp2215
sS'WATER-'
p2216
(S'WAITE AVE'
p2217
I80
I16850
tp2218
sS'EXCHANGE PAWTUCKET'
p2219
(g668
I68
I16771
tp2220
sS'MONTROSE'
p2221
(S'MONTROSE ST'
p2222
I100
I17597
tp2223
sS'BREWSTER'
p2224
(S'BREWSTER ST'
p2225
I100
I16909
tp2226
sS'TYNDALL AV'
p2227
(S'TYNDALL AVE'
p2228
I100
I17690
tp2229
sS'LILY ST;'
p2230
(S'LILY ST'
p2231
I100
I15894
tp2232
sS'FENNER RM'
p2233
(g1386
I90
I15849
tp2234
sS'GOVERNOR'
p2235
(S'GOVERNOR ST'
p2236
I100
I16983
tp2237
sS'WEST-'
p2238
(S'WEST ST'
p2239
I100
I15990
tp2240
sS'UNESTNUT'
p2241
(g1323
I75
I15807
tp2242
sS'HUNTINGTON AV'
p2243
(S'HUNTINGTON AVE'
p2244
I100
I17236
tp2245
sS'PRATT'
p2246
(S'PRATT ST'
p2247
I100
I16406
tp2248
sS'CASS'
p2249
(S'CASS ST'
p2250
I100
I16615
tp2251
sS'PENN'
p2252
(S'PENN ST'
p2253
I100
I17989
tp2254
sS'WATERMAN AV'
p2255
(g630
I100
I15988
tp2256
sS'BROAD ST.'
p2257
(g2170
I100
I15793
tp2258
sS"DOUGLAS AV'"
p2259
(S'DOUGLAS AVE'
p2260
I100
I16154
tp2261
sS"BUCKH'N ST"
p2262
(S'BUCKLIN ST'
p2263
I67
I17171
tp2264
sS'SOCKANOSSET CROSS RD'
p2265
(S'POCASSET AVE'
p2266
I65
I17995
tp2267
sS'ADMIRAL SC'
p2268
(g870
I91
I16005
tp2269
sS'WESTMINSTER STRM68'
p2270
(g162
I88
I15991
tp2271
sS'VINTON'
p2272
(S'VINTON ST'
p2273
I100
I15981
tp2274
sS'CARTER'
p2275
(S'CARTER ST'
p2276
I100
I16089
tp2277
sS'WALLACE'
p2278
(S'WALLACE ST'
p2279
I100
I18095
tp2280
sS'EXCHANGE'
p2281
(g292
I100
I15845
tp2282
sS'CROOM'
p2283
(S'BROOM ST'
p2284
I80
I16605
tp2285
sS'LYMAN'
p2286
(S'LYMAN ST'
p2287
I100
I15897
tp2288
sS'FRIENDSHIN'
p2289
(g615
I90
I15858
tp2290
sS'N'
p2291
(S'NORTH CT'
p2292
I100
I15918
tp2293
sS'; PLAINFIELD'
p2294
(g593
I100
I17994
tp2295
sS'STATE'
p2296
(g144
I100
I17672
tp2297
sS'GEORGIA AV'
p2298
(S'GEORGIA AVE'
p2299
I100
I16671
tp2300
sS"CALHOILN AV'"
p2301
(g772
I80
I17176
tp2302
sS'HYAT'
p2303
(S'HYAT ST'
p2304
I100
I17906
tp2305
sS'STEEPLE'
p2306
(S'STEEPLE ST'
p2307
I100
I15962
tp2308
sS'WESTMINSTER SUITE 301'
p2309
(g2
I84
I15991
tp2310
sS'GAME'
p2311
(S'AMES ST'
p2312
I75
I15771
tp2313
sS'BEACH'
p2314
(S'BEACH ST'
p2315
I100
I16050
tp2316
sS'PARKIS AV'
p2317
(S'PARKIS AVE'
p2318
I100
I17282
tp2319
sS'WAVERLY'
p2320
(g2106
I100
I17351
tp2321
sS'PENNA ST'
p2322
(S'PENN ST'
p2323
I91
I17989
tp2324
sS'WINTER'
p2325
(S'WINTER ST'
p2326
I100
I15999
tp2327
sS'I; BRANCH AV'
p2328
(g165
I93
I16067
tp2329
sS'CHALKSBONE AVE'
p2330
(S'CHALKSTONE AVE'
p2331
I91
I17433
tp2332
sS"' WESTMINSTER"
p2333
(g624
I100
I15991
tp2334
sS'BROADWAY SUITE'
p2335
(g114
I86
I15794
tp2336
sS'WESTMINSTER RM27'
p2337
(g2
I90
I15991
tp2338
sS'FORBES'
p2339
(S'FORBES ST'
p2340
I100
I17501
tp2341
sS'P M'
p2342
(S'PALM ST'
p2343
I48
I16386
tp2344
sS'RANDALL'
p2345
(S'RANDALL RD'
p2346
I100
I16415
tp2347
sS'RANDALI'
p2348
(g1199
I86
I16415
tp2349
sS'PUBLIC'
p2350
(S'PUBLIC ST'
p2351
I100
I15942
tp2352
sS'WESTMINSTER;&E PAGE 87'
p2353
(g2
I81
I15991
tp2354
sS'MAUDE'
p2355
(S'MAUDE ST'
p2356
I100
I17588
tp2357
sS'CUSTOM HOUSE'
p2358
(g893
I100
I15820
tp2359
sS'BENEFIT EAGLE LODGE NO 2, 48 SNOW UNITY LODGE NO 20, 59 CHESTNUT ROGER WILLIAMS LODGE NO 3, 48'
p2360
(g657
I58
I15807
tp2361
sS'-988 WESTMINSTER'
p2362
(g2
I92
I15991
tp2363
sS'WASH 4TH 11'
p2364
(g20
I76
I21700
tp2365
sS'HERBERT'
p2366
(S'HERBERT ST'
p2367
I100
I17894
tp2368
sS'LARCH'
p2369
(S'LARCH ST'
p2370
I100
I17017
tp2371
sS'CLORANE'
p2372
(S'LORRAINE AVE'
p2373
I80
I17030
tp2374
sS'ETHAN'
p2375
(S'ETHAN ST'
p2376
I100
I17847
tp2377
sS'WEST RIVER'
p2378
(g1154
I100
I16541
tp2379
sS'TOBEY'
p2380
(S'TOBEY ST'
p2381
I100
I18076
tp2382
sS'SWISS'
p2383
(S'SWISS ST'
p2384
I100
I18061
tp2385
sS'POND'
p2386
(S'POND ST'
p2387
I100
I15937
tp2388
sS'TOCKWOTTON'
p2389
(S'TOCKWOTTON ST'
p2390
I100
I15973
tp2391
sS'; MONTICELLO'
p2392
(g492
I100
I16348
tp2393
sS'ARCH'
p2394
(S'ARCH ST'
p2395
I100
I17156
tp2396
sS'ADMIRAL'
p2397
(S'ADMIRAL ST'
p2398
I100
I16005
tp2399
sS'HENDRICK'
p2400
(S'HENDRICK ST'
p2401
I100
I17526
tp2402
sS'WATERMANRST'
p2403
(g227
I84
I15988
tp2404
sS'; ATWELLS AV'
p2405
(g411
I100
I15775
tp2406
sS'-30 GREENE'
p2407
(g1196
I90
I15866
tp2408
sS"O'CONNELL ST"
p2409
(S'OCONNELL ST'
p2410
I94
I16760
tp2411
sS'SESSIONS'
p2412
(S'SESSIONS ST'
p2413
I100
I17098
tp2414
sS'INDIA'
p2415
(S'INDIA ST'
p2416
I100
I15883
tp2417
sS'VUNION'
p2418
(g744
I91
I15977
tp2419
sS"S WATER S MAIN NR CRANO'RD"
p2420
(g1157
I76
I15949
tp2421
sS'PROVIDENCE'
p2422
(S'PROVIDENCE ST'
p2423
I100
I17299
tp2424
sS'PLAINFIELD'
p2425
(g414
I100
I17994
tp2426
sS'DO RM'
p2427
(S'DOME ST'
p2428
I67
I17469
tp2429
sS'MANSFIELD'
p2430
(S'MANSFIELD ST'
p2431
I100
I17584
tp2432
sS'COUNCIL'
p2433
(S'COLONIAL DR'
p2434
I67
I16112
tp2435
sS'RATHBONE'
p2436
(S'RATHBONE ST'
p2437
I100
I17637
tp2438
sS'. REGENT AV'
p2439
(S'REGENT AVE'
p2440
I100
I17642
tp2441
sS'WEYBOSSET RMS 2-3-4'
p2442
(g180
I82
I15992
tp2443
sS'CAPRON'
p2444
(S'CAPRON ST'
p2445
I100
I17791
tp2446
sS'BAKER'
p2447
(S'BAKER ST'
p2448
I100
I16576
tp2449
sS'JENKINS'
p2450
(S'JENKINS ST'
p2451
I100
I17010
tp2452
sS'EMPIRE RM6'
p2453
(S'EMPIRE ST'
p2454
I87
I15840
tp2455
sS'OFFICE PLANT'
p2456
(S'POST OFFICE CT'
p2457
I76
I15938
tp2458
sS'WESLEYAN AV'
p2459
(g1356
I100
I17353
tp2460
sS'CA.NAL'
p2461
(g358
I83
I15798
tp2462
sS'WEYBOSSET HILL 5TH FL'
p2463
(g174
I80
I15992
tp2464
sS'-158 PINE'
p2465
(g1711
I83
I15933
tp2466
sS'MTPLEASANT'
p2467
(g1083
I89
I16399
tp2468
sS'HANOVER'
p2469
(S'HANOVER ST'
p2470
I100
I17225
tp2471
sS'WESTMINSTER MALL'
p2472
(g162
I90
I15991
tp2473
sS'BROOK'
p2474
(S'BROOK ST'
p2475
I100
I15795
tp2476
sS'LAWN'
p2477
(S'LAWN ST'
p2478
I100
I17560
tp2479
sS'POTTEFS AV'
p2480
(g177
I86
I16786
tp2481
sS'-90 DUDLEY'
p2482
(S'DUDLEY ST'
p2483
I90
I15830
tp2484
sS'BLOUNT 3D'
p2485
(g76
I70
I17398
tp2486
sS'A DEAN'
p2487
(g1999
I90
I15825
tp2488
sS'BROADWAY SUITE A'
p2489
(g114
I83
I15794
tp2490
sS'LESTER'
p2491
(S'LESTER ST'
p2492
I100
I17245
tp2493
sS'BROADWAY SUITE E'
p2494
(g114
I79
I15794
tp2495
sS'CODDING'
p2496
(S'GOULDING ST'
p2497
I67
I16982
tp2498
sS'BROADWAY SUITE G'
p2499
(g114
I83
I15794
tp2500
sS'CONSTITUTION'
p2501
(S'CONSTITUTION ST'
p2502
I100
I17185
tp2503
sS'NARRAGANSETT AVE'
p2504
(S'NARRAGANSETT ST'
p2505
I100
I16747
tp2506
sS'BALBO AV'
p2507
(S'BALBO AVE'
p2508
I100
I21740
tp2509
sS'2D ST'
p2510
(g1415
I85
I16872
tp2511
sS'ANGELL'
p2512
(S'ANGELL RD'
p2513
I100
I16022
tp2514
sS'HAZARD AV'
p2515
(S'HAZARD AVE'
p2516
I100
I16994
tp2517
sS'RAYMOND'
p2518
(S'RAYMOND ST'
p2519
I100
I17639
tp2520
sS'ANGELI'
p2521
(S'ANGELA CT'
p2522
I83
I16021
tp2523
sS'SEYMOUR'
p2524
(S'SEYMOUR ST'
p2525
I100
I16816
tp2526
sS'SABIN-'
p2527
(g509
I100
I15950
tp2528
sS'COUNTY ROAD'
p2529
(S'COUNTY ST'
p2530
I85
I16126
tp2531
sS'OPHELIA.'
p2532
(S'OPHELIA ST'
p2533
I100
I17979
tp2534
sS'WEYBOSSET RMS 402-404'
p2535
(g180
I80
I15992
tp2536
sS'PINE'
p2537
(S'PINE ST'
p2538
I100
I15933
tp2539
sS'WASHLNGTON'
p2540
(g1246
I90
I15987
tp2541
sS"ADMIRAL ST'"
p2542
(g870
I100
I16005
tp2543
sS'EMDIRE'
p2544
(g2454
I83
I15840
tp2545
sS'40 CLIFFORD'
p2546
(g1784
I92
I15811
tp2547
sS'BWAY RMZ7'
p2548
(g248
I81
I21699
tp2549
sS'PINE 2D'
p2550
(g2538
I86
I15933
tp2551
sS"PLAINL'LELD ST"
p2552
(S'PLAIN ST'
p2553
I82
I15934
tp2554
sS'COURTLAND'
p2555
(S'COURTLAND ST'
p2556
I100
I17806
tp2557
sS'BASSET'
p2558
(S'BASSETT ST'
p2559
I92
I15777
tp2560
sS'BQ POCASSET AVE'
p2561
(g2266
I94
I17995
tp2562
sS"JACKSOR'L"
p2563
(g1332
I80
I16253
tp2564
sS'DEAN'
p2565
(g1999
I100
I15825
tp2566
sS'EQUITABLE LIFE ASSURANCE SOCIETY OF THE U S 111 WEST-'
p2567
(g1680
I41
I16230
tp2568
sS'DEVONSHIRE'
p2569
(S'DEVONSHIRE ST'
p2570
I100
I17467
tp2571
sS'WELL'
p2572
(g1634
I80
I17002
tp2573
sS'W EXCHANGE ST'
p2574
(S'WEST EXCHANGE ST'
p2575
I100
I15982
tp2576
sS'PB, SIX PRINCIPLE'
p2577
(g1069
I67
I15941
tp2578
sS'OAK'
p2579
(S'OAK ST'
p2580
I100
I17974
tp2581
sS'CALHOUN AV,'
p2582
(g772
I100
I17176
tp2583
sS'BROAD RMS 1-6'
p2584
(g1034
I78
I15793
tp2585
sS'WESTMINSTER MM 605'
p2586
(g2
I88
I15991
tp2587
sS'SPRUCE'
p2588
(g335
I100
I15961
tp2589
sS'WESTFIELD'
p2590
(g1929
I100
I17354
tp2591
sS'PECK'
p2592
(S'PECK ST'
p2593
I100
I15928
tp2594
sS'81 ABORN'
p2595
(g885
I88
I15763
tp2596
sS'PAWTUCKET AV'
p2597
(g668
I84
I16771
tp2598
sS'PRISCILLA AV'
p2599
(S'PRISCILLA AVE'
p2600
I100
I18000
tp2601
sS'WILSON'
p2602
(S'WILSON ST'
p2603
I100
I17359
tp2604
sS'; SPRUCE'
p2605
(g335
I100
I15961
tp2606
sS'448 BWAY'
p2607
(g248
I83
I21699
tp2608
sS'VVV'
p2609
(S'VIVIAN AVE'
p2610
I44
I16524
tp2611
sS'BENEFLT'
p2612
(g350
I86
I15781
tp2613
sS'HOPKINS'
p2614
(S'HOPKINS ST'
p2615
I100
I15876
tp2616
sS'WESTMINSTER STRM200'
p2617
(g162
I86
I15991
tp2618
sS'DUDLEY'
p2619
(g2483
I100
I15830
tp2620
sS'NEWARK'
p2621
(S'NEWARK ST'
p2622
I100
I17604
tp2623
sS'PEMBERTON'
p2624
(S'PEMBERTON ST'
p2625
I100
I17623
tp2626
sS'SILVER LAKE AV'
p2627
(S'SILVER LAKE AVE'
p2628
I100
I18039
tp2629
sS'4'
p2630
(g1800
I50
I16874
tp2631
sS'GARNET'
p2632
(S'GARNET ST'
p2633
I100
I15862
tp2634
sS'ARLINGTON AV'
p2635
(S'ARLINGTON AVE'
p2636
I100
I16892
tp2637
sS'VALLEY'
p2638
(g1612
I100
I17693
tp2639
sS'THOMAS OLNEY COMMON'
p2640
(S'THOMAS OLNEY COMMON ST'
p2641
I100
I17113
tp2642
sS'PUTNAM'
p2643
(S'PUTNAM ST'
p2644
I100
I18003
tp2645
sS'WESTMINSTER RM'
p2646
(g2
I94
I15991
tp2647
sS'HENRIETTA'
p2648
(S'HENRIETTA ST'
p2649
I100
I16229
tp2650
sS'HARVARD AV'
p2651
(S'HARVARD AVE'
p2652
I100
I17228
tp2653
sS'D'
p2654
(S'ADA ST'
p2655
I50
I16003
tp2656
sS'CUSTOM HOUSEST'
p2657
(S'CUSTOM HOUSE ST'
p2658
I69
I15820
tp2659
sS'GRANT'
p2660
(S'GRANT ST'
p2661
I100
I17870
tp2662
sS'GROVE'
p2663
(S'GROVE ST'
p2664
I100
I17876
tp2665
sS'577'
p2666
(g912
I34
I15881
tp2667
sS'I PRAIRIE AV'
p2668
(g1441
I94
I16787
tp2669
sS'HIGH, PAWTUCKET'
p2670
(S'PAWTUXET AV'
p2671
I73
I16771
tp2672
sS'SOUTH MAIN'
p2673
(g967
I100
I15948
tp2674
sS'EAGLEST4THFL'
p2675
(S'EAGLE ST'
p2676
I59
I17477
tp2677
sS'WEALTH AV'
p2678
(S'WEALTH AVE'
p2679
I100
I17714
tp2680
sS'AM TO'
p2681
(S'AMY ST'
p2682
I65
I16888
tp2683
sS'FOUNTAIN QUARRY, BERKELEY'
p2684
(g689
I75
I15853
tp2685
sS'I DORRANCE'
p2686
(g724
I94
I15829
tp2687
sS'WEBSTER'
p2688
(S'WEBSTER AVE'
p2689
I100
I18098
tp2690
sS'WALLING'
p2691
(g347
I100
I21723
tp2692
sS'STOKES'
p2693
(S'STOKES ST'
p2694
I100
I18058
tp2695
sS'MASS AV'
p2696
(S'MASSO DR'
p2697
I89
I16322
tp2698
sS'CONCORD'
p2699
(S'CONCORD ST'
p2700
I100
I16119
tp2701
sS'GENEVA.'
p2702
(S'GENEVA ST'
p2703
I100
I17509
tp2704
sS'TRENTON'
p2705
(S'TRENTON ST'
p2706
I100
I17118
tp2707
sS'; BROAD'
p2708
(g1034
I100
I15793
tp2709
sS'MULBERRY'
p2710
(S'MULBERRY ST'
p2711
I100
I21732
tp2712
sS'N MAIN RM'
p2713
(g896
I93
I15916
tp2714
sS'N MAIN SUITE 6'
p2715
(g896
I85
I15916
tp2716
sS'KINSLEY AV'
p2717
(S'KINSLEY AVE'
p2718
I100
I15889
tp2719
sS'CAROLINA AV'
p2720
(S'CAROLINA AVE'
p2721
I100
I16085
tp2722
sS'MANTOU AVE'
p2723
(g1831
I86
I17947
tp2724
sS'POTTER,S AV'
p2725
(g177
I83
I16786
tp2726
sS'C WAYLAND AVE'
p2727
(g1805
I96
I17125
tp2728
sS'POCASSET AV'
p2729
(g117
I100
I17995
tp2730
sS'E TRANSIT'
p2731
(S'EAST TRANSIT ST'
p2732
I100
I16954
tp2733
sS'NORTH MAIN 4TH'
p2734
(g896
I91
I15916
tp2735
sS'FAIRVIEW'
p2736
(S'FAIRVIEW AVE'
p2737
I100
I16175
tp2738
sS'HARKNESS'
p2739
(S'HARKNESS ST'
p2740
I100
I17884
tp2741
sS'PONTIAC,'
p2742
(g1507
I100
I17292
tp2743
sS'GARNETJ 7'
p2744
(g2633
I86
I15862
tp2745
sS'WATENNAN ST'
p2746
(g227
I78
I15988
tp2747
sS'WASH RIN 309'
p2748
(g20
I75
I21700
tp2749
sS'BENEIIT ST'
p2750
(S'BENEFIT ST'
p2751
I88
I15781
tp2752
sS'DOUGLAS'
p2753
(S'DOUGLAS AVE'
p2754
I100
I16154
tp2755
sS'ANGELL MORNING AFTERNOON APPOINTMENTS TELE-'
p2756
(S'FOX POINT BLVD'
p2757
I47
I21701
tp2758
sS'CALENDER 5TH A'
p2759
(g537
I73
I17175
tp2760
sS'WESTMINSTER 1'
p2761
(g2
I96
I15991
tp2762
sS'WEST'
p2763
(g2239
I100
I15990
tp2764
sS"VAI'IETY STORE 777 BROAD ST"
p2765
(g2118
I61
I16403
tp2766
sS'CARGILL'
p2767
(S'CARGILL ST'
p2768
I100
I15800
tp2769
sS'MEADER'
p2770
(S'MEADER ST'
p2771
I100
I17957
tp2772
sS'-130 WEST EXCHANGE'
p2773
(g201
I93
I15982
tp2774
sS"STJOHN'S COMMANDERY"
p2775
(S'OLD TANNERY RD'
p2776
I53
I17060
tp2777
sS"' POND"
p2778
(g2387
I100
I15937
tp2779
sS'5'
p2780
(g912
I53
I15881
tp2781
sS'; PERRY'
p2782
(S'TERRY ST'
p2783
I80
I16489
tp2784
sS'; FEDERAL'
p2785
(S'FEDERAL ST'
p2786
I100
I15848
tp2787
sS'WASHINGTON STREET BOSTON, MASS 02111'
p2788
(g1527
I73
I15986
tp2789
sS'LINWOOD AV'
p2790
(S'LINWOOD AVE'
p2791
I100
I17249
tp2792
sS'PINE 4TH 11'
p2793
(g736
I80
I16780
tp2794
sS'WALDO'
p2795
(S'WALDO ST'
p2796
I100
I16526
tp2797
sS'PLAINTIELD ST'
p2798
(g1725
I91
I17994
tp2799
sS'PRINTERY'
p2800
(S'PRINTERY ST'
p2801
I100
I16408
tp2802
sS'WENDELL'
p2803
(S'WENDELL ST'
p2804
I100
I16535
tp2805
sS'ELMWOOD 70V'
p2806
(S'ELMWOOD AVE'
p2807
I89
I17207
tp2808
sS'DANIEL AV'
p2809
(g1542
I100
I17817
tp2810
sS'D-ORRANCE'
p2811
(g724
I93
I15829
tp2812
sS'258 EDDY'
p2813
(g64
I83
I15834
tp2814
sS'SMITHFIELD AV'
p2815
(S'SMITHFIELD AVE'
p2816
I100
I16458
tp2817
sS'DELAINE.'
p2818
(g932
I100
I17822
tp2819
sS'VEAZIE LOYAL BUD OF HOPE LODGE NO 6557, 279 PLAINFIELD ODD LADIES LOYAL HOPE LODGE 248'
p2820
(g593
I60
I17994
tp2821
sS'ELBOW'
p2822
(S'ELBOW ST'
p2823
I100
I15835
tp2824
sS'IMERA AVE'
p2825
(S'IMERA ST'
p2826
I100
I17908
tp2827
sS'EDDY TOP FL'
p2828
(g64
I76
I15834
tp2829
sS'RWESTMINSTER'
p2830
(g2
I96
I15991
tp2831
sS'MEADOW'
p2832
(S'MEADOW ST'
p2833
I100
I15906
tp2834
sS'CRANSTON,'
p2835
(g73
I100
I15817
tp2836
sS'DEWEY'
p2837
(S'DEWEY ST'
p2838
I100
I17197
tp2839
sS'FOUNTAIN 6'
p2840
(g689
I94
I15853
tp2841
sS'ABERN-'
p2842
(g885
I80
I15763
tp2843
sS'SOUTH WATER'
p2844
(g1157
I100
I15949
tp2845
sS'SIBLEY'
p2846
(S'SIBLEY ST'
p2847
I100
I17322
tp2848
sS'G CANDACE'
p2849
(g778
I94
I17422
tp2850
sS'WASH AV'
p2851
(g20
I100
I21700
tp2852
sS'BROOK PAWTUCKET-'
p2853
(g668
I71
I16771
tp2854
sS'WEYBOSSET RM8'
p2855
(g180
I91
I15992
tp2856
sS'CHARLES FIELD'
p2857
(g1816
I85
I16096
tp2858
sS'HILLSIDE RD,'
p2859
(g1743
I100
I16235
tp2860
sS'OCEAN'
p2861
(S'OCEAN AV'
p2862
I100
I16756
tp2863
sS"' PRAIRIE AV"
p2864
(g171
I100
I16787
tp2865
sS'WEBSTER AV'
p2866
(g2689
I100
I18098
tp2867
sS'SELINA ST'
p2868
(S'SALINA ST'
p2869
I86
I17658
tp2870
sS'FIRGLADE AV'
p2871
(S'FIRGLADE AVE'
p2872
I100
I16969
tp2873
sS'PINEST'
p2874
(S'PINE ST'
p2875
I80
I15933
tp2876
sS'SEAMANS'
p2877
(S'SEAMANS AVE'
p2878
I100
I16445
tp2879
sS'BURNETT'
p2880
(S'BURNETT ST'
p2881
I100
I17172
tp2882
sS'REDWING'
p2883
(S'REDWING ST'
p2884
I100
I17302
tp2885
sS'V; BROADWAY'
p2886
(g114
I94
I15794
tp2887
sS'HALSEY'
p2888
(S'HALSEY ST'
p2889
I100
I16989
tp2890
sS'OHIO AV'
p2891
(S'OHIO AVE'
p2892
I100
I16762
tp2893
sS'CUSHING'
p2894
(S'CUSHING ST'
p2895
I100
I16130
tp2896
sS'SHARON'
p2897
(S'SHARON DR'
p2898
I100
I16447
tp2899
sS'DIAMOND'
p2900
(S'DIAMOND ST'
p2901
I100
I17199
tp2902
sS'WESTMLNSTER'
p2903
(g2
I91
I15991
tp2904
sS'HUXLEY AV'
p2905
(S'HUXLEY AVE'
p2906
I100
I17539
tp2907
sS'TANNER'
p2908
(S'TANNER ST'
p2909
I100
I17336
tp2910
sS'POINT'
p2911
(S'POINT ST'
p2912
I100
I15936
tp2913
sS'RESERVOIR AV-A'
p2914
(S'RESERVOIR AVE'
p2915
I89
I17303
tp2916
sS'FIRST FLOOR 10 WEYBOSSET'
p2917
(g180
I77
I15992
tp2918
sS'CLEVELAND'
p2919
(S'CLEVELAND ST'
p2920
I100
I16106
tp2921
sS'A POINT'
p2922
(S'OAK POINT'
p2923
I94
I16369
tp2924
sS'AMHERST'
p2925
(g150
I100
I17744
tp2926
sS'MESSER'
p2927
(S'MESSER ST'
p2928
I100
I17961
tp2929
sS'WEYBOMT ST'
p2930
(g174
I78
I15992
tp2931
sS'EMPIRE RM18'
p2932
(g2454
I85
I15840
tp2933
sS'INC'
p2934
(S'FINCH AVE'
p2935
I75
I16180
tp2936
sS'HOPE'
p2937
(S'HOPE ST'
p2938
I100
I15875
tp2939
sS'WELL ST'
p2940
(S'HOWELL ST'
p2941
I84
I17002
tp2942
sS'EAGLE ST3DF1'
p2943
(g1118
I46
I17839
tp2944
sS'SORRENTO'
p2945
(S'SORRENTO ST'
p2946
I100
I18046
tp2947
sS'LONGFELLOW'
p2948
(S'LONGFELLOW ST'
p2949
I100
I17251
tp2950
sS'WESTMINSTER MM 413'
p2951
(g2
I88
I15991
tp2952
sS'SPRAGUE'
p2953
(S'SPRAGUE ST'
p2954
I100
I17327
tp2955
sS'TH FL COUNTY CT'
p2956
(g2530
I83
I16126
tp2957
sS'8TH 2'
p2958
(S'8TH ST'
p2959
I87
I16878
tp2960
sS'SMITH'
p2961
(S'SMITH ST'
p2962
I100
I16457
tp2963
sS"ALLEN'S AV"
p2964
(S'ALLENS AVE'
p2965
I81
I15768
tp2966
sS'CALENDER 3D 11'
p2967
(g537
I73
I17175
tp2968
sS'CABOT'
p2969
(S'TALBOT ST'
p2970
I73
I16485
tp2971
sS'JEFFERSON'
p2972
(g1755
I100
I17548
tp2973
sS'-60 TAFT AV'
p2974
(S'TAFT AVE'
p2975
I86
I16484
tp2976
sS'DOMNCE ST, SUITE 300'
p2977
(S'DOME ST'
p2978
I57
I17469
tp2979
sS'POWER RD'
p2980
(S'POWER ST'
p2981
I100
I15939
tp2982
sS'DEERFIELD TER'
p2983
(S'DEERFIELD TERR'
p2984
I98
I17193
tp2985
sS'RING'
p2986
(S'RING ST'
p2987
I100
I18012
tp2988
sS'JACKSON.'
p2989
(g1332
I100
I16253
tp2990
sS'CALVERLEY ST'
p2991
(S'CALVERLY ST'
p2992
I95
I17419
tp2993
sS'GROSVENOR BLDG'
p2994
(S'GROSVENOR AVE'
p2995
I89
I16214
tp2996
sS'BATTEY'
p2997
(S'BATTEY ST'
p2998
I100
I15778
tp2999
sS'SUMMER ST2DFL'
p3000
(g1787
I81
I15965
tp3001
sS'HERSCHEL'
p3002
(S'HERSCHEL ST'
p3003
I100
I17895
tp3004
sS'CRANSWN ST'
p3005
(g40
I83
I15817
tp3006
sS'WEST MINSTER'
p3007
(g2
I87
I15991
tp3008
sS'TORONTO AV'
p3009
(S'TORONTO AVE'
p3010
I100
I16840
tp3011
sS'ROBBINSON'
p3012
(S'ROBINSON ST'
p3013
I94
I16798
tp3014
sS'TOWNER'
p3015
(S'TOWER ST'
p3016
I91
I16841
tp3017
sS'HAMLIN'
p3018
(S'HAMLIN ST'
p3019
I100
I16217
tp3020
sS'EDDY'
p3021
(S'EDDY ST'
p3022
I100
I15834
tp3023
sS'LIVINGSTON'
p3024
(S'LIVINGSTON ST'
p3025
I100
I16287
tp3026
sS'HARRI8011'
p3027
(g43
I67
I15869
tp3028
sS'STANSBURY'
p3029
(S'STANSBURY ST'
p3030
I100
I16471
tp3031
sS'LOCKWOOD'
p3032
(S'LOCKWOOD ST'
p3033
I100
I15895
tp3034
sS'A ELMGROVE AV'
p3035
(g2036
I94
I16960
tp3036
sS'EDDV'
p3037
(g64
I75
I15834
tp3038
sS'-232 WEYBOSSET'
p3039
(g180
I91
I15992
tp3040
sS'ABBOTT PARK PL 1ST FL'
p3041
(g940
I90
I15762
tp3042
sS'MT PLEASANT AVE'
p3043
(S'MOUNT PLEASANT AVE'
p3044
I95
I17599
tp3045
sS'POTTERS AV'
p3046
(g177
I100
I16786
tp3047
sS'THOMAS'
p3048
(S'THOMAS ST'
p3049
I100
I15969
tp3050
sS'EDDY SMITH HILL FISH MARKET 399 SMITH'
p3051
(S'MARKET SQ'
p3052
I67
I15902
tp3053
sS'9TH'
p3054
(S'9TH ST'
p3055
I100
I16879
tp3056
sS'SAWYER'
p3057
(S'SAWYER ST'
p3058
I100
I17319
tp3059
sS'CHAFFEE'
p3060
(S'CHAFFEE ST'
p3061
I100
I17798
tp3062
sS"E'LMWOOD AV"
p3063
(g2807
I85
I17207
tp3064
sS'A CHARLES'
p3065
(g46
I94
I16096
tp3066
sS'ELMWOOD AV'
p3067
(g1599
I100
I17207
tp3068
sS'ACADEMY AVA'
p3069
(S'ACADEMY AVE'
p3070
I89
I17365
tp3071
sS'BRANCHAV'
p3072
(g165
I86
I16067
tp3073
sS'WESTMINSTERRM9'
p3074
(g2
I88
I15991
tp3075
sS"; POTTER'S AV"
p3076
(g177
I83
I16786
tp3077
sS'-20 ARCADE BLDG'
p3078
(g1735
I80
I15773
tp3079
sS'CONGRESS AV'
p3080
(S'CONGRESS AVE'
p3081
I100
I17184
tp3082
sS'A CANDACE ST'
p3083
(S'CANDACE ST'
p3084
I95
I17422
tp3085
sS'GREENWICH STATIONS ALFRED ST'
p3086
(S'GREENWICH ST'
p3087
I80
I17220
tp3088
sS'BATH'
p3089
(S'BATH ST'
p3090
I100
I17396
tp3091
sS'ALIENS AVE'
p3092
(S'ALLENS AVE'
p3093
I86
I15768
tp3094
sS'EMPIRE RMS 303-304'
p3095
(g2454
I75
I15840
tp3096
sS'ACADEMY AV'
p3097
(S'ACADEMY AVE'
p3098
I100
I17365
tp3099
sS'WOODMAN'
p3100
(S'WOODMAN ST'
p3101
I100
I17360
tp3102
sS'KENNEDY PLAZA'
p3103
(S'KENNEDY PLZ'
p3104
I96
I15887
tp3105
sS'GREENWICH.'
p3106
(g3087
I100
I17220
tp3107
sS'DABOL'
p3108
(g498
I91
I17191
tp3109
sS'LOCUST'
p3110
(S'LOCUST AVE'
p3111
I100
I16288
tp3112
sS'LAUREL AV'
p3113
(S'LAUREL AVE'
p3114
I100
I17018
tp3115
sS'A DUDLEY'
p3116
(g2483
I93
I15830
tp3117
sS'BENEDICT'
p3118
(S'BENEDICT ST'
p3119
I100
I16053
tp3120
sS'FRANKLIN'
p3121
(S'FRANKLIN ST'
p3122
I100
I16188
tp3123
sS'SILVER SPRING'
p3124
(S'SILVER SPRING ST'
p3125
I100
I16454
tp3126
sS'BUCKLIN'
p3127
(S'BUCKLIN ST'
p3128
I100
I17171
tp3129
sS'RICHARDSON'
p3130
(S'RICHARDSON ST'
p3131
I100
I16795
tp3132
sS"CHARL'ES"
p3133
(g46
I88
I16096
tp3134
sS'NASHUA ST;'
p3135
(S'NASHUA ST'
p3136
I100
I16353
tp3137
sS'WOLCOTT'
p3138
(S'WOLCOTT ST'
p3139
I100
I17722
tp3140
sS'VALLEY OLNEYVILLE'
p3141
(g767
I83
I17978
tp3142
sS'PLAINTIELD'
p3143
(g593
I90
I17994
tp3144
sS"MAJ'N ST"
p3145
(S'NORTH CT'
p3146
I85
I15918
tp3147
sS'EDDV ST'
p3148
(g213
I80
I15834
tp3149
sS'N MAIN 4TH'
p3150
(g896
I91
I15916
tp3151
sS'WESTMINSTER ST;'
p3152
(g162
I100
I15991
tp3153
sS'AURORA'
p3154
(S'AURORA AV'
p3155
I100
I16570
tp3156
sS'DORRANCE'
p3157
(g724
I100
I15829
tp3158
sS'& ATWELLS AVE'
p3159
(g1218
I100
I15775
tp3160
sS'BENEFIT'
p3161
(S'BENEFIT ST'
p3162
I100
I15781
tp3163
sS'GILLEN'
p3164
(S'GILLEN AVE'
p3165
I100
I16202
tp3166
sS'ASHAN ST'
p3167
(S'ASCHAM ST'
p3168
I77
I16031
tp3169
sS'VIOLET'
p3170
(S'VIOLET ST'
p3171
I100
I17702
tp3172
sS'CRARYST'
p3173
(g546
I83
I15818
tp3174
sS'HAMBURG AV'
p3175
(S'HAMBURG AVE'
p3176
I100
I21713
tp3177
sS'BEACON AV'
p3178
(S'BEACON AVE'
p3179
I100
I15779
tp3180
sS'CHARLES-'
p3181
(g46
I100
I16096
tp3182
sS'DEXTER'
p3183
(S'DEXTER ST'
p3184
I100
I17198
tp3185
sS'RICHMOND STRM207'
p3186
(S'RICHMOND SQ'
p3187
I87
I17086
tp3188
sS'-74 DUDLEY'
p3189
(g2483
I90
I15830
tp3190
sS'ROGER WILLIAMS AV'
p3191
(S'ROGER WILLIAMS AVE'
p3192
I100
I17306
tp3193
sS'ED-'
p3194
(g64
I67
I15834
tp3195
sS'OAKLAND AV'
p3196
(S'OAKLAND AVE'
p3197
I100
I17609
tp3198
sS'SUMTER'
p3199
(S'SUMTER ST'
p3200
I100
I17333
tp3201
sS'POMFRET ST'
p3202
(S'SOMERSET ST'
p3203
I71
I17325
tp3204
sS'WESTMINSTER RM7 1412'
p3205
(g2
I85
I15991
tp3206
sS'ALABAMA AV'
p3207
(S'ALABAMA AVE'
p3208
I100
I16556
tp3209
sS'TO'
p3210
(S'TOP ST'
p3211
I80
I17115
tp3212
sS'MTPLEASANT AV'
p3213
(S'PLEASANT AV'
p3214
I90
I16399
tp3215
sS'FOREST'
p3216
(S'FOREST ST'
p3217
I100
I16972
tp3218
sS'TH'
p3219
(g1800
I80
I16874
tp3220
sS'BRIDGE'
p3221
(S'BRIDGE ST'
p3222
I100
I15792
tp3223
sS'BER 48 EXCHANGE; DL'
p3224
(g201
I82
I15982
tp3225
sS'HOSPITAL TRUST TOWER'
p3226
(g327
I78
I15878
tp3227
sS"WESTMINSTER '"
p3228
(g2
I100
I15991
tp3229
sS'WESTMINSTER RMS 306-307'
p3230
(g2
I82
I15991
tp3231
sS'INDUSTRIAL TRUST BLDZ 111 WESTMINSTER'
p3232
(g2
I73
I15991
tp3233
sS'C EDDY ST'
p3234
(g213
I94
I15834
tp3235
sS'HARRIS .,AV ..'
p3236
(g43
I100
I15869
tp3237
sS'WESTMINSTER MS'
p3238
(g2
I94
I15991
tp3239
sS'EDDY4THFI'
p3240
(g64
I62
I15834
tp3241
sS'MOULTON ST'
p3242
(S'MOULTON LN'
p3243
I100
I15913
tp3244
sS'BAINBRIDGE AV'
p3245
(S'BAINBRIDGE AVE'
p3246
I100
I17757
tp3247
sS'PECK 2D0'
p3248
(g2593
I83
I15928
tp3249
sS',PARK AV,'
p3250
(S'PARK ST'
p3251
I100
I16391
tp3252
sS'DYER'
p3253
(S'DYER ST'
p3254
I100
I15831
tp3255
sS'VZ VALLEY ST'
p3256
(S'VALLEY ST'
p3257
I93
I17693
tp3258
sS'8 WASHINGTON SQUARE,'
p3259
(g1527
I84
I15986
tp3260
sS'NINIGRET AV'
p3261
(S'NINIGRET AVE'
p3262
I100
I17275
tp3263
sS'THAYER'
p3264
(S'THAYER ST'
p3265
I100
I17112
tp3266
sS'WILLARD AV'
p3267
(g470
I100
I16545
tp3268
sS'WESTMINSTER STREET PROVIDENCE, RI 02903'
p3269
(g162
I72
I15991
tp3270
sS'BISHOP'
p3271
(S'BRISTOW ST'
p3272
I62
I16069
tp3273
sS'NORWICH AV'
p3274
(S'NORWICH AVE'
p3275
I100
I16753
tp3276
sS'KIMBALL'
p3277
(S'KIMBALL ST'
p3278
I100
I17556
tp3279
sS'THIRD ST'
p3280
(S'TIDD ST'
p3281
I73
I17683
tp3282
sS'& CHESTER AV'
p3283
(g1362
I100
I16619
tp3284
sS'OLNEYVILLESQ"'
p3285
(g767
I93
I17978
tp3286
sS'SARATOGA'
p3287
(S'SARATOGA ST'
p3288
I100
I16807
tp3289
sS'KNIGHT'
p3290
(S'KNIGHT ST'
p3291
I100
I15890
tp3292
sS'PRICE'
p3293
(S'PRICE ST'
p3294
I100
I17297
tp3295
sS'SNOW'
p3296
(S'SNOW ST'
p3297
I100
I15957
tp3298
sS'1 ADIE'
p3299
(S'ALDINE ST'
p3300
I73
I17738
tp3301
sS'OSBORN'
p3302
(S'OSBORN ST'
p3303
I100
I17616
tp3304
sS'RANDALL SQ SUITE 308'
p3305
(g1193
I83
I16416
tp3306
sS'DO RM 806'
p3307
(S'DORMAN AVE'
p3308
I26
I16150
tp3309
sS'EXCHANGE PL 4TH'
p3310
(g127
I87
I15846
tp3311
sS'WHIPPLE ST,'
p3312
(S'WHIPPLE ST'
p3313
I100
I17716
tp3314
sS'W EXCHANGE'
p3315
(S'WEST EXCHANGE ST'
p3316
I100
I15982
tp3317
sS'RANDALL SQ SUITE 305'
p3318
(g1193
I83
I16416
tp3319
sS'SLATER AV'
p3320
(S'SLATER AVE'
p3321
I100
I17100
tp3322
sS'RANDALL SQ SUITE 307'
p3323
(g1193
I83
I16416
tp3324
sS'BROADV'
p3325
(g405
I91
I15793
tp3326
s.