(dp0
S'ORMS'
p1
(S'ORMS ST'
p2
I100
I16384
tp3
sS'FEDERAL BLDG'
p4
(S'FEDERAL ST'
p5
I87
I15848
tp6
sS'K CRANSTON ST'
p7
(S'CRANSTON ST'
p8
I96
I15817
tp9
sS"-261 ALLEN'S AV"
p10
(S'ALLENS AVE'
p11
I74
I15768
tp12
sS'DYER AV. CRANSTON,'
p13
(S'CRANSTON ST'
p14
I83
I15817
tp15
sS'PITMAN,'
p16
(S'PITMAN ST'
p17
I100
I17073
tp18
sS'WEYBOSSET R109'
p19
(S'WEYBOSSET ST'
p20
I89
I15992
tp21
sS'CRANSTON. 1ARLINGTON, TEIS ELMHURST 1-2107, 1-2108'
p22
(S'ARLINGTON AVE'
p23
I63
I16892
tp24
sS'RUTHERGLEN AV'
p25
(S'RUTHERGLEN AVE'
p26
I100
I17312
tp27
sS'DRYDEN'
p28
(S'DRYDEN LN'
p29
I100
I16156
tp30
sS'RESERVOIR AV, TEL WLLLIAMS 1-3500'
p31
(S'RESERVOIR AVE'
p32
I72
I17303
tp33
sS'TEL DEXTER'
p34
(S'DEXTER ST'
p35
I87
I17198
tp36
sS'MILL JOHNSTON RI TEL JACKSON'
p37
(S'JOHNSON ST'
p38
I66
I16707
tp39
sS"'WESTMINSTER R1019"
p40
(S'WESTMINSTER ST'
p41
I89
I15991
tp42
sS'290 SHARON'
p43
(S'SHARON DR'
p44
I87
I16447
tp45
sS'WESTMINSTER, ROOM 216, TEL GASPEE 1-0248'
p46
(g41
I72
I15991
tp47
sS'WASHINGTON R312B'
p48
(S'WASHINGTON PL'
p49
I88
I15986
tp50
sS"-7352'"
p51
(S'I 95'
p52
I29
I15881
tp53
sS'PORTLAND'
p54
(S'PORTLAND ST'
p55
I100
I17293
tp56
sS'WEVBOSSET ST'
p57
(S'WEYBOSSET ST'
p58
I90
I15992
tp59
sS'EXCHANGE PL, TEL JACKSON 1-9600'
p60
(S'EXCHANGE TER'
p61
I76
I15846
tp62
sS'E TRANSIT ST'
p63
(S'EAST TRANSIT ST'
p64
I100
I16954
tp65
sS'WESTMINSTER R 626'
p66
(g41
I89
I15991
tp67
sS'WEYBOMET ST'
p68
(g58
I84
I15992
tp69
sS'WATERMAN STA'
p70
(S'WATERMAN ST'
p71
I90
I15988
tp72
sS'HAROLD'
p73
(S'HAROLD ST'
p74
I100
I17519
tp75
sS'REGENT AV'
p76
(S'REGENT AVE'
p77
I100
I17642
tp78
sS'WESTMINSTER R324'
p79
(g41
I90
I15991
tp80
sS'1189-1191 EDDV'
p81
(S'I 195'
p82
I44
I15880
tp83
sS'HOSPITAL TRUST BLDG'
p84
(S'HOSPITAL ST'
p85
I79
I15878
tp86
sS'4TH AV'
p87
(S'4TH ST'
p88
I100
I16874
tp89
sS'EXCHANGE R3 04'
p90
(g61
I88
I15846
tp91
sS'I LINEWOOD AV'
p92
(S'LINWOOD AVE'
p93
I87
I17249
tp94
sS'J OS LIN'
p95
(S'JOSLIN ST'
p96
I76
I17912
tp97
sS'MEWELF ST'
p98
(S'JEWELL ST'
p99
I72
I17911
tp100
sS'SUNBE ST'
p101
(S'JUNE ST'
p102
I73
I16264
tp103
sS"' SMITH"
p104
(S'SMITH ST'
p105
I100
I16457
tp106
sS'ANSELL ST'
p107
(S'ANSEL AVE'
p108
I91
I17154
tp109
sS"JEWETT LAND O'LAKE CREAMERV INC 46 HARRIS AV"
p110
(S'RED CEDAR LN'
p111
I45
I16421
tp112
sS'DANCE ST'
p113
(S'DIANE ST'
p114
I84
I16144
tp115
sS'WESTMINSTER R1131'
p116
(g41
I89
I15991
tp117
sS'WESTMINSTER R1130'
p118
(g41
I89
I15991
tp119
sS'WEYBOSSET R11'
p120
(g20
I91
I15992
tp121
sS'TINGLEY LST FL'
p122
(S'TINGLEY ST'
p123
I83
I15972
tp124
sS'-8432.'
p125
(S'2ND ST'
p126
I29
I16872
tp127
sS'WEYBOSSET R12'
p128
(g20
I91
I15992
tp129
sS'WESTMINSTER R1139'
p130
(g41
I89
I15991
tp131
sS'TAUNTON AV. EAST PROVIDENCE. TEL GENEVZI'
p132
(S'PROVIDENCE PL'
p133
I73
I17631
tp134
sS'BONAGANSETT AV'
p135
(S'PONAGANSETT AVE'
p136
I91
I17997
tp137
sS'RIGHT TOP LINEAL'
p138
(S'ARLINE ST'
p139
I56
I17383
tp140
sS'ANDEM'
p141
(S'ANDEM ST'
p142
I100
I17376
tp143
sS'DOLAN 20 WASH PL'
p144
(S'NOLAN ST EXT'
p145
I65
I17607
tp146
sS'WILLIAM ELLERY P1'
p147
(S'WILLIAM ELLERY PL'
p148
I97
I17134
tp149
sS'WAYIAND AV'
p150
(S'WAYLAND AVE'
p151
I86
I17125
tp152
sS'CUSTOM HOUSE R20. TEL GASPEE 1 -9533'
p153
(S'CUSTOM HOUSE ST'
p154
I76
I15820
tp155
sS'-297 S MAIN'
p156
(S'SOUTH MAIN ST'
p157
I91
I15948
tp158
sS'WESTMINSTER R742'
p159
(g41
I90
I15991
tp160
sS'BROAD, EDGEWOOD,'
p161
(S'EDGEWOOD AV'
p162
I86
I16650
tp163
sS'WARREN'
p164
(S'WARREN ST'
p165
I100
I17349
tp166
sS'WESTMINSTER R1007'
p167
(g41
I89
I15991
tp168
sS'IMERA AV'
p169
(S'IMERA ST'
p170
I100
I17908
tp171
sS'WESTMINSTER R1004'
p172
(g41
I89
I15991
tp173
sS'WESTMINSTER R630'
p174
(g41
I90
I15991
tp175
sS'POWER'
p176
(S'POWER ST'
p177
I100
I15939
tp178
sS'WESTMINSTER;'
p179
(g41
I100
I15991
tp180
sS'WESTMINSTER R638'
p181
(g41
I90
I15991
tp182
sS'AMHERST BRANCHES'
p183
(S'BRANCH AVE'
p184
I70
I16067
tp185
sS'WESTMINSTER,'
p186
(g41
I100
I15991
tp187
sS'WESTMINSTER.'
p188
(g41
I100
I15991
tp189
sS'ATWELIS AV'
p190
(S'ATWELLS AVE'
p191
I86
I15775
tp192
sS'N MAIN TEL DEXTER'
p193
(g35
I72
I17198
tp194
sS"ATWEU'S AV"
p195
(g191
I61
I15775
tp196
sS'ANZELL ST'
p197
(S'ANGELL ST'
p198
I86
I16890
tp199
sS'DORRANGE, TELGASPEE 1-7600'
p200
(S'GASPEE ST'
p201
I59
I15863
tp202
sS'& ALLEN,S AV'
p203
(g11
I81
I15768
tp204
sS'RESERVOIR AV'
p205
(g32
I100
I17303
tp206
sS'ANTHONV AV'
p207
(S'ANTHONY AVE'
p208
I86
I17155
tp209
sS'EXCHANGE. TEL GASNER 1-1860'
p210
(g61
I81
I15846
tp211
sS'4TH'
p212
(g88
I100
I16874
tp213
sS'BEVERLY R1'
p214
(S'BEVERLY ST'
p215
I91
I15783
tp216
sS'BEVERLY R3'
p217
(g215
I91
I15783
tp218
sS'BEVERLY R2'
p219
(g215
I91
I15783
tp220
sS'BEVERLY'
p221
(g215
I100
I15783
tp222
sS'POWER RD; FACTORY'
p223
(S'OBSERVATORY AVE'
p224
I57
I17058
tp225
sS'CALDERWOOD RD'
p226
(S'CALDER ST'
p227
I75
I17175
tp228
sS"ATWELIS IV TEL GA'SPEE"
p229
(S'ATWELLS AVE'
p230
I67
I15775
tp231
sS"CHALKSTONE. SIX OTHER CONVENIENT COMMUNITY OFFICES IN BARRINGTON CRANSTON CENTREDALE PAW'I'UCKET AND GREENVILLE"
p232
(S'CHALKSTONE AVE'
p233
I58
I17433
tp234
sS'-1350'
p235
(g82
I50
I15880
tp236
sS'EMPRE R403'
p237
(S'EMPIRE ST'
p238
I77
I15840
tp239
sS'; T V WPRO BLDG'
p240
(S'PROCTOR PL'
p241
I49
I17081
tp242
sS'-756 BROAD TEL HOPKINS'
p243
(S'HOPKINS ST'
p244
I75
I15876
tp245
sS'UPDIKE'
p246
(S'UPDIKE ST'
p247
I100
I17342
tp248
sS'WESTMINST ER 6'
p249
(g41
I89
I15991
tp250
sS'ONERYVILLE SQ'
p251
(S'OLNEYVILLE SQ'
p252
I91
I17978
tp253
sS'FEDERAL.'
p254
(g5
I100
I15848
tp255
sS'FOUNTAIN, TEL GASPEE 1-6678'
p256
(S'FOUNTAIN ST'
p257
I73
I15853
tp258
sS'WEST MINSTER R 26'
p259
(g41
I78
I15991
tp260
sS'PLAIN'
p261
(S'PLAIN ST'
p262
I100
I15934
tp263
sS'ITALV'
p264
(S'ITALY ST'
p265
I80
I17546
tp266
sS'TIRKS HEAD BLDG 76 WESTMINSTER. TEL'
p267
(g41
I74
I15991
tp268
sS'WESTMINSTER R1911'
p269
(g41
I89
I15991
tp270
sS'POST RD, HILLSGROVE. RI.'
p271
(S'HILLSIDE DR'
p272
I54
I16235
tp273
sS'STERLING AV'
p274
(S'STERLING AVE'
p275
I100
I18055
tp276
sS'WESTERVLY AV'
p277
(S'WESTERLY AVE'
p278
I94
I18101
tp279
sS'WEYBOSSET, TEL DEXTER 1-1177'
p280
(g20
I75
I15992
tp281
sS'7 FRANKLIN'
p282
(S'FRANKLIN ST'
p283
I94
I16188
tp284
sS'CHARLES,'
p285
(S'CHARLES ST'
p286
I100
I16096
tp287
sS'EARLY'
p288
(S'EARLY ST'
p289
I100
I16646
tp290
sS'IVES'
p291
(S'IVES ST'
p292
I100
I17007
tp293
sS'V WEYBOSSET.'
p294
(S'WEYBOSSET ST'
p295
I95
I15992
tp296
sS'WESTMINSTER R5 38'
p297
(g41
I89
I15991
tp298
sS'386 BROAD'
p299
(S'BROAD ST'
p300
I85
I15793
tp301
sS"SMITH'"
p302
(g105
I100
I16457
tp303
sS'S ANGELL'
p304
(S'SOUTH ANGELL ST'
p305
I100
I17093
tp306
sS'MARVIN'
p307
(S'MARVIN ST'
p308
I100
I17952
tp309
sS'EXCHANGE PL R408-9'
p310
(g61
I83
I15846
tp311
sS'BOGMAN'
p312
(S'BOGMAN ST'
p313
I100
I16597
tp314
sS'EXCHANGE R217'
p315
(g61
I90
I15846
tp316
sS'EXCHANGE R215'
p317
(g61
I90
I15846
tp318
sS'EXCHANGE R214'
p319
(g61
I90
I15846
tp320
sS'ASHBURTON'
p321
(S'ASHBURTON ST'
p322
I100
I16032
tp323
sS"FOUNTAIN, TEL GASPEE 1-8456'"
p324
(g257
I73
I15853
tp325
sS'EXCHAME, TEL GASPEE 1-1860'
p326
(g61
I64
I15846
tp327
sS'CANDACE'
p328
(S'CANDACE ST'
p329
I100
I17422
tp330
sS'-7210'
p331
(S'10TH ST'
p332
I50
I16868
tp333
sS'MANNING'
p334
(S'MANNING ST'
p335
I100
I17034
tp336
sS'ACORN'
p337
(S'ACORN ST'
p338
I100
I15764
tp339
sS'FOUNTAIN R105'
p340
(g257
I88
I15853
tp341
sS'FOUNTAIN R102'
p342
(g257
I88
I15853
tp343
sS'GODDARD'
p344
(S'GODDARD ST'
p345
I100
I17515
tp346
sS'FOUNTAIN R101'
p347
(g257
I88
I15853
tp348
sS'A'
p349
(S'A ST'
p350
I100
I17146
tp351
sS'-17 JACKSON'
p352
(S'JACKSON ST'
p353
I91
I16253
tp354
sS"BROAD'"
p355
(g300
I100
I15793
tp356
sS'ERSTMINSTER'
p357
(g41
I91
I15991
tp358
sS'BROAD.'
p359
(S'BROAD ST'
p360
I100
I15793
tp361
sS'CALHOUN'
p362
(S'CALHOUN AVE'
p363
I100
I17176
tp364
sS'BROAD,'
p365
(g360
I100
I15793
tp366
sS'FORD'
p367
(S'FORD ST'
p368
I100
I17212
tp369
sS'-2880'
p370
(g126
I29
I16872
tp371
sS'WEST EXCHANGE, TEL DEXTER 1-5800'
p372
(S'WEST EXCHANGE ST'
p373
I79
I15982
tp374
sS"R'RONT COVER)"
p375
(S'GROVER ST'
p376
I64
I17877
tp377
sS"-6'079"
p378
(g52
I42
I15881
tp379
sS'BROAD. TEL'
p380
(g300
I85
I15793
tp381
sS'WALCOTT, PAWTUCKET. TEL PAWTUCKET 2-2110'
p382
(S'PAWTUXET AV'
p383
I56
I16771
tp384
sS'PLUNKETT 85 WESTMINSTER R507'
p385
(g41
I78
I15991
tp386
sS'GEORGE,'
p387
(S'GEORGE ST'
p388
I100
I16670
tp389
sS'PLAINIIELD ST'
p390
(S'PLAINFIELD ST'
p391
I91
I17994
tp392
sS'; STORAGE C0 AGENTS), WORLDS LARGEST LONG DISTANCE MOVERS 80-90 DUDLEY,'
p393
(S'OLD STONE SQ'
p394
I45
I15919
tp395
sS'WEMET. TEL STUART'
p396
(S'STEWART ST'
p397
I60
I15963
tp398
sS'MATHEWSON, TEL DEXTER 1-0737'
p399
(S'MATHEWSON ST'
p400
I75
I15904
tp401
sS'HOPE; HOPKINS SQUARE; OLNEYVI LLE SQUARE; WASHINGTON PARK'
p402
(g49
I68
I15986
tp403
sS"MATHEWSON, 7TEL GASPEE 1-5800 '"
p404
(S'MATHEWSON ST'
p405
I74
I15904
tp406
sS'WEYBOSSET R302'
p407
(g20
I89
I15992
tp408
sS'; SWEET INC'
p409
(S'SWEETBRIAR ST'
p410
I65
I17679
tp411
sS'PHALKSTONE AV'
p412
(g233
I90
I17433
tp413
sS"PETTER'S AV"
p414
(S'PETER ST'
p415
I75
I16395
tp416
sS'PEMBROKE AV'
p417
(S'PEMBROKE AVE'
p418
I100
I17624
tp419
sS'380 EMEOOD AV'
p420
(S'EDGEWOOD AV'
p421
I69
I16650
tp422
sS'HAZAEL'
p423
(S'HAZAEL ST'
p424
I100
I16226
tp425
sS'WESTMINSTER, TEIS DEXTER 1-3400, 1-3401'
p426
(S'WESTMINSTER ST'
p427
I73
I15991
tp428
sS'LUCILE'
p429
(S'LUCILLE ST'
p430
I92
I17577
tp431
sS'MILES FROM PROVIDENCE, BEAUTIFULLY FURNISHED, FREE PARKING. ALL ROOMS WITH BATH), 179 MAIN, PAWTUCKET, RI,'
p432
(S'BAILEY BLVD'
p433
I36
I16575
tp434
sS'-222 ATWELLS AV'
p435
(g191
I89
I15775
tp436
sS'WEYBOSSET 3229'
p437
(g20
I89
I15992
tp438
sS'BROADWAY R206'
p439
(S'BROADWAY ST'
p440
I88
I15794
tp441
sS'BROADWAY R207'
p442
(g440
I88
I15794
tp443
sS'WREYBOSSET'
p444
(g20
I95
I15992
tp445
sS'BROADWAY R202'
p446
(g440
I88
I15794
tp447
sS'SHELDON'
p448
(S'SHELDON ST'
p449
I100
I16818
tp450
sS'MINER'
p451
(S'MINER ST'
p452
I100
I16342
tp453
sS'TTEYBOGESZK R32'
p454
(S'PETTEYS AVE'
p455
I50
I17990
tp456
sS'EMPIRE. TEL GABDEE 1-9000'
p457
(S'EMPIRE PLAZA'
p458
I75
I15839
tp459
sS'UNITED CONSTRUCTION WORKERS 49 WESTMINSTER R830'
p460
(S'CONSTITUTION HILL ST'
p461
I60
I16121
tp462
sS'ORCHARD AV'
p463
(S'ORCHARD LN'
p464
I100
I16380
tp465
sS'MCMILLEN'
p466
(S'MCMILLEN ST'
p467
I100
I16329
tp468
sS'ABORN'
p469
(S'ABORN ST'
p470
I100
I15763
tp471
sS'PACKET'
p472
(S'PACKET ST'
p473
I100
I15922
tp474
sS'ELM HILL PIKE PO BOX 17307 NASHVILLE, TENNBSEE 37217'
p475
(S'LASALLE SQUARE'
p476
I45
I15892
tp477
sS"WEYBO'SSET"
p478
(g20
I83
I15992
tp479
sS'-264 WEYBOSSET'
p480
(g20
I91
I15992
tp481
sS'WEYBWSET,'
p482
(g295
I82
I15992
tp483
sS'WEYBWSET R7 TEL GASPEE'
p484
(g20
I63
I15992
tp485
sS'MOOREFIELD'
p486
(S'MOOREFIELD ST'
p487
I100
I17965
tp488
sS'26 CUSTOM HOUSE R408'
p489
(g154
I87
I15820
tp490
sS'EDDY, TEL DEXTER 1-4300'
p491
(g35
I71
I17198
tp492
sS'PAWTUCKET AV, RAWTUCKET,'
p493
(S'PAWTUXET AV'
p494
I64
I16771
tp495
sS'DOUGLAS AV'
p496
(S'DOUGLAS AVE'
p497
I100
I16154
tp498
sS'FIGHT SIDE LINES)'
p499
(S'KNIGHT ST'
p500
I54
I15890
tp501
sS'BALBO AV'
p502
(S'BALBO AVE'
p503
I100
I21740
tp504
sS"OWEN AV. PAWTUCKE'I' TEL PAWTUCKET ZLAAAE"
p505
(g383
I56
I16771
tp506
sS'FALES'
p507
(S'FALES ST'
p508
I100
I17211
tp509
sS'CUSTOM HOUSE, TEL GASPEE 1-8900'
p510
(g154
I78
I15820
tp511
sS'PAVILION AV'
p512
(S'PAVILION AVE'
p513
I100
I16770
tp514
sS'-8314'
p515
(S'1ST ST'
p516
I29
I16871
tp517
sS'WHITFORD AV'
p518
(S'WHITFORD AVE'
p519
I100
I17717
tp520
sS'THOMAS VINCENT LUONGO MEMORIAL SQ'
p521
(S'LUONGO MEMORIAL SQ'
p522
I85
I15896
tp523
sS'-1420'
p524
(g332
I50
I16868
tp525
sS'HOPKMS'
p526
(g244
I77
I15876
tp527
sS'-8313'
p528
(g516
I29
I16871
tp529
sS'CUSTOM HOUSE R42, 43, 44, TEL GASPEE 1-9856'
p530
(g154
I73
I15820
tp531
sS'G MATHEWSON'
p532
(g400
I95
I15904
tp533
sS'44 HARRISON'
p534
(S'HARRISON ST'
p535
I92
I17226
tp536
sS'WESTMINSTER R 607'
p537
(g41
I89
I15991
tp538
sS'COLLEGE'
p539
(S'COLLEGE ST'
p540
I100
I15812
tp541
sS'WEYBOSSET R4 24'
p542
(g20
I87
I15992
tp543
sS'ETENEFIT'
p544
(S'BENEFIT ST'
p545
I80
I15781
tp546
sS'LIBRARY CT,'
p547
(S'LIBRARY RD'
p548
I100
I17565
tp549
sS'ALTHEA'
p550
(S'ALTHEA ST'
p551
I100
I17152
tp552
sS'*CHAPIN AV'
p553
(S'CHAPIN AVE'
p554
I100
I17800
tp555
sS'HOSPITAL TRUST BLDG 15 WESTMINSTER,'
p556
(g427
I74
I15991
tp557
sS'HAVRRIS AV'
p558
(S'HARRIS AVE'
p559
I92
I15869
tp560
sS'72 BRANCH AV'
p561
(g184
I90
I16067
tp562
sS'G ATWELLS AV'
p563
(g230
I94
I15775
tp564
sS'WEYBOSSET R601'
p565
(g20
I89
I15992
tp566
sS'-9187 JACKSON 1-0988'
p567
(g353
I77
I16253
tp568
sS'BUCKLIN PICTURE FRAMES PICTURES-'
p569
(S'TURNESSA GREEN'
p570
I49
I16502
tp571
sS'; STORAGE C0'
p572
(S'ORANGE ST'
p573
I70
I15921
tp574
sS'CUSTOM HOUSE R202'
p575
(g154
I91
I15820
tp576
sS'CUSTOM HOUSE R203'
p577
(g154
I91
I15820
tp578
sS'CUSTOM HOUSE R201'
p579
(g154
I91
I15820
tp580
sS'WESTMINSTER R1124'
p581
(g41
I89
I15991
tp582
sS'MANTON AV'
p583
(S'MANTON AVE'
p584
I100
I17947
tp585
sS'WESTMINSTER R1126'
p586
(g41
I89
I15991
tp587
sS'-105 WESTMINSTER'
p588
(g41
I92
I15991
tp589
sS'WESTMINSTER R1122'
p590
(g41
I89
I15991
tp591
sS'ROSLYN AV'
p592
(S'ROSLYN AVE'
p593
I100
I17655
tp594
sS'ELM-GG WOOD AV.'
p595
(S'WOOD ST'
p596
I76
I18110
tp597
sS'DELAINE'
p598
(S'DELAINE ST'
p599
I100
I17822
tp600
sS'SWAN'
p601
(S'SWAN CT'
p602
I100
I16481
tp603
sS', 37-39 NARRANGANSETT AV,'
p604
(S'NARRAGANSETT AV'
p605
I88
I17270
tp606
sS'-5421'
p607
(g52
I29
I15881
tp608
sS'BROADWAV R6'
p609
(g440
I81
I15794
tp610
sS'WAMPUNOAG TRAIL EAST PROVIDENCE TEL GENEVA'
p611
(g133
I72
I17631
tp612
sS'CHESTER AV'
p613
(S'CHESTER AVE'
p614
I100
I16619
tp615
sS'S WATER'
p616
(S'SOUTH WATER ST'
p617
I100
I15949
tp618
sS'-541 HARTFORD AV'
p619
(S'HARTFORD AVE'
p620
I90
I17889
tp621
sS'EDDY R301'
p622
(S'EDDY ST'
p623
I81
I15834
tp624
sS'WESTMINSTER R627'
p625
(g41
I90
I15991
tp626
sS'WESTMINSTER R624'
p627
(g41
I90
I15991
tp628
sS'WESTMINSTER R623'
p629
(g41
I90
I15991
tp630
sS'WESTMINSTER R621'
p631
(g41
I90
I15991
tp632
sS'WHITTIER AV'
p633
(S'WHITTIER AVE'
p634
I100
I18107
tp635
sS'WESTMINSTER R1011'
p636
(g41
I89
I15991
tp637
sS'WESTMINSTER R1012'
p638
(g41
I89
I15991
tp639
sS'RIGHT SIDE LINES BACK COVER)'
p640
(S'BRIGHTON ST'
p641
I55
I17781
tp642
sS'ORMSBEE AV'
p643
(g2
I73
I16384
tp644
sS'UNION R204'
p645
(S'UNION ST'
p646
I83
I15977
tp647
sS'LLOVD AV'
p648
(S'LLOYD AVE'
p649
I80
I17025
tp650
sS'UNION R201'
p651
(g646
I83
I15977
tp652
sS'PARNELL'
p653
(S'PARNELL ST'
p654
I100
I17987
tp655
sS'UNION R202'
p656
(g646
I83
I15977
tp657
sS"MASOR'Z."
p658
(S'MASSO DR'
p659
I73
I16322
tp660
sS'HARBORSIDE BLVD,'
p661
(S'HARBORSIDE BLVD'
p662
I100
I16683
tp663
sS'HOSPITAL TRUST TOWER PROVIDENCE, RI 02903'
p664
(S'PROVIDENCE PL'
p665
I71
I17631
tp666
sS'WESTMINSTER R810'
p667
(g41
I90
I15991
tp668
sS'B'
p669
(S'JOB ST'
p670
I50
I16257
tp671
sS'WOODBURY'
p672
(S'WOODBURY RD'
p673
I100
I16866
tp674
sS'UNION BARNEY WALTER C, 58 REYBOSSET, TEL JACKSON 1 -61 51'
p675
(g20
I59
I15992
tp676
sS'2D ST'
p677
(S'2ND ST'
p678
I85
I16872
tp679
sS'WESTMINSTER R813'
p680
(g41
I90
I15991
tp681
sS'BURRINGTON'
p682
(S'BURRINGTON ST'
p683
I100
I21717
tp684
sS'SHIP'
p685
(S'SHIP ST'
p686
I100
I15955
tp687
sS'RAYMOND'
p688
(S'RAYMOND ST'
p689
I100
I17639
tp690
sS'PONTIAC'
p691
(S'PONTIAC AVE'
p692
I100
I17292
tp693
sS'POTXD.'
p694
(S'POND ST'
p695
I67
I15937
tp696
sS'I ATWELIS AV'
p697
(g230
I80
I15775
tp698
sS'WHITTIER RD'
p699
(S'WHITTIER AVE'
p700
I100
I18107
tp701
sS',47 WESTMINSTER ST'
p702
(S'WESTMINSTER ST'
p703
I95
I15991
tp704
sS'WESTMINSTER R408'
p705
(g41
I90
I15991
tp706
sS'CARPENTER.'
p707
(S'CARPENTER ST'
p708
I100
I15801
tp709
sS'DELMAR AVE'
p710
(S'DELMAR ST'
p711
I100
I17194
tp712
sS'WESTMINSTER R1904'
p713
(g41
I89
I15991
tp714
sS'MELROSE,'
p715
(S'MELROSE ST'
p716
I100
I17263
tp717
sS"ADMIRAL ST'"
p718
(S'ADMIRAL ST'
p719
I100
I16005
tp720
sS'CAMP'
p721
(S'CAMP ST'
p722
I100
I16917
tp723
sS'-543 L10YD AV'
p724
(S'LYDIA AVE'
p725
I51
I16300
tp726
sS'AFL 4 ANN'
p727
(S'MAFALDA ST'
p728
I55
I16304
tp729
sS'OLNEYVILLE AM'
p730
(g252
I92
I17978
tp731
sS'-39 NARRAGANSETT . AV'
p732
(S'NARRAGANSETT AV'
p733
I95
I17270
tp734
sS'WAMPUNOAG TRAIL, EAST PROVIDENCE,'
p735
(S'PROVIDENCE ST'
p736
I74
I17299
tp737
sS'CHESTNUT,'
p738
(S'CHESTNUT ST'
p739
I100
I15807
tp740
sS'WEYBOSSET, OFFICE'
p741
(g295
I86
I15992
tp742
sS"RIGHT TOP LINES)'"
p743
(g641
I69
I17781
tp744
sS'380 ELMWOOD AV'
p745
(S'ELMWOOD AVE'
p746
I89
I17207
tp747
sS'REYNOLDS AV'
p748
(S'REYNOLDS AVE'
p749
I100
I16791
tp750
sS'TAUNTON AV'
p751
(S'STANTON ST'
p752
I86
I18051
tp753
sS'PLEASANT'
p754
(S'PLEASANT AV'
p755
I100
I16399
tp756
sS'CARRINGTON AV'
p757
(S'CARRINGTON AVE'
p758
I100
I16918
tp759
sS'LOIS AV'
p760
(S'LOIS AVE'
p761
I100
I17570
tp762
sS'RUGGLES'
p763
(S'RUGGLES ST'
p764
I100
I17657
tp765
sS'MILK'
p766
(S'MILK ST'
p767
I100
I16733
tp768
sS'CLEANSERS 335 MANTON AV'
p769
(S'LEANDER ST'
p770
I59
I17929
tp771
sS'WEVBOSSET'
p772
(g20
I89
I15992
tp773
sS'ALLEN S AV.'
p774
(S'ALLENS AVE'
p775
I81
I15768
tp776
sS'C STEVENS'
p777
(S'STEUBEN ST'
p778
I67
I18056
tp779
sS'-277 THURBERS AV'
p780
(S'THURBERS AVE'
p781
I90
I16839
tp782
sS'-228 PLAIN'
p783
(g262
I85
I15934
tp784
sS'TAUNTON AVE'
p785
(S'STANTON ST'
p786
I86
I18051
tp787
sS'DORRANCE R18'
p788
(S'DORRANCE ST'
p789
I90
I15829
tp790
sS'-7345 IF NO ANSWER CALL CENTREDALE'
p791
(S'CENTRAL AVE'
p792
I58
I16095
tp793
sS'CRANS TON'
p794
(S'CRANSTON ST'
p795
I85
I15817
tp796
sS'OLNEYVILLE SO'
p797
(g252
I96
I17978
tp798
sS'14 GREEN'
p799
(S'GREENE ST'
p800
I81
I15866
tp801
sS'AFWELLS AV'
p802
(g230
I86
I15775
tp803
sS'M MANTON AVE'
p804
(S'MANTON AVE'
p805
I95
I17947
tp806
sS'WOODBINE'
p807
(S'WOODBINE ST'
p808
I100
I16550
tp809
sS'WESTMINSTER R8 37'
p810
(g41
I89
I15991
tp811
sS'DORRANCE R404'
p812
(g789
I88
I15829
tp813
sS'WESTIIINBTER. TEL UNION'
p814
(g41
I66
I15991
tp815
sS'MANHON AVE'
p816
(g805
I86
I17947
tp817
sS'WESTMINSTER R1137'
p818
(g41
I89
I15991
tp819
sS'FRANCIS'
p820
(S'FRANCIS AVE'
p821
I100
I16187
tp822
sS'WESTMINSTER R319'
p823
(g41
I90
I15991
tp824
sS'-142 HUMBOLDT AV'
p825
(S'HUMBOLDT AVE'
p826
I90
I17003
tp827
sS'-1981'
p828
(g82
I50
I15880
tp829
sS'CUSTOM HOUSE.'
p830
(S'CUSTOM HOUSE ST'
p831
I100
I15820
tp832
sS'JEWETT'
p833
(S'JEWETT ST'
p834
I100
I17549
tp835
sS'MAIN, PAWTUCKET, TEL PAWTUCKET 5-3 520'
p836
(g383
I57
I16771
tp837
sS'STEWART, TEL GASPEE 1-2600'
p838
(g397
I72
I15963
tp839
sS'TAUNTON AV,'
p840
(S'STANTON ST'
p841
I86
I18051
tp842
sS'PROMENADE'
p843
(S'PROMENADE ST'
p844
I100
I17630
tp845
sS'A BRANCH AVE'
p846
(S'BRANCH AVE'
p847
I95
I16067
tp848
sS'LONGMONT'
p849
(S'LONGMONT ST'
p850
I100
I17571
tp851
sS'221 ANGELL'
p852
(S'ANGELL RD'
p853
I87
I16022
tp854
sS'ALMY'
p855
(S'ALMY ST'
p856
I100
I17741
tp857
sS'WASH R213'
p858
(S'WASHINGTON ST'
p859
I81
I21700
tp860
sS'K CHARLES ST'
p861
(S'CHARLES ST'
p862
I95
I16096
tp863
sS'ELAINFIELD, TEL ELMHURST 1-1149'
p864
(S'PLAINFIELD ST'
p865
I67
I17994
tp866
sS'BASSETT'
p867
(S'BASSETT ST'
p868
I100
I15777
tp869
sS"ALLEN'S AV, TEL HOPKINS 1-5500"
p870
(g244
I67
I15876
tp871
sS'FSCHANGE PL, TEL GASPEE 1-6822'
p872
(g61
I59
I15846
tp873
sS'-8313 1-8314'
p874
(S'I 195'
p875
I27
I15880
tp876
sS'LEFT SIDE LINES) MARIANI A A'
p877
(S'ADRIAN HALL WY'
p878
I58
I15765
tp879
sS'HELME'
p880
(S'HELME ST'
p881
I100
I17892
tp882
sS'MAIN. PAWTUCKET,'
p883
(g494
I73
I16771
tp884
sS'BLACKSTONE, TEL DEXTER 1-2853'
p885
(S'BLACKSTONE BLVD'
p886
I80
I16904
tp887
sS'JACKSON'
p888
(g353
I100
I16253
tp889
sS'; CO'
p890
(S'COES ST'
p891
I67
I16108
tp892
sS"WAMPANOAG TRAIL, EAST PROVIDENCE,7TE'1L GENEYA 4-7400"
p893
(S'PROVIDENCE PL'
p894
I68
I17631
tp895
sS'LEFT BOTTOM UNES)'
p896
(S'BOLTON AVE'
p897
I56
I17407
tp898
sS'WILLOW'
p899
(S'WILLOW ST'
p900
I100
I18108
tp901
sS"ALLEN'S"
p902
(g11
I81
I15768
tp903
sS'LAUREL HILL AV'
p904
(S'LAUREL HILL AVE'
p905
I100
I17926
tp906
sS'PEACH AV'
p907
(S'PEACH AVE'
p908
I100
I17070
tp909
sS'CARPENTER TELS GASPEE'
p910
(S'CARPENTER ST'
p911
I80
I15801
tp912
sS'RIVER AV.'
p913
(S'RIVER AVE'
p914
I100
I16423
tp915
sS'GENEVA'
p916
(S'GENEVA ST'
p917
I100
I17509
tp918
sS'STREET SECTION RIGHT SIDE LINES)'
p919
(S'SETON ST'
p920
I55
I18034
tp921
sS'BROAD, EDGEWOOD, TEL HOPKINS 1-5400'
p922
(S'EDGEWOOD BLVD'
p923
I71
I16652
tp924
sS'RIVER AV'
p925
(S'RIVER AVE'
p926
I100
I16423
tp927
sS'GOVERNOR R2'
p928
(S'GOVERNOR ST'
p929
I92
I16983
tp930
sS'TM AVE'
p931
(S'TIME ST'
p932
I67
I16495
tp933
sS'PINEST3DF1'
p934
(S'PINEHURST AVE'
p935
I63
I17626
tp936
sS'RIGHT SIDE LINES) I"DOORS. SASH TRIM'
p937
(g641
I53
I17781
tp938
sS'MOV'
p939
(S'MOY ST'
p940
I67
I16350
tp941
sS'UCHALKSTONE AV'
p942
(g233
I95
I17433
tp943
sS'POCASSET AV. TEE TEMPLE'
p944
(S'POCASSET AVE'
p945
I76
I17995
tp946
sS'WEYBOSSET TEL GASPEE 1-9349'
p947
(g20
I75
I15992
tp948
sS'1WAY1AND AV'
p949
(g151
I80
I17125
tp950
sS'DUNCAN AV'
p951
(S'DUNCAN AVE'
p952
I100
I16947
tp953
sS'PUTNAM PIKE RT 44'
p954
(S'PUTNAM ST'
p955
I76
I18003
tp956
sS'SIMS AV'
p957
(S'SIMS AVE'
p958
I100
I18041
tp959
sS'METCALF'
p960
(S'METCALF ST'
p961
I100
I16337
tp962
sS'GOVERNOR'
p963
(g929
I100
I16983
tp964
sS'WEYBOSSET R32'
p965
(g20
I91
I15992
tp966
sS'WEYBOSSET R31'
p967
(g20
I91
I15992
tp968
sS'-311 WASHINGTON AV'
p969
(S'WASHINGTON ST'
p970
I91
I15987
tp971
sS'BROAD ST.'
p972
(S'BROAD ST'
p973
I100
I15793
tp974
sS'NICHOLS'
p975
(S'NICHOLS ST'
p976
I100
I21722
tp977
sS'WESTMINSTER R634'
p978
(g41
I90
I15991
tp979
sS'CI'
p980
(S'CAHIR ST'
p981
I57
I15797
tp982
sS"ELMWOOD AV, TEL STUART 1'-4000"
p983
(g746
I70
I17207
tp984
sS'MAIN, PAWTUCKET, TEL PAWTUCKET 2-0080'
p985
(g383
I57
I16771
tp986
sS'WESTMINSTER R635'
p987
(g41
I90
I15991
tp988
sS'-5432'
p989
(g52
I29
I15881
tp990
sS'WESTMINSTER R5'
p991
(g41
I94
I15991
tp992
sS'WESTMINSTER R637'
p993
(g41
I90
I15991
tp994
sS"-814 ALLEN'S AV"
p995
(S'ALLENS AVE'
p996
I74
I15768
tp997
sS', 623-633 ATWELIS AV, TEL GABPEE 1-0680'
p998
(g230
I57
I15775
tp999
sS'WESTMINSTER R619'
p1000
(g41
I90
I15991
tp1001
sS') TELEPHONE 272-1314'
p1002
(S'STEPHANIE DR'
p1003
I55
I16474
tp1004
sS'WESTMINSTER R612'
p1005
(g41
I90
I15991
tp1006
sS'WESTMINSTER R613'
p1007
(g41
I90
I15991
tp1008
sS'WESTMINSTER R610'
p1009
(g41
I90
I15991
tp1010
sS'WESTMINSTER R611'
p1011
(g41
I90
I15991
tp1012
sS'WESTMINSTER R614'
p1013
(g41
I90
I15991
tp1014
sS"-0100 '"
p1015
(g332
I50
I16868
tp1016
sS'PUBLIC'
p1017
(S'PUBLIC ST'
p1018
I100
I15942
tp1019
sS'WESTMINSTER, TEL JACKSON 19800; BRANCH 475 ANGELL'
p1020
(g41
I69
I15991
tp1021
sS'G SMITH'
p1022
(g105
I91
I16457
tp1023
sS'NARRAGANSETT AV.'
p1024
(S'NARRAGANSETT ST'
p1025
I100
I16747
tp1026
sS'WEFYBOSSET R44'
p1027
(g20
I86
I15992
tp1028
sS'HILLVIEW AV'
p1029
(S'HILLVIEW DR'
p1030
I100
I16237
tp1031
sS'WESTMINSTER R1009'
p1032
(g41
I89
I15991
tp1033
sS"'WESTMINSTER"
p1034
(g41
I100
I15991
tp1035
sS'-0040 GABDEE 1-5454'
p1036
(S'GASPEE ST'
p1037
I50
I15863
tp1038
sS'STIMS ON AV'
p1039
(S'STIMSON AVE'
p1040
I88
I17105
tp1041
sS'ADMIRAL'
p1042
(S'ADMIRAL ST'
p1043
I100
I16005
tp1044
sS'-2180'
p1045
(g332
I50
I16868
tp1046
sS'PROVIDENCE'
p1047
(S'PROVIDENCE ST'
p1048
I100
I17299
tp1049
sS'A ELMGROVE AV'
p1050
(S'ELMGROVE AVE'
p1051
I94
I16960
tp1052
sS'CARPENTER,'
p1053
(g708
I100
I15801
tp1054
sS'HOSPITAL,'
p1055
(S'HOSPITAL ST'
p1056
I100
I15878
tp1057
sS'WESLEYAN AV'
p1058
(S'WESLEYAN AVE'
p1059
I100
I17353
tp1060
sS'CUSTOM HOUSE,'
p1061
(g831
I100
I15820
tp1062
sS'EMPIRE R302'
p1063
(g238
I85
I15840
tp1064
sS'EMPIRE R303'
p1065
(g238
I85
I15840
tp1066
sS'EXCHAME,'
p1067
(S'EXCHANGE ST'
p1068
I80
I15845
tp1069
sS'EMPIRE R307'
p1070
(g238
I85
I15840
tp1071
sS'EMPIRE R304'
p1072
(g238
I85
I15840
tp1073
sS'-53 WEYBOSSET'
p1074
(g20
I93
I15992
tp1075
sS'BROADWAY SUITE A'
p1076
(S'BROADWAY ST'
p1077
I83
I15794
tp1078
sS'BROADWAY SUITE E'
p1079
(g1077
I79
I15794
tp1080
sS'BEAUFORT'
p1081
(S'BEAUFORT ST'
p1082
I100
I17397
tp1083
sS'W FRIENDSHIP'
p1084
(S'WEST FRIENDSHIP ST'
p1085
I100
I17345
tp1086
sS'NARRAGANSETT AVE'
p1087
(S'NARRAGANSETT ST'
p1088
I100
I16747
tp1089
sS'WESTMINSTER R811'
p1090
(g41
I90
I15991
tp1091
sS'WESTMINSTER R812'
p1092
(g41
I90
I15991
tp1093
sS'ANGELL'
p1094
(g853
I100
I16022
tp1095
sS'WESTMINSTER R814'
p1096
(g41
I90
I15991
tp1097
sS'WESTMINSTER R815'
p1098
(g41
I90
I15991
tp1099
sS'ANGELI'
p1100
(S'ANGELA CT'
p1101
I83
I16021
tp1102
sS'WESTMINSTER R818'
p1103
(g41
I90
I15991
tp1104
sS'WESTMINSTER R819'
p1105
(g41
I90
I15991
tp1106
sS'ATRWELLS AV'
p1107
(g230
I93
I15775
tp1108
sS'BEACH UNION STATION'
p1109
(S'UNION STATION ST'
p1110
I90
I15978
tp1111
sS'MORGAN AV, JOHNSTON, RI,'
p1112
(S'JOHNSON ST'
p1113
I71
I16707
tp1114
sS'WEYBCBSET TEL GASPEE'
p1115
(g20
I63
I15992
tp1116
sS'CANE'
p1117
(S'CANETE ST'
p1118
I80
I16081
tp1119
sS'-9555'
p1120
(g52
I58
I15881
tp1121
sS'KINS LEV AV'
p1122
(S'KINSLEY AVE'
p1123
I76
I15889
tp1124
sS'WESTFIELD'
p1125
(S'WESTFIELD ST'
p1126
I100
I17354
tp1127
sS'DUDLEV'
p1128
(S'DUDLEY ST'
p1129
I83
I15830
tp1130
sS"DORR'ANCE"
p1131
(S'DORR ST'
p1132
I81
I17471
tp1133
sS'WEYBWSET TEL STUART'
p1134
(g20
I66
I15992
tp1135
sS'DUDLEY'
p1136
(g1129
I100
I15830
tp1137
sS'-0917'
p1138
(g52
I29
I15881
tp1139
sS'MATHEW SON'
p1140
(g400
I87
I15904
tp1141
sS'ADGELL'
p1142
(g853
I83
I16022
tp1143
sS'VALLEY'
p1144
(S'VALLEY ST'
p1145
I100
I17693
tp1146
sS'PRAIRIE AV,'
p1147
(S'PRAIRIE AVE'
p1148
I100
I16787
tp1149
sS'HARVARD AV'
p1150
(S'HARVARD AVE'
p1151
I100
I17228
tp1152
sS'D'
p1153
(S'ADA ST'
p1154
I50
I16003
tp1155
sS'WESTMINSTER, PROVIDENCE,'
p1156
(g427
I83
I15991
tp1157
sS'BAKER'
p1158
(S'BAKER ST'
p1159
I100
I16576
tp1160
sS'-144 BROOK'
p1161
(S'BROOK ST'
p1162
I85
I15795
tp1163
sS'ERNST'
p1164
(S'ERNEST ST'
p1165
I91
I16656
tp1166
sS'DIKE LST FL'
p1167
(S'DIKE ST'
p1168
I76
I17827
tp1169
sS'ROLFE CRANSTON TEL GASPEE'
p1170
(g795
I74
I15817
tp1171
sS'EXCHANGE R300'
p1172
(g61
I90
I15846
tp1173
sS'EXCHANGE R305'
p1174
(g61
I90
I15846
tp1175
sS'-2624'
p1176
(g126
I29
I16872
tp1177
sS'RIGHT SIDE NINES)'
p1178
(g641
I63
I17781
tp1179
sS'MARIETTA'
p1180
(S'MARIETTA ST'
p1181
I100
I16314
tp1182
sS'CAROLINA AV'
p1183
(S'CAROLINA AVE'
p1184
I100
I16085
tp1185
sS'S MAIN NR CRAWFORD'
p1186
(S'STRATFORD RD'
p1187
I61
I16825
tp1188
sS'PECK, TEL GASPEE 1-1358'
p1189
(g1037
I71
I15863
tp1190
sS'IPLAINFIE1D'
p1191
(g865
I86
I17994
tp1192
sS'DOUGLAS'
p1193
(g497
I100
I16154
tp1194
sS'AVTWELLS AV'
p1195
(g191
I93
I15775
tp1196
sS"WES'MZANSTER TEL JACKSON"
p1197
(S'MANCHESTER FARM RD'
p1198
I62
I16308
tp1199
sS"VAI'IETY STORE 777 BROAD ST"
p1200
(S'POINT STREET BRG'
p1201
I61
I16403
tp1202
sS'DORANCE R502'
p1203
(g789
I81
I15829
tp1204
sS'TO 372 PLAINFIE 1D'
p1205
(g865
I76
I17994
tp1206
sS'-155 WESTMINSTER'
p1207
(g41
I92
I15991
tp1208
sS'SUTTON'
p1209
(S'SUTTON ST'
p1210
I100
I15966
tp1211
sS'WILCOX'
p1212
(S'WILSON ST'
p1213
I67
I17359
tp1214
sS'EXCHANGE R411'
p1215
(g61
I90
I15846
tp1216
sS'SMITHFIELD AV'
p1217
(S'SMITHFIELD AVE'
p1218
I100
I16458
tp1219
sS'PRESCOTT'
p1220
(S'PRESCOTT ST'
p1221
I100
I17629
tp1222
sS'WEYBOSSET R602'
p1223
(g20
I89
I15992
tp1224
sS'WESTMINSTER TEL UNION'
p1225
(g41
I84
I15991
tp1226
sS'WEYBOSSET R607'
p1227
(g20
I89
I15992
tp1228
sS'OPPER'
p1229
(S'OPPER ST'
p1230
I100
I16379
tp1231
sS'PINEST'
p1232
(S'PINE ST'
p1233
I80
I15933
tp1234
sS'BURNETT'
p1235
(S'BURNETT ST'
p1236
I100
I17172
tp1237
sS'*A WEYBOSSET ST'
p1238
(g58
I96
I15992
tp1239
sS'BEVERLY R10'
p1240
(g215
I89
I15783
tp1241
sS'BEVERLY R13'
p1242
(g215
I89
I15783
tp1243
sS'OWEN AV'
p1244
(S'OWEN ST'
p1245
I100
I17981
tp1246
sS'BEVERLY R16'
p1247
(g215
I89
I15783
tp1248
sS'BEVERLY R18'
p1249
(g215
I89
I15783
tp1250
sS'AD, TELS GASPEE 1-3621; 1-3622'
p1251
(g1037
I67
I15863
tp1252
sS'MESSER'
p1253
(S'MESSER ST'
p1254
I100
I17961
tp1255
sS'A BROADWAY'
p1256
(g440
I94
I15794
tp1257
sS'WELL ST'
p1258
(S'HOWELL ST'
p1259
I84
I17002
tp1260
sS'N MAIN TEL TEMPLE'
p1261
(S'TEMPLE CT'
p1262
I72
I16834
tp1263
sS'TINGLEY'
p1264
(g123
I100
I15972
tp1265
sS'-8800'
p1266
(S'8TH ST'
p1267
I29
I16878
tp1268
sS'WESTMINSTER R80 1'
p1269
(g41
I89
I15991
tp1270
sS'CLEMENCE'
p1271
(S'CLEMENCE ST'
p1272
I100
I15810
tp1273
sS'GAME'
p1274
(S'AMES ST'
p1275
I75
I15771
tp1276
sS'JEFFERSON'
p1277
(S'JEFFERSON ST'
p1278
I100
I17548
tp1279
sS'PLENTY'
p1280
(S'PLENTY ST'
p1281
I100
I17290
tp1282
sS"WEYBOSSET. TEL GASDEE 1-7900'"
p1283
(g20
I75
I15992
tp1284
sS'TURNER'
p1285
(S'TURNER ST'
p1286
I100
I17689
tp1287
sS'MAIN ST'
p1288
(S'MARVIN ST'
p1289
I84
I17952
tp1290
sS'CUSTOM HOUSE R42-43-44,'
p1291
(g831
I85
I15820
tp1292
sS'-80 BAKER'
p1293
(g1159
I88
I16576
tp1294
sS'CARPENTER'
p1295
(g911
I100
I15801
tp1296
sS"WESTMINSTER, ' TEL GASPEE 1-590'0"
p1297
(g41
I77
I15991
tp1298
sS'HAMLIN'
p1299
(S'HAMLIN ST'
p1300
I100
I16217
tp1301
sS'EDDY'
p1302
(g623
I100
I15834
tp1303
sS'WASHINGTON R2'
p1304
(g970
I93
I15987
tp1305
sS'WASHINGTON R6'
p1306
(g970
I93
I15987
tp1307
sS'AD-'
p1308
(g1154
I80
I16003
tp1309
sS'EDDV'
p1310
(g623
I75
I15834
tp1311
sS'OF SIDNEY F HOAR CAMP 176 BENEFIT'
p1312
(g545
I67
I15781
tp1313
sS'INDUSTRIAL BANK BLDG,'
p1314
(S'INDUSTRIAL DR'
p1315
I83
I16249
tp1316
sS'-510 PRAIRIE AV'
p1317
(S'PRAIRIE AVE'
p1318
I89
I16787
tp1319
sS'CHAFFEE'
p1320
(S'CHAFFEE ST'
p1321
I100
I17798
tp1322
sS'BEPEFIT .'
p1323
(g545
I86
I15781
tp1324
sS'HEATH'
p1325
(S'HEATH ST'
p1326
I100
I17891
tp1327
sS'EDD;'
p1328
(g623
I86
I15834
tp1329
sS'INDIANA AV'
p1330
(S'INDIANA AVE'
p1331
I100
I16702
tp1332
sS'RICHMEND'
p1333
(S'RICHMOND ST'
p1334
I88
I15946
tp1335
sS"RICHMOND, TEL JACKSON 1 -883'7"
p1336
(S'RICHMOND SQ'
p1337
I75
I17086
tp1338
sS'BROADWAY R24'
p1339
(g440
I90
I15794
tp1340
sS'WEYBOSSET R28'
p1341
(g20
I91
I15992
tp1342
sS'WEYBOSSET R26'
p1343
(g20
I91
I15992
tp1344
sS'WEYBOSSET R27'
p1345
(g20
I91
I15992
tp1346
sS'-0610'
p1347
(g332
I50
I16868
tp1348
sS'WEYBOSSET R23'
p1349
(g20
I91
I15992
tp1350
sS") ' KINGSTON CUTLERY CO. IMPERIAL"
p1351
(S'KINGSTON AVE'
p1352
I72
I17013
tp1353
sS'-12-16 PORTLAND'
p1354
(g55
I86
I17293
tp1355
sS'SASSAFRAS'
p1356
(S'SASSAFRAS ST'
p1357
I100
I17317
tp1358
sS'LLOYD AV'
p1359
(g649
I100
I17025
tp1360
sS'WOLCOTT'
p1361
(S'WOLCOTT ST'
p1362
I100
I17722
tp1363
sS'G BROAD'
p1364
(g300
I91
I15793
tp1365
sS'BEVERAGE HILL AV,'
p1366
(S'BEVERLY ST'
p1367
I63
I15783
tp1368
sS'NUDAVIS'
p1369
(S'DAVIS ST'
p1370
I83
I16137
tp1371
sS'WESTMINSTER ST;'
p1372
(g703
I100
I15991
tp1373
sS'ROBINSON MENDELL 130 WATERMAN ST'
p1374
(S'ROBINSON ST'
p1375
I75
I16798
tp1376
sS'TRIPPS LANE EAST PROVIDENCE'
p1377
(S'PROVIDENCE ST'
p1378
I77
I17299
tp1379
sS'318 FOUNTAIN'
p1380
(g257
I90
I15853
tp1381
sS'CONVENT APT 2'
p1382
(S'CONVENT ST'
p1383
I85
I17451
tp1384
sS'LAD MDUWUE-UONLA'
p1385
(S'CAMDEN AVE'
p1386
I47
I17421
tp1387
sS'UNION BARNEY WALTER C, 58 REYBOSSET,'
p1388
(g295
I65
I15992
tp1389
sS'PAIGE'
p1390
(S'PAGE ST'
p1391
I89
I15923
tp1392
sS'WESTMINSTER ST.'
p1393
(g703
I100
I15991
tp1394
sS'WESTMINSTER ST,'
p1395
(g703
I100
I15991
tp1396
sS'BEACON AV'
p1397
(S'BEACON AVE'
p1398
I100
I15779
tp1399
sS'CONDUIT'
p1400
(S'CONDUIT ST'
p1401
I100
I15814
tp1402
sS'WESTMINSTER R609'
p1403
(g41
I90
I15991
tp1404
sS'WESTMINSTER R605'
p1405
(g41
I90
I15991
tp1406
sS'WESTMINSTER R607'
p1407
(g41
I90
I15991
tp1408
sS'OAKLAND AV'
p1409
(S'OAKLAND AVE'
p1410
I100
I17609
tp1411
sS'WESTMINSTER R601'
p1412
(g41
I90
I15991
tp1413
sS'SIMS AV.'
p1414
(S'SIMS AVE'
p1415
I100
I18041
tp1416
sS'CANTON'
p1417
(S'CANTON ST'
p1418
I100
I17424
tp1419
sS'WESTMINSTER R201'
p1420
(g41
I90
I15991
tp1421
sS'421 HOPE'
p1422
(S'HOPE ST'
p1423
I83
I15875
tp1424
sS'EXCHANGE PL R315'
p1425
(g61
I85
I15846
tp1426
sS'8TH'
p1427
(g1267
I100
I16878
tp1428
sS'ELMBURST AV'
p1429
(S'ELMHURST AVE'
p1430
I88
I17482
tp1431
sS'E'
p1432
(S'EAST ST'
p1433
I100
I15833
tp1434
sS'C10 241 WEYBOSSET R313'
p1435
(g20
I79
I15992
tp1436
sS'VZ VALLEY ST'
p1437
(S'VALLEY ST'
p1438
I93
I17693
tp1439
sS'-76362 BRANCH SALESROOM WAREHOUSE'
p1440
(S'SALEM DR'
p1441
I49
I16442
tp1442
sS'WILLARD AV'
p1443
(S'WILLARD ST'
p1444
I100
I16545
tp1445
sS'EDGEWORTH'
p1446
(g421
I71
I16650
tp1447
sS'TROV'
p1448
(S'TROY ST'
p1449
I75
I18078
tp1450
sS'THIRD ST'
p1451
(S'TIDD ST'
p1452
I73
I17683
tp1453
sS'FRONT COVER)'
p1454
(S'FREMONT ST'
p1455
I69
I16975
tp1456
sS'BUCKLIN'
p1457
(S'BUCKLIN ST'
p1458
I100
I17171
tp1459
sS'RANDALL TEL GASPE E L-'
p1460
(S'RANDALL SQ'
p1461
I76
I16416
tp1462
sS'WESTMINSTER, ROOM 908,'
p1463
(g427
I85
I15991
tp1464
sS'LABAN,'
p1465
(S'LABAN ST'
p1466
I100
I17924
tp1467
sS'WHIPPLE ST,'
p1468
(S'WHIPPLE ST'
p1469
I100
I17716
tp1470
sS'EDDY R403-405'
p1471
(g623
I73
I15834
tp1472
sS'-7488'
p1473
(g88
I29
I16874
tp1474
sS"WASHINGTON R301 I'I"
p1475
(g49
I84
I15986
tp1476
sS'ELMWOOD AV,'
p1477
(S'ELMWOOD AVE'
p1478
I100
I17207
tp1479
sS'GEORGIA AV, TELS STUART 1-1134, 1-1135'
p1480
(S'GEORGIA AVE'
p1481
I66
I16671
tp1482
sS'-134 FOUNTAIN,'
p1483
(S'FOUNTAIN ST'
p1484
I90
I15853
tp1485
sS'KIMBAU'
p1486
(S'KIMBALL ST'
p1487
I77
I17556
tp1488
sS'MAUDE'
p1489
(S'MAUDE ST'
p1490
I100
I17588
tp1491
sS'-58I HARRIS AV'
p1492
(g559
I87
I15869
tp1493
sS'WASHI1;GTON'
p1494
(g970
I74
I15987
tp1495
sS'BEACH'
p1496
(S'BEACH ST'
p1497
I100
I16050
tp1498
sS',1124 CRANSTON, ARLINGTON,'
p1499
(g23
I78
I16892
tp1500
sS'OXFGRD'
p1501
(S'OXFORD ST'
p1502
I83
I16764
tp1503
sS'WESTMINSTER R801'
p1504
(g41
I90
I15991
tp1505
sS'WESTMINSTER R807'
p1506
(g41
I90
I15991
tp1507
sS'WESTMINSTER R805'
p1508
(g41
I90
I15991
tp1509
sS'WESTMINSTER R808'
p1510
(g41
I90
I15991
tp1511
sS'-6289'
p1512
(g52
I29
I15881
tp1513
sS'0'
p1514
(g332
I40
I16868
tp1515
sS'COMSTOCK AV'
p1516
(S'COMSTOCK AVE'
p1517
I100
I16631
tp1518
sS'ROCHAMBEAU AV'
p1519
(S'ROCHAMBEAU AVE'
p1520
I100
I17088
tp1521
sS'FOUNTAIN R801'
p1522
(g257
I88
I15853
tp1523
sS'EMPIRE R203'
p1524
(g238
I85
I15840
tp1525
sS'EMPIRE R202'
p1526
(g238
I85
I15840
tp1527
sS'EMPIRE R201'
p1528
(g238
I85
I15840
tp1529
sS'EMPIRE R207'
p1530
(g238
I85
I15840
tp1531
sS'EMPIRE R206'
p1532
(g238
I85
I15840
tp1533
sS'EMPIRE R204'
p1534
(g238
I85
I15840
tp1535
sS'HIGGINS AV'
p1536
(S'HIGGINS AVE'
p1537
I100
I17528
tp1538
sS'WESSER'
p1539
(g1254
I83
I17961
tp1540
sS'CROOIN'
p1541
(S'ROBIN ST'
p1542
I73
I16427
tp1543
sS'DYER AVE'
p1544
(S'DYER ST'
p1545
I100
I15831
tp1546
sS'EXCHANGE PL, TELJACKSON 1-9600'
p1547
(S'JACKSON ST'
p1548
I60
I16253
tp1549
sS'COLE AV'
p1550
(S'COLE AVE'
p1551
I100
I16928
tp1552
sS'WESTMINSTER R41-42'
p1553
(g41
I88
I15991
tp1554
sS'CLAREMONT AV'
p1555
(S'CLAREMONT AVE'
p1556
I100
I17438
tp1557
sS'DORRANGE'
p1558
(S'DORRANCE ST'
p1559
I88
I15829
tp1560
sS'LEFT BOTTOM LINES FRONT COVER)'
p1561
(S'ABBOTT PARK PL'
p1562
I50
I15762
tp1563
sS'WAMPANOAG TRAIL. EAST PROVIDENCE TEL GENEVAI'
p1564
(g133
I71
I17631
tp1565
sS'328 WICKENDEN'
p1566
(S'WICKENDEN ST'
p1567
I91
I15995
tp1568
sS'I W EXCHANGE'
p1569
(g373
I96
I15982
tp1570
sS'TORONTO AV, TEL STUART 1-3050'
p1571
(S'TORONTO AVE'
p1572
I70
I16840
tp1573
sS'EXCHANGE R310'
p1574
(g61
I90
I15846
tp1575
sS'EXCHANGE R311'
p1576
(g61
I90
I15846
tp1577
sS'RIGHT SIDE NNESY'
p1578
(g641
I63
I17781
tp1579
sS'WESTMINSTER R51'
p1580
(g41
I92
I15991
tp1581
sS'SABIN, PAWTUCKET, TEL PAWTUCKET 2-7800'
p1582
(g383
I57
I16771
tp1583
sS'SMITH.'
p1584
(S'SMITH ST'
p1585
I100
I16457
tp1586
sS'PAWTUCKET AV. PAWTUCKET TEL PAWTUCKET'
p1587
(g383
I57
I16771
tp1588
sS'FOUNTAIN'
p1589
(g257
I100
I15853
tp1590
sS'YELLOW PAGE'
p1591
(S'ELBOW ST'
p1592
I61
I15835
tp1593
sS'WASH R307'
p1594
(g859
I81
I21700
tp1595
sS'WEYBOSSET R701'
p1596
(g20
I89
I15992
tp1597
sS'WEYBOSSET R703'
p1598
(g20
I89
I15992
tp1599
sS'WEYBOSSET R704'
p1600
(g20
I89
I15992
tp1601
sS'WEYBOSSET R705'
p1602
(g20
I89
I15992
tp1603
sS'WEYBOSSET R706'
p1604
(g20
I89
I15992
tp1605
sS'-105'
p1606
(g82
I58
I15880
tp1607
sS'UNION'
p1608
(g646
I100
I15977
tp1609
sS'ATWELLS'
p1610
(g230
I100
I15775
tp1611
sS'KNIGUT'
p1612
(g500
I83
I15890
tp1613
sS'WASH R308'
p1614
(g859
I81
I21700
tp1615
sS'WEYBOSSET R5'
p1616
(g20
I93
I15992
tp1617
sS'WEYBOSSET R4'
p1618
(g20
I93
I15992
tp1619
sS'WAMPANOAG TRAIL. EAST PROVIDENCE TEL GENEVA'
p1620
(g133
I72
I17631
tp1621
sS'WEYBOSSET R1'
p1622
(g20
I93
I15992
tp1623
sS'WEYBOSSET R2'
p1624
(g20
I93
I15992
tp1625
sS'TUXEDO AV'
p1626
(S'TUXEDO AVE'
p1627
I100
I18079
tp1628
sS'127 DORRANCE'
p1629
(g789
I90
I15829
tp1630
sS'EXCHANGE R401'
p1631
(g61
I90
I15846
tp1632
sS'SOCIAL'
p1633
(S'SOCIAL ST'
p1634
I100
I16460
tp1635
sS'DACKSON'
p1636
(g353
I86
I16253
tp1637
sS'-61 BROADWAY; FACTORY'
p1638
(g440
I79
I15794
tp1639
sS'WEYBOSSET'
p1640
(g20
I100
I15992
tp1641
sS'CURTIS'
p1642
(S'CURTIS ST'
p1643
I100
I17813
tp1644
sS'DORRANCE R3 03'
p1645
(g789
I86
I15829
tp1646
sS'WASHINGTON R307,'
p1647
(S'WASHINGTON ST'
p1648
I90
I15987
tp1649
sS'XFORDST'
p1650
(S'OXFORD ST'
p1651
I77
I16764
tp1652
sS'DORRANCE R3 05'
p1653
(g789
I86
I15829
tp1654
sS'SCHESTNUTST'
p1655
(S'CHESTNUT ST'
p1656
I84
I15807
tp1657
sS'POST RD. APPONAUG,'
p1658
(S'EAST APPROACH'
p1659
I59
I15832
tp1660
sS'OLNEYVILLE SQ. TEL ELMHURST R1-4104'
p1661
(g252
I77
I17978
tp1662
sS'BURNSIDE'
p1663
(S'BURNSIDE ST'
p1664
I100
I16606
tp1665
sS'MYRTLE'
p1666
(S'MYRTLE ST'
p1667
I100
I17269
tp1668
sS'KENYON'
p1669
(S'KENYON ST'
p1670
I100
I15888
tp1671
sS'WESTIIINBTER.'
p1672
(g427
I78
I15991
tp1673
sS'MATHEWSON STRM403'
p1674
(S'MATHEWSON ST'
p1675
I84
I15904
tp1676
sS'WESTMINSTER R404,'
p1677
(g427
I90
I15991
tp1678
sS'ARNOLD'
p1679
(S'ARNOLD CT'
p1680
I100
I16028
tp1681
sS'DORRANCE R307'
p1682
(g789
I88
I15829
tp1683
sS'WESTMINSTER; BRANCH 205 WAYLAND AV, TEL GASPEE 1-8400; NEWPORT BRANCH 160 THAMES; 54 BILLSIDER, GARDEN CITY'
p1684
(g41
I59
I15991
tp1685
sS'OLNEYVILLE SQ.'
p1686
(S'OLNEYVILLE SQ'
p1687
I100
I17978
tp1688
sS'GORDON AV, TEL WILLIAMS 1-1111'
p1689
(S'ROGER WILLIAMS AVE'
p1690
I78
I17306
tp1691
sS'ORANGE'
p1692
(g573
I100
I15921
tp1693
sS'PRINTERY'
p1694
(S'PRINTERY ST'
p1695
I100
I16408
tp1696
sS'ENFIELD AV'
p1697
(S'ENFIELD AVE'
p1698
I100
I17483
tp1699
sS'REDWING'
p1700
(S'REDWING ST'
p1701
I100
I17302
tp1702
sS'RHODES TEL GABPEE'
p1703
(S'RHODES PL'
p1704
I81
I16793
tp1705
sS'DIAMOND'
p1706
(S'DIAMOND ST'
p1707
I100
I17199
tp1708
sS'HARRISON'
p1709
(g535
I100
I17226
tp1710
sS'FALLON AV'
p1711
(S'FALLON AVE'
p1712
I100
I17494
tp1713
sS'-6900 GEE YELLOW PAGE'
p1714
(S'LONGFELLOW TER'
p1715
I55
I17252
tp1716
sS'WESTMINSTER R 18'
p1717
(g41
I90
I15991
tp1718
sS'SABIN R8'
p1719
(S'SABIN ST'
p1720
I88
I15950
tp1721
sS'SABIN R1'
p1722
(g1720
I88
I15950
tp1723
sS'-0737 DEXTER'
p1724
(g35
I85
I17198
tp1725
sS'MATHEWSON'
p1726
(g400
I100
I15904
tp1727
sS'RIGHT TOP LINES)'
p1728
(g641
I69
I17781
tp1729
sS'CONGRESS AV'
p1730
(S'CONGRESS AVE'
p1731
I100
I17184
tp1732
sS'-8900'
p1733
(S'I 95'
p1734
I29
I15881
tp1735
sS'WESTMINSTER STRM934'
p1736
(g703
I86
I15991
tp1737
sS'SUTTON, TEL GASPEE 1-3252'
p1738
(g1210
I70
I15966
tp1739
sS'FRANKLIN COMMERCIAL CONTROLS CORP 236 BROAD COX RALPH C CORP 26 CUSTOM HOUSE R202 DICTAPHONE CORP 338 BROAD'
p1740
(S'COMMERCIAL DR'
p1741
I58
I16114
tp1742
sS'EXCHANGE,'
p1743
(g1068
I100
I15845
tp1744
sS'0254'
p1745
(g1734
I29
I15881
tp1746
sS'-44 CHARLES'
p1747
(S'CHARLES ST'
p1748
I91
I16096
tp1749
sS'WEYBOSSET, TEL GASPEE 1-0528'
p1750
(g20
I75
I15992
tp1751
sS'LYNDE'
p1752
(S'LYNDE ST'
p1753
I100
I17580
tp1754
sS'WESTMINSTER STRM938'
p1755
(g703
I86
I15991
tp1756
sS'DAVIS'
p1757
(g1370
I100
I16137
tp1758
sS'SMITH TELS DEXTER'
p1759
(g35
I76
I17198
tp1760
sS'GRAHAM'
p1761
(S'GRAHAM ST'
p1762
I100
I16984
tp1763
sS'KEENE'
p1764
(S'KEENE ST'
p1765
I100
I17012
tp1766
sS"WEYBOSSET. TEL GASPEE' 1-1665"
p1767
(g20
I75
I15992
tp1768
sS'WESTMINSTER R10 34'
p1769
(g41
I88
I15991
tp1770
sS'WEYBOSSET R53'
p1771
(g20
I91
I15992
tp1772
sS'WEYBOSSET R52'
p1773
(g20
I91
I15992
tp1774
sS'WEYBOSSET. RI.'
p1775
(g295
I93
I15992
tp1776
sS'WEYBOSSET R54'
p1777
(g20
I91
I15992
tp1778
sS'SABIN'
p1779
(g1720
I100
I15950
tp1780
sS'WEYBOSSET R56'
p1781
(g20
I91
I15992
tp1782
sS'1'
p1783
(g516
I50
I16871
tp1784
sS'INDUSTRIAL BANK BLDG 111 WESTMINSTER STREET, SERVICE OFFICE IN LOBBY.'
p1785
(g427
I64
I15991
tp1786
sS'93 LAURA'
p1787
(S'LAURA ST'
p1788
I88
I17243
tp1789
sS'INDUSTRIAL BANK BLDG 111 WESTMINSTER STREET, SERVICE OFFICE IN LOBBY,'
p1790
(g427
I64
I15991
tp1791
sS'537 BRANCH AV'
p1792
(g184
I87
I16067
tp1793
sS'-8636'
p1794
(S'3RD ST'
p1795
I29
I16873
tp1796
sS'CULVER,'
p1797
(S'CULVER ST'
p1798
I100
I16633
tp1799
sS'THURSTON'
p1800
(S'THURSTON ST'
p1801
I100
I17340
tp1802
sS'PINE TEL DEXTER'
p1803
(g35
I78
I17198
tp1804
sS"WEYBOSSE'I', TEL GASPEE 1-5074'"
p1805
(g20
I71
I15992
tp1806
sS'WOODMONT'
p1807
(S'WOODMONT ST'
p1808
I100
I17361
tp1809
sS'ANSELL'
p1810
(S'ANSEL AVE'
p1811
I91
I17154
tp1812
sS'HUDSON'
p1813
(S'HUDSON ST'
p1814
I100
I17903
tp1815
sS'WESTMINSTER R1040'
p1816
(g41
I89
I15991
tp1817
sS'PAPER CO 49 RATHBONE'
p1818
(S'RATHBONE ST'
p1819
I78
I17637
tp1820
sS'KING, PO BOX 77, OLNEYVILLE STATION, TELS ELMHURST 1-6300, 1-6301'
p1821
(g252
I66
I17978
tp1822
sS'INDUSTRIAL BANK BLDG 111 WESTMINSTER.'
p1823
(g427
I73
I15991
tp1824
sS'& MANTON AV'
p1825
(g584
I100
I17947
tp1826
sS'UNION TRUST BUILDING 170 WESTMINSTER'
p1827
(g41
I73
I15991
tp1828
sS'INDUSTRIAL BANK BLDG 111 WESTMINSTER,'
p1829
(g427
I73
I15991
tp1830
sS'CHAD BROWN STATE CLEANSERS & LAUNDRY 70 CROOM'
p1831
(S'CORNPLANTER ROW'
p1832
I49
I17187
tp1833
sS'VZ HUDSON ST'
p1834
(S'HUDSON ST'
p1835
I93
I17903
tp1836
sS'HAYES'
p1837
(S'HAYES ST'
p1838
I100
I17522
tp1839
sS'POSTRROAD.'
p1840
(S'POST RD'
p1841
I62
I16785
tp1842
sS'SHE RATON-BILTMORE'
p1843
(S'BILTMORE AVE'
p1844
I81
I17405
tp1845
sS'GORDON AV,'
p1846
(S'GORDON AVE'
p1847
I100
I16675
tp1848
sS'WESTMINSTER R704'
p1849
(g41
I90
I15991
tp1850
sS'WESTMINSTER R705'
p1851
(g41
I90
I15991
tp1852
sS'WESTMINSTER R706'
p1853
(g41
I90
I15991
tp1854
sS'WESTMINSTER R707'
p1855
(g41
I90
I15991
tp1856
sS'WESTMINSTER R700'
p1857
(g41
I90
I15991
tp1858
sS'WESTMINSTER R702'
p1859
(g41
I90
I15991
tp1860
sS'WESTMINSTER R703'
p1861
(g41
I90
I15991
tp1862
sS'I KNIGHT'
p1863
(g500
I93
I15890
tp1864
sS'WESTMINSTER R708'
p1865
(g41
I90
I15991
tp1866
sS'SILVER SPRING KITTIANACK SHOPPE 139 MATHEWSON R509'
p1867
(g1331
I40
I16702
tp1868
sS'131 WASHINGTON R305'
p1869
(g49
I84
I15986
tp1870
sS'-6762'
p1871
(g126
I29
I16872
tp1872
sS"WAINWRIGHT, TEL DEXTER'1-2678"
p1873
(S'WAINWRIGHT ST'
p1874
I76
I17706
tp1875
sS'WESTMINSTER, TEL GASPEE 1-0566'
p1876
(g41
I77
I15991
tp1877
sS'WEYBMSET,'
p1878
(g295
I82
I15992
tp1879
sS'WESTMINSTER, SUITE 335, EL JACKSON 1-6700'
p1880
(g41
I72
I15991
tp1881
sS'; SHEPLEY INC'
p1882
(S'HEDLEY ST'
p1883
I68
I21727
tp1884
sS'WESTMINSTER R832'
p1885
(g41
I90
I15991
tp1886
sS"-8255 NIGHTS ' HOLIDAYS TEL ELINHURST"
p1887
(S'ELMHURST AVE'
p1888
I57
I17482
tp1889
sS"BEV'ERLY R 18"
p1890
(g215
I71
I15783
tp1891
sS'MAWNEY'
p1892
(S'MAWNEY ST'
p1893
I100
I17261
tp1894
sS'357 WESTMINSTER R413'
p1895
(g41
I85
I15991
tp1896
sS'-1064'
p1897
(g332
I50
I16868
tp1898
sS'NELSON'
p1899
(S'NELSON ST'
p1900
I100
I17603
tp1901
sS'CRARY'
p1902
(S'CRARY ST'
p1903
I100
I15818
tp1904
sS'& EASTWOOD AVE'
p1905
(S'EASTWOOD AVE'
p1906
I100
I17839
tp1907
sS'CLIFF'
p1908
(S'CLIFF ST'
p1909
I100
I17441
tp1910
sS'SABIN 6TH'
p1911
(g1720
I85
I15950
tp1912
sS'HEMLOCK'
p1913
(S'HEMLOCK ST'
p1914
I100
I17525
tp1915
sS'WESTMINSTER B803'
p1916
(g41
I90
I15991
tp1917
sS'PEAK'
p1918
(S'PECK ST'
p1919
I75
I15928
tp1920
sS'MCMCOUN SQUARE, TELS PLANTING 1-2260, 1-2261'
p1921
(S'MOUNT PLEASANT AVE'
p1922
I51
I17599
tp1923
sS'-1119 JACKSON 1-0072'
p1924
(g1548
I77
I16253
tp1925
sS'COLFAX'
p1926
(S'COLFAX ST'
p1927
I100
I16626
tp1928
sS'WASHINGTON R304'
p1929
(g970
I90
I15987
tp1930
sS'5TH'
p1931
(S'5TH ST'
p1932
I100
I16875
tp1933
sS'WEYBOESET STRM21'
p1934
(g58
I76
I15992
tp1935
sS'WESTMINSTER STRM630'
p1936
(g703
I86
I15991
tp1937
sS'RANDALL SQ SUITE 104'
p1938
(S'RANDALL SQ'
p1939
I83
I16416
tp1940
sS'WASHINGTON R306'
p1941
(g970
I90
I15987
tp1942
sS'BROAD R10'
p1943
(g300
I85
I15793
tp1944
sS'AMSTERDAM'
p1945
(S'AMSTERDAM ST'
p1946
I100
I17745
tp1947
sS'MORRIS AV'
p1948
(S'MORRIS AVE'
p1949
I100
I17047
tp1950
sS'WEYB0SSET R20'
p1951
(g20
I81
I15992
tp1952
sS"-7123'"
p1953
(S'12TH ST'
p1954
I50
I16870
tp1955
sS'GROTON'
p1956
(S'GROTON ST'
p1957
I100
I17875
tp1958
sS'-24 RANDALL'
p1959
(S'RANDALL RD'
p1960
I91
I16415
tp1961
sS'SMITH R1'
p1962
(g105
I88
I16457
tp1963
sS'EHARLES'
p1964
(g1748
I86
I16096
tp1965
sS'83 BATTEY'
p1966
(S'BATTEY ST'
p1967
I90
I15778
tp1968
sS'SMITH R2'
p1969
(g105
I88
I16457
tp1970
sS'SMITH R5'
p1971
(g105
I88
I16457
tp1972
sS'MAS. AMOUR AV, EAST PROVIDENCE, TEIS EAST PNOVMNNCN 1-3881, 1-2095'
p1973
(g133
I66
I17631
tp1974
sS'SMITH R7'
p1975
(g105
I88
I16457
tp1976
sS'SMITH R6'
p1977
(g105
I88
I16457
tp1978
sS'EXCHANGE R327'
p1979
(g61
I90
I15846
tp1980
sS'EXCHANGE R323'
p1981
(g61
I90
I15846
tp1982
sS'EXCHANGE R322'
p1983
(g61
I90
I15846
tp1984
sS'EXCHANGE P1R514'
p1985
(g61
I87
I15846
tp1986
sS'PECK, TEL DEXTER 1-1400'
p1987
(g35
I71
I17198
tp1988
sS'LEAH'
p1989
(S'LEAH ST'
p1990
I100
I17561
tp1991
sS'-4436'
p1992
(g1795
I29
I16873
tp1993
sS'WEYBOSSET, TEL JACKSON 1-3411'
p1994
(g20
I74
I15992
tp1995
sS'EOMWOOD AV'
p1996
(g746
I86
I17207
tp1997
sS'GOULD'
p1998
(S'GOULDING ST'
p1999
I77
I16982
tp2000
sS'DOVLE AV'
p2001
(S'DOVE ST'
p2002
I89
I16945
tp2003
sS'-8432 1-843;'
p2004
(S'2ND ST'
p2005
I22
I16872
tp2006
sS'MEDWAY. TEL UNLON'
p2007
(S'MEDWAY ST'
p2008
I77
I17040
tp2009
sS'WESTMINSTER. TEIS ELMHURST'
p2010
(g41
I80
I15991
tp2011
sS'ATWELLS5AV'
p2012
(g230
I82
I15775
tp2013
sS'BISHOP ST'
p2014
(S'BRISTOW ST'
p2015
I68
I16069
tp2016
sS'WASHINGTON R1'
p2017
(g970
I93
I15987
tp2018
sS"WT'ESTMINSTER R8"
p2019
(g41
I88
I15991
tp2020
sS'RHODES,'
p2021
(S'RHODES ST'
p2022
I100
I15945
tp2023
sS'-3643'
p2024
(g1795
I29
I16873
tp2025
sS'-3095 RES TELS GASPEE'
p2026
(g1037
I73
I15863
tp2027
sS'WALSH 111 WESTMINSTER R505'
p2028
(g41
I79
I15991
tp2029
sS'BRANCH AV'
p2030
(g184
I100
I16067
tp2031
sS'PLANET'
p2032
(S'PLANET ST'
p2033
I100
I15935
tp2034
sS'2'
p2035
(g126
I50
I16872
tp2036
sS'JOHN'
p2037
(S'JOHN ST'
p2038
I100
I16259
tp2039
sS'WESTMINSTER R59'
p2040
(g41
I92
I15991
tp2041
sS'AMICA BLDG 10 WEYBOSSET; TEL GASNEE 1-3500'
p2042
(g20
I68
I15992
tp2043
sS'WEYBOSSET R409'
p2044
(g20
I89
I15992
tp2045
sS'PRAIRIE AV'
p2046
(S'PRAIRIE AVE'
p2047
I100
I16787
tp2048
sS'BRIDGHANF'
p2049
(S'BRIDGHAM ST'
p2050
I82
I17169
tp2051
sS'WESTMINS TER; MT PLEASANT OFFICE'
p2052
(g41
I68
I15991
tp2053
sS'FOUNTAIN,'
p2054
(g1484
I100
I15853
tp2055
sS'BRAYTON AV'
p2056
(S'BRAYTON AVE'
p2057
I100
I15791
tp2058
sS'WEYBOSSET R 533'
p2059
(g20
I87
I15992
tp2060
sS'MATHEWSON STRM302'
p2061
(g1675
I84
I15904
tp2062
sS'V; CHARLES ST'
p2063
(g862
I95
I16096
tp2064
sS'WESTMINS TE R'
p2065
(g41
I88
I15991
tp2066
sS'-3800'
p2067
(g1795
I29
I16873
tp2068
sS'WESTMINSTER R507'
p2069
(g41
I90
I15991
tp2070
sS'PRINCETON AVE'
p2071
(S'PRINCETON AV'
p2072
I100
I17298
tp2073
sS'MRS 15 WESTMINSTER R1103'
p2074
(g41
I81
I15991
tp2075
sS"-27OB'Z"
p2076
(S'JOB ST'
p2077
I50
I16257
tp2078
sS'76 DORRANCE R301'
p2079
(g789
I83
I15829
tp2080
sS'-314 CRANSTON'
p2081
(g795
I90
I15817
tp2082
sS'SNOW REAR OF MAIN STORE TEL JACKSON'
p2083
(g353
I66
I16253
tp2084
sS'WASH R315'
p2085
(g859
I81
I21700
tp2086
sS'BORDEN'
p2087
(S'BORDEN ST'
p2088
I100
I15787
tp2089
sS"CRANSTON, 3'SZ GASPEE 17300"
p2090
(g795
I73
I15817
tp2091
sS'111WESTMINSTER R428'
p2092
(g41
I80
I15991
tp2093
sS"CHARLTON, EVERETT. MASS. TEL EVERETT 9-0076'"
p2094
(S'CARLETON ST'
p2095
I58
I17427
tp2096
sS'SUTTON,'
p2097
(S'SUTTON ST'
p2098
I100
I15966
tp2099
sS'LEFT TOP LILIES)'
p2100
(S'NELLIE ST'
p2101
I57
I16355
tp2102
sS'12 CHAPIN AV'
p2103
(g554
I90
I17800
tp2104
sS'HIGHLAND AV'
p2105
(S'HIGHLAND AVE'
p2106
I100
I16997
tp2107
sS'N MAIN ST'
p2108
(S'NORTH MAIN ST'
p2109
I100
I15916
tp2110
sS'PRISCILLA AV'
p2111
(S'PRISCILLA AVE'
p2112
I100
I18000
tp2113
sS'WES TMINSTER'
p2114
(g41
I90
I15991
tp2115
sS'WESTMINSTER, TEL GASPEE 1-2588'
p2116
(g41
I77
I15991
tp2117
sS'E MANNING ST'
p2118
(S'EAST MANNING ST'
p2119
I100
I16951
tp2120
sS'ATWELL AV'
p2121
(g191
I92
I15775
tp2122
sS'JULIAN'
p2123
(S'JULIAN ST'
p2124
I100
I17914
tp2125
sS'SHAWMUT'
p2126
(S'SHAW ST'
p2127
I73
I16448
tp2128
sS"CHALKSTONE ' AVE"
p2129
(S'CHALKSTONE AVE'
p2130
I100
I17433
tp2131
sS'D CORNER BOOK SHOP 4G WEYBOSSET'
p2132
(g20
I72
I15992
tp2133
sS'W RIVER ST'
p2134
(S'WEST RIVER ST'
p2135
I100
I16541
tp2136
sS'MANTZM AV'
p2137
(S'MAGNAM RD'
p2138
I67
I17256
tp2139
sS'EDDY. TEL STUART 1-9300'
p2140
(S'STATE HWY 10'
p2141
I57
I17332
tp2142
sS'CALVERLEY'
p2143
(S'CALVERLY ST'
p2144
I94
I17419
tp2145
sS'DORRANCE R511'
p2146
(g789
I88
I15829
tp2147
sS'DORRANCE R510'
p2148
(g789
I88
I15829
tp2149
sS'DORRANCE R517'
p2150
(g789
I88
I15829
tp2151
sS'DORRANCE R516'
p2152
(g789
I88
I15829
tp2153
sS'WESTMMSTER'
p2154
(g41
I86
I15991
tp2155
sS'WICKEHDEN'
p2156
(g1567
I89
I15995
tp2157
sS'-88 NARRAGANSETT AV'
p2158
(g733
I95
I17270
tp2159
sS'HILLSIDE AVE'
p2160
(S'HILLSIDE DR'
p2161
I100
I16235
tp2162
sS'PROSPECT'
p2163
(S'PROSPECT ST'
p2164
I100
I16409
tp2165
sS'WEYBOSSET, TEL GASPEE 1-1757'
p2166
(g20
I75
I15992
tp2167
sS"BR'OAD. TEL WILLIAMS"
p2168
(g1690
I86
I17306
tp2169
sS"NIM'GRET AVE"
p2170
(S'GREAT VIEW AVE'
p2171
I75
I16211
tp2172
sS'WESTMINST'
p2173
(g41
I90
I15991
tp2174
sS'A ATWELLS AV'
p2175
(g230
I94
I15775
tp2176
sS'SOUTH'
p2177
(S'SOUTH CT'
p2178
I100
I15959
tp2179
sS'HAYWARD'
p2180
(S'HAYWARD ST'
p2181
I100
I17231
tp2182
sS'-6700Z'
p2183
(S'6TH ST'
p2184
I25
I16876
tp2185
sS'SAFGENT AV'
p2186
(S'SARGENT AVE'
p2187
I86
I17095
tp2188
sS'GLENBRIDGE AV'
p2189
(S'GLENBRIDGE AVE'
p2190
I100
I17868
tp2191
sS'-6600'
p2192
(g2184
I29
I16876
tp2193
sS'MAGNOLIA'
p2194
(S'MAGNOLIA ST'
p2195
I100
I17944
tp2196
sS'RESERVOIR AV,'
p2197
(S'RESERVOIR AVE'
p2198
I100
I17303
tp2199
sS"-54'00"
p2200
(g52
I36
I15881
tp2201
sS"GORDON AV, TEL WILLIAMS 1-2086'"
p2202
(g1690
I78
I17306
tp2203
sS'LENNON'
p2204
(S'LENNON ST'
p2205
I100
I17563
tp2206
sS'DORRANCE.'
p2207
(g1559
I100
I15829
tp2208
sS'LOUIS AV'
p2209
(S'LOUIS AVE'
p2210
I100
I17253
tp2211
sS'MALVEM ST'
p2212
(S'MALVERN ST'
p2213
I80
I16307
tp2214
sS'GORDON AV. TEL ; WLLLIAMS 1-1111'
p2215
(S'ROGER WILLIAMS CIR'
p2216
I69
I16799
tp2217
sS'SMITH ROOMS 4-5'
p2218
(g105
I75
I16457
tp2219
sS'PRINT ERY'
p2220
(g1695
I85
I16408
tp2221
sS'CINAL'
p2222
(S'CANAL ST'
p2223
I80
I15798
tp2224
sS'WEYBCBSET, TEL DEXTER 1-8200'
p2225
(g20
I58
I15992
tp2226
sS"-0400'"
p2227
(g88
I29
I16874
tp2228
sS"Z1 WALCOTT, PAWTUCKET. TE'L PAWTUCKET 2-2110"
p2229
(g494
I55
I16771
tp2230
sS'EDDY R712A'
p2231
(S'EUDORA ST'
p2232
I43
I15842
tp2233
sS'EDDY R712B'
p2234
(S'DERBY AVE'
p2235
I40
I16141
tp2236
sS'TERMINAL WAY'
p2237
(S'TERMINAL RD'
p2238
I90
I16838
tp2239
sS'WESTMINSTER. TEL UNION 1-5400'
p2240
(g41
I78
I15991
tp2241
sS'CAMDEN AV'
p2242
(g1386
I100
I17421
tp2243
sS'LOOKWOOD CHAPIN CHAS V HOSPITAL 153 EATON CURATIVE CENTRE 249 BLACKSTONE BLVD MCALPINE MEMORIAL GENERAL HOSPITAL INC 3 71 BROADWAY'
p2244
(g886
I60
I16904
tp2245
sS'WESTMINSTER R717'
p2246
(g41
I90
I15991
tp2247
sS'WESTMINSTER R716'
p2248
(g41
I90
I15991
tp2249
sS'WESTMINSTER R715'
p2250
(g41
I90
I15991
tp2251
sS'WESTMINSTER R714'
p2252
(g41
I90
I15991
tp2253
sS'WESTMINSTER R713'
p2254
(g41
I90
I15991
tp2255
sS'WESTMINSTER R712'
p2256
(g41
I90
I15991
tp2257
sS'WESTMINSTER R711'
p2258
(g41
I90
I15991
tp2259
sS'WESTMINSTER R710'
p2260
(g41
I90
I15991
tp2261
sS'ELMGROVE AV'
p2262
(g1051
I100
I16960
tp2263
sS'WICKENDEN'
p2264
(g1567
I100
I15995
tp2265
sS'-6024 NIGHTS SUNDAYS HOLIDAYS TELS TELEE'
p2266
(S'NICHOLAS BROWN YARD ST'
p2267
I47
I17054
tp2268
sS'NTD'
p2269
(S'UNITED ST'
p2270
I67
I16508
tp2271
sS'GEORGE M COHAN BLVD, TELS GASPEE 1-8466, 1-8467, 1-8468'
p2272
(S'GEORGE M COHAN BLVD'
p2273
I77
I15864
tp2274
sS'CHARLES TEL DEXTER'
p2275
(g1748
I78
I16096
tp2276
sS'BELL'
p2277
(S'BELL ST'
p2278
I100
I17768
tp2279
sS'-34 DUDLEY'
p2280
(g1129
I90
I15830
tp2281
sS'MAIN NEXT TO COURT HOUSE TEL DEXTER'
p2282
(g35
I64
I17198
tp2283
sS'I POCASSET AV'
p2284
(g945
I94
I17995
tp2285
sS'WEYBOSSET R21'
p2286
(g20
I91
I15992
tp2287
sS'PRUDENCE AV'
p2288
(S'PRUDENCE AVE'
p2289
I100
I18002
tp2290
sS'-6320'
p2291
(g2005
I29
I16872
tp2292
sS'883 EDDVY'
p2293
(g623
I75
I15834
tp2294
sS'UNION AV,'
p2295
(S'UNION ST'
p2296
I100
I15977
tp2297
sS'-5 PRAIRIE AV'
p2298
(g2047
I94
I16787
tp2299
sS'BRIDGBAM TEL GASPEE 1-1214'
p2300
(S'BRIDGHAM ST'
p2301
I64
I17169
tp2302
sS'EAGLE'
p2303
(S'EAGLE ST'
p2304
I100
I17477
tp2305
sS'77 WESTMINS TER'
p2306
(g41
I84
I15991
tp2307
sS'-2261'
p2308
(g516
I29
I16871
tp2309
sS'DOIXGLAS AV'
p2310
(g497
I80
I16154
tp2311
sS'FRANKLIN R112'
p2312
(g283
I88
I16188
tp2313
sS'WESTMINS TER R44'
p2314
(g41
I82
I15991
tp2315
sS'HOMER'
p2316
(S'HOMER ST'
p2317
I100
I16694
tp2318
sS'PEAZL ST'
p2319
(S'PEARL ST'
p2320
I84
I16775
tp2321
sS'CM NUT TEL GASPEE'
p2322
(g1037
I76
I15863
tp2323
sS'LIBERTY'
p2324
(S'LIBERTY ST'
p2325
I100
I21737
tp2326
sS'HOSPITAL TRUST PLAN'
p2327
(S'HOSPITAL ST'
p2328
I79
I15878
tp2329
sS'DOYLE AV'
p2330
(S'DOYLE AVE'
p2331
I100
I16946
tp2332
sS'ECHY'
p2333
(g1497
I67
I16050
tp2334
sS"'WESTMINSTER R1221A"
p2335
(g41
I88
I15991
tp2336
sS'STEWART DROLET FRANCIS B 36 ATWELLS AV'
p2337
(g397
I66
I15963
tp2338
sS'CREIGHTON'
p2339
(S'CREIGHTON ST'
p2340
I100
I16935
tp2341
sS'EUDORA'
p2342
(g2232
I100
I15842
tp2343
sS'GREELEY'
p2344
(S'GREELEY ST'
p2345
I100
I16212
tp2346
sS"RI'GHT TOP LINES BACK COVER)"
p2347
(g139
I51
I17383
tp2348
sS'-39 PARKIS AV'
p2349
(S'PARKIS AVE'
p2350
I90
I17282
tp2351
sS"ATWELIS AV. TEIS GASNEE 1-1610, 1-1611, 1-1612 '"
p2352
(g230
I55
I15775
tp2353
sS'ARMINZTON AVE'
p2354
(S'ARMINGTON AVE'
p2355
I90
I17384
tp2356
sS'-0-2234'
p2357
(g126
I25
I16872
tp2358
sS'PITMAN'
p2359
(S'PITMAN ST'
p2360
I100
I17073
tp2361
sS'WESTMINSTER R71 2'
p2362
(g41
I89
I15991
tp2363
sS'FISK'
p2364
(S'FISK ST'
p2365
I100
I16662
tp2366
sS'EIMPIRE'
p2367
(g238
I92
I15840
tp2368
sS'NEWTON'
p2369
(S'NEWTON ST'
p2370
I100
I15917
tp2371
sS'S ANGELI ST'
p2372
(S'SOUTH ANGELL ST'
p2373
I88
I17093
tp2374
sS'CALHOUN AV'
p2375
(g363
I100
I17176
tp2376
sS'-2670'
p2377
(g126
I29
I16872
tp2378
sS'92 WILLARD AV'
p2379
(g1444
I91
I16545
tp2380
sS'-2672'
p2381
(g126
I29
I16872
tp2382
sS"POTTER'S AV"
p2383
(S'POTTERS AVE'
p2384
I83
I16786
tp2385
sS'FH FL)'
p2386
(S'FOCH AVE'
p2387
I55
I16184
tp2388
sS'MT PLEASANT AV'
p2389
(g755
I94
I16399
tp2390
sS'EDDY R202'
p2391
(g623
I81
I15834
tp2392
sS'LEFT SIDE LINES)'
p2393
(S'EMELINE ST'
p2394
I61
I16963
tp2395
sS'DOMNCE ST, SUITE 300'
p2396
(S'DOME ST'
p2397
I57
I17469
tp2398
sS'WEST-'
p2399
(S'WEST ST'
p2400
I100
I15990
tp2401
sS'HUNTINGTON AV'
p2402
(S'HUNTINGTON AVE'
p2403
I100
I17236
tp2404
sS'-7600'
p2405
(g2184
I29
I16876
tp2406
sS'CHARLES TEL GASPEE'
p2407
(g1748
I78
I16096
tp2408
sS"WESTMINSUM, TELS GASPEE'1-194Z, 1-4450"
p2409
(g41
I59
I15991
tp2410
sS'PENN'
p2411
(S'PENN ST'
p2412
I100
I17989
tp2413
sS'MAN TON AV'
p2414
(g584
I79
I17947
tp2415
sS'CRESCENT'
p2416
(S'CRESCENT ST'
p2417
I100
I17189
tp2418
sS'DWIGHT'
p2419
(S'DWIGHT ST'
p2420
I100
I16949
tp2421
sS"BUCKH'N ST"
p2422
(S'BUCKLIN ST'
p2423
I67
I17171
tp2424
sS'ARCADE BLDZ'
p2425
(S'ARCADE ST'
p2426
I85
I15773
tp2427
sS'GEORGIA AV'
p2428
(g1481
I100
I16671
tp2429
sS'; COAL CO. INC.'
p2430
(S'COLONIAL DR'
p2431
I60
I16112
tp2432
sS'W EXCHANGE. TEL GASDEE'
p2433
(g373
I85
I15982
tp2434
sS'MOORE'
p2435
(S'MOORE ST'
p2436
I100
I17265
tp2437
sS'EXCHANGE R420'
p2438
(g61
I90
I15846
tp2439
sS'WESTMINSTER R404, TEL UNION 1-4211'
p2440
(g41
I75
I15991
tp2441
sS'STEVENS'
p2442
(g778
I71
I18056
tp2443
sS'BARTON'
p2444
(S'BARTON ST'
p2445
I100
I17765
tp2446
sS'JACTCSON R2 06'
p2447
(g353
I68
I16253
tp2448
sS'GANO.'
p2449
(S'GANO ST'
p2450
I100
I15861
tp2451
sS'. CO INC'
p2452
(S'FINCH AVE'
p2453
I65
I16180
tp2454
sS'CUSTOM HOUSE'
p2455
(g154
I100
I15820
tp2456
sS'A STEEPLE'
p2457
(S'STEEPLE ST'
p2458
I94
I15962
tp2459
sS'MILLER AV'
p2460
(S'MILLER AVE'
p2461
I100
I16736
tp2462
sS'LARCH'
p2463
(S'LARCH ST'
p2464
I100
I17017
tp2465
sS'BROADWAY R205'
p2466
(g440
I88
I15794
tp2467
sS"FRONT ' COVER)"
p2468
(g1455
I69
I16975
tp2469
sS'ELMWOOD REGINA MARIA CONVALESCENT HOME 98 PROVIDENCE'
p2470
(g1383
I49
I17451
tp2471
sS'WAMPANOAG TRAIL EAST PROVIDENCE TEL GENEVD'
p2472
(g133
I72
I17631
tp2473
sS'WAMPANOAG TRAIL EAST PROVIDENCE TEL GENEVA'
p2474
(g133
I72
I17631
tp2475
sS'-0254'
p2476
(g52
I29
I15881
tp2477
sS'COLD SPRING'
p2478
(S'COLD SPRING ST'
p2479
I100
I16927
tp2480
sS'DORRANGE, TEL GASPEE 1-0555'
p2481
(S'DORRANCE PLZ'
p2482
I67
I15828
tp2483
sS'G PRAIRIE AV'
p2484
(g2047
I94
I16787
tp2485
sS'WEYBOSSET R525'
p2486
(g20
I89
I15992
tp2487
sS'ERNEST'
p2488
(g1165
I100
I16656
tp2489
sS"RIGHT TOP UNES)'"
p2490
(g641
I70
I17781
tp2491
sS'UNION ST.'
p2492
(S'UNION ST'
p2493
I100
I15977
tp2494
sS'WEYBOSSET R527'
p2495
(g20
I89
I15992
tp2496
sS". TEL GA'LM"
p2497
(S'TELL ST'
p2498
I74
I18068
tp2499
sS'BROOK'
p2500
(g1162
I100
I15795
tp2501
sS'WEYBOSSET R506'
p2502
(g20
I89
I15992
tp2503
sS'WEYBOSSET R504'
p2504
(g20
I89
I15992
tp2505
sS'WESTMINSTER LOBBY R309'
p2506
(g41
I83
I15991
tp2507
sS'FRIENDSHIP, TEL GASPEE 145481'
p2508
(S'FRIENDSHIP ST'
p2509
I76
I15858
tp2510
sS'WESTMINSTER ROOM 216,'
p2511
(g427
I85
I15991
tp2512
sS'5 WATER'
p2513
(S'WAITE AVE'
p2514
I73
I16850
tp2515
sS'GARNET 6'
p2516
(S'GARNET ST'
p2517
I93
I15862
tp2518
sS'WASHINGTON,'
p2519
(g1648
I100
I15987
tp2520
sS'WASHINGTON.'
p2521
(g1648
I100
I15987
tp2522
sS'SEEKONK,'
p2523
(S'SEEKONK ST'
p2524
I100
I17097
tp2525
sS'HASKINS'
p2526
(S'HASKINS ST'
p2527
I100
I15870
tp2528
sS'WESTMINSTER R523'
p2529
(g41
I90
I15991
tp2530
sS'BQ POCASSET AVE'
p2531
(S'POCASSET AVE'
p2532
I94
I17995
tp2533
sS'ARMSTRONG AV'
p2534
(S'ARMSTRONG AVE'
p2535
I100
I15774
tp2536
sS'N MAIN R5'
p2537
(S'NORTH MAIN ST'
p2538
I93
I15916
tp2539
sS'STAMFORD AV'
p2540
(S'STAMFORD AVE'
p2541
I100
I17330
tp2542
sS'WAMPANOAG TRAIL EAST PROVIDENCE'
p2543
(g1048
I74
I17299
tp2544
sS'VIRGINIA'
p2545
(S'VIRGINIA AVE'
p2546
I100
I16849
tp2547
sS'-8433'
p2548
(g1795
I29
I16873
tp2549
sS'N MAIN R3'
p2550
(g2538
I93
I15916
tp2551
sS'BROADWAY "'
p2552
(g440
I100
I15794
tp2553
sS'WEYBOSSET R218'
p2554
(g20
I89
I15992
tp2555
sS'; CO INC'
p2556
(g2453
I65
I16180
tp2557
sS'SIMS AV,'
p2558
(g1415
I100
I18041
tp2559
sS'WEYBOSSET R212'
p2560
(g20
I89
I15992
tp2561
sS'& ATWELLS AV'
p2562
(g230
I100
I15775
tp2563
sS'LEFT TOP LINES)'
p2564
(S'ALPINE CT'
p2565
I61
I16885
tp2566
sS'MEDWAY'
p2567
(g2008
I100
I17040
tp2568
sS'WESTMINSTER R733A'
p2569
(g41
I89
I15991
tp2570
sS'NEWARK'
p2571
(S'NEWARK ST'
p2572
I100
I17604
tp2573
sS'PEMBERTON'
p2574
(S'PEMBERTON ST'
p2575
I100
I17623
tp2576
sS'WESTMINSTER R1207'
p2577
(g41
I89
I15991
tp2578
sS'WESTMINSTER R1206'
p2579
(g41
I89
I15991
tp2580
sS'4'
p2581
(g88
I50
I16874
tp2582
sS'WESTMINSTER R1202'
p2583
(g41
I89
I15991
tp2584
sS'CROMWELL'
p2585
(S'CROMWELL ST'
p2586
I100
I17190
tp2587
sS'-186 UNION AV'
p2588
(S'UNION AV'
p2589
I90
I18080
tp2590
sS'GROVE'
p2591
(S'GROVE ST'
p2592
I100
I17876
tp2593
sS'RATHBONE'
p2594
(g1819
I100
I17637
tp2595
sS'WESTMINSTER R1428'
p2596
(g41
I89
I15991
tp2597
sS'& CHARLES'
p2598
(g1748
I100
I16096
tp2599
sS'WESTMINSTER R1420'
p2600
(g41
I89
I15991
tp2601
sS'WASHINGTON R 312'
p2602
(g49
I88
I15986
tp2603
sS'WESTMINSTER R907I'
p2604
(g41
I89
I15991
tp2605
sS'PILSUDSKI'
p2606
(S'PILSUDSKI ST'
p2607
I100
I17993
tp2608
sS'STILLMAN'
p2609
(S'STILLMAN ST'
p2610
I100
I15964
tp2611
sS'WESTMINSTER R1512'
p2612
(g41
I89
I15991
tp2613
sS'WESTMINSTER R1516'
p2614
(g41
I89
I15991
tp2615
sS'KINSLEY AV'
p2616
(S'KINSLEY AVE'
p2617
I100
I15889
tp2618
sS'LLOYD'
p2619
(g649
I100
I17025
tp2620
sS'C WAYLAND AVE'
p2621
(S'WAYLAND AVE'
p2622
I96
I17125
tp2623
sS'ANGEU'
p2624
(g573
I73
I15921
tp2625
sS'ROOMS WITH BATH'
p2626
(S'BROOM ST'
p2627
I60
I16605
tp2628
sS'-5482; FUNERAL HOME BRANCH AVENUE AT HAWKINS'
p2629
(S'MINERAL SPRING AV'
p2630
I51
I16343
tp2631
sS'RIGHT TOP LINES BACK COVER) IRONS EARL M'
p2632
(g641
I53
I17781
tp2633
sS'HARKNESS'
p2634
(S'HARKNESS ST'
p2635
I100
I17884
tp2636
sS'361 ATWELLS AV'
p2637
(g230
I89
I15775
tp2638
sS'WAGHINGTON PL'
p2639
(g49
I91
I15986
tp2640
sS'-400 HARRIS AV'
p2641
(g559
I87
I15869
tp2642
sS'CARGILL'
p2643
(S'CARGILL ST'
p2644
I100
I15800
tp2645
sS'-6700'
p2646
(g2184
I29
I16876
tp2647
sS'WENDELL'
p2648
(S'WENDELL ST'
p2649
I100
I16535
tp2650
sS'WESTMINSTER R36'
p2651
(g41
I92
I15991
tp2652
sS'GEORGIA AV, TEL STUART 1-5456'
p2653
(g1481
I70
I16671
tp2654
sS'-66 ORANGE'
p2655
(g573
I90
I15921
tp2656
sS'S WEYBOGSET, TEL GASPEE 1-8390'
p2657
(g20
I63
I15992
tp2658
sS'-4496V'
p2659
(g52
I25
I15881
tp2660
sS'-9706'
p2661
(g52
I29
I15881
tp2662
sS'IMERA AVE'
p2663
(S'IMERA ST'
p2664
I100
I17908
tp2665
sS'BATHBONE'
p2666
(g1819
I88
I17637
tp2667
sS'MATHEWSON R711'
p2668
(g400
I89
I15904
tp2669
sS'-0400'
p2670
(g88
I29
I16874
tp2671
sS'MATHEWSON.'
p2672
(g405
I100
I15904
tp2673
sS'WESTMINSTER R821 FF'
p2674
(g41
I86
I15991
tp2675
sS'WESTMINSTER R100'
p2676
(g41
I90
I15991
tp2677
sS'FIRGLADE AV'
p2678
(S'FIRGLADE AVE'
p2679
I100
I16969
tp2680
sS'WESTMINSTER R104'
p2681
(g41
I90
I15991
tp2682
sS'BELLEVUE AV'
p2683
(S'BELLEVUE AVE'
p2684
I100
I16051
tp2685
sS"' RENT COVER)"
p2686
(g376
I68
I17877
tp2687
sS'HUXLEY AV'
p2688
(S'HUXLEY AVE'
p2689
I100
I17539
tp2690
sS'CYPRESS'
p2691
(S'CYPRESS ST'
p2692
I100
I16132
tp2693
sS'TROY'
p2694
(g1449
I100
I18078
tp2695
sS'EDDY R505'
p2696
(g623
I81
I15834
tp2697
sS'RESERVOIR AV, TEL;WILLIAMS 1-3500'
p2698
(g32
I72
I17303
tp2699
sS'WILLIAMS'
p2700
(S'WILLIAMS ST'
p2701
I100
I15997
tp2702
sS'C0 403 HOPE'
p2703
(g1423
I76
I15875
tp2704
sS'-6010'
p2705
(g332
I50
I16868
tp2706
sS'WESTMINSTER R216'
p2707
(g41
I90
I15991
tp2708
sS'WESTMINSTER R214'
p2709
(g41
I90
I15991
tp2710
sS'WESTMINSTER R215'
p2711
(g41
I90
I15991
tp2712
sS'; VARNISH CO INC'
p2713
(S'STANDISH AVE'
p2714
I56
I17670
tp2715
sS'WESTMINSTER R213'
p2716
(g41
I90
I15991
tp2717
sS'-6233'
p2718
(g126
I29
I16872
tp2719
sS'-306 ELMWOOD AV'
p2720
(g746
I89
I17207
tp2721
sS'EDDY,'
p2722
(S'EDDY ST'
p2723
I100
I15834
tp2724
sS'SMITH'
p2725
(g105
I100
I16457
tp2726
sS'WESTMINSTER R218'
p2727
(g41
I90
I15991
tp2728
sS'WEVYB0SSET,'
p2729
(g20
I84
I15992
tp2730
sS'-252 ABORN'
p2731
(g470
I85
I15763
tp2732
sS'-4700'
p2733
(g88
I29
I16874
tp2734
sS'WEYBOSSETN'
p2735
(g20
I95
I15992
tp2736
sS'SUMMER ST2DFL'
p2737
(S'SUMMER ST'
p2738
I81
I15965
tp2739
sS'380 ELMW OOD AV'
p2740
(g746
I73
I17207
tp2741
sS'PAWTUCKET AV. PAWTUCKET,'
p2742
(g494
I64
I16771
tp2743
sS'LOCKWOOD'
p2744
(S'LOCKWOOD ST'
p2745
I100
I15895
tp2746
sS'ATW OOD'
p2747
(S'ATWOOD AVE'
p2748
I79
I16037
tp2749
sS'ABBOTT PARK PL 1ST FL'
p2750
(S'ABBOTT PARK PL'
p2751
I90
I15762
tp2752
sS'MT PLEASANT AVE'
p2753
(S'MOUNT PLEASANT AVE'
p2754
I95
I17599
tp2755
sS'LIPPITT'
p2756
(S'LIPPITT ST'
p2757
I100
I17024
tp2758
sS'ALLERFS AV'
p2759
(g996
I77
I15768
tp2760
sS'ELM'
p2761
(S'ELM ST'
p2762
I100
I15837
tp2763
sS'SALMON'
p2764
(S'SALMON ST'
p2765
I100
I18025
tp2766
sS'ELMWOOD AV'
p2767
(g746
I100
I17207
tp2768
sS'ACADEMY AVA'
p2769
(S'ACADEMY AVE'
p2770
I89
I17365
tp2771
sS'IRVING AV'
p2772
(S'IRVING ST'
p2773
I100
I16251
tp2774
sS'I MANTON AV'
p2775
(g584
I93
I17947
tp2776
sS'BREWSTER'
p2777
(S'BREWSTER ST'
p2778
I100
I16909
tp2779
sS'RICHMOND R207'
p2780
(g1334
I88
I15946
tp2781
sS'RICHMOND R206'
p2782
(g1334
I88
I15946
tp2783
sS'ACADEMY'
p2784
(S'ACADEMY AVE'
p2785
I100
I17365
tp2786
sS'WEYBOSSET;'
p2787
(g20
I100
I15992
tp2788
sS'011115 ST'
p2789
(S'11TH ST'
p2790
I51
I16869
tp2791
sS'SEABURV'
p2792
(S'SEABURY ST'
p2793
I86
I17320
tp2794
sS'EMPIRE'
p2795
(g238
I100
I15840
tp2796
sS'RESERVOIR AV, TEL WILLIAMS 1-4464'
p2797
(g32
I72
I17303
tp2798
sS'FRANKLIN'
p2799
(g283
I100
I16188
tp2800
sS'N MA IN'
p2801
(g2538
I97
I15916
tp2802
sS'POWERS'
p2803
(g177
I91
I15939
tp2804
sS'WEYBOSSET,'
p2805
(g295
I100
I15992
tp2806
sS'WEYBOSSET.'
p2807
(g295
I100
I15992
tp2808
sS'WEYBOSSET 2D'
p2809
(g20
I93
I15992
tp2810
sS'NMAIN ST'
p2811
(g1289
I77
I17952
tp2812
sS'DUNNELL AV, PAWTUCKET,'
p2813
(g494
I66
I16771
tp2814
sS'MT PLEASANT'
p2815
(g1922
I94
I17599
tp2816
sS'WARR EN'
p2817
(g165
I86
I17349
tp2818
sS'& ATWELLS AVE'
p2819
(S'ATWELLS AVE'
p2820
I100
I15775
tp2821
sS'-756 BROAD,'
p2822
(g360
I85
I15793
tp2823
sS'BENEFIT'
p2824
(g545
I100
I15781
tp2825
sS'GILLEN'
p2826
(S'GILLEN AVE'
p2827
I100
I16202
tp2828
sS'39 89 BROADWAY'
p2829
(g440
I86
I15794
tp2830
sS'ASHAN ST'
p2831
(S'ASCHAM ST'
p2832
I77
I16031
tp2833
sS'ELMWOOD AV RILEY RAYMON S 110 LOCKWOOD ST'
p2834
(S'LOCKWOOD ST'
p2835
I69
I15895
tp2836
sS'-59 CHESTNUT'
p2837
(S'CHESTNUT ST'
p2838
I92
I15807
tp2839
sS'-1860'
p2840
(g332
I50
I16868
tp2841
sS'ISLAND CHESS CLUB 681'
p2842
(S'RHODE ISLAND COLL'
p2843
I73
I17643
tp2844
sS'ARCADE'
p2845
(g2426
I100
I15773
tp2846
sS'ARCADE BLDG. "REL GASNEE BLOW LSEE YELLOW PAGE'
p2847
(g2426
I62
I15773
tp2848
sS'SUMTER'
p2849
(S'SUMTER ST'
p2850
I100
I17333
tp2851
sS'WEST PARK,'
p2852
(S'WEST PARK ST'
p2853
I100
I17704
tp2854
sS'5'
p2855
(g52
I53
I15881
tp2856
sS"-6655. D'EXTER"
p2857
(g35
I79
I17198
tp2858
sS'-197 WILLARD AV'
p2859
(g1444
I89
I16545
tp2860
sS'HOSPITAL TRUST TOWER'
p2861
(g2328
I78
I15878
tp2862
sS'WASH3 I INGTON PL FT'
p2863
(g49
I77
I15986
tp2864
sS'I CHARLES'
p2865
(g1748
I94
I16096
tp2866
sS'WALDO'
p2867
(S'WALDO ST'
p2868
I100
I16526
tp2869
sS'& POCASSET AV'
p2870
(g945
I100
I17995
tp2871
sS',2 WEYBOSSET'
p2872
(g20
I95
I15992
tp2873
sS',PARK AV,'
p2874
(S'PARK ST'
p2875
I100
I16391
tp2876
sS'W EXCHANGE'
p2877
(g373
I100
I15982
tp2878
sS'8 WASHINGTON SQUARE,'
p2879
(S'WASHINGTON PL'
p2880
I84
I15986
tp2881
sS'THAYER'
p2882
(S'THAYER ST'
p2883
I100
I17112
tp2884
sS'*A POCASSET AVE'
p2885
(g2532
I96
I17995
tp2886
sS'BISHOP'
p2887
(S'BRISTOW ST'
p2888
I62
I16069
tp2889
sS'BENEVOLENT'
p2890
(S'BENEVOLENT ST'
p2891
I100
I16902
tp2892
sS'ROUNDS AV'
p2893
(S'ROUNDS AVE'
p2894
I100
I17309
tp2895
sS'WHITEHALL'
p2896
(S'WHITEHALL ST'
p2897
I100
I18106
tp2898
sS'SNOW'
p2899
(S'SNOW ST'
p2900
I100
I15957
tp2901
sS'WEYBOSSET, TEL GASPEE 1-2452'
p2902
(g20
I75
I15992
tp2903
sS'JACKSON R205'
p2904
(g353
I87
I16253
tp2905
sS'JACKSON R201'
p2906
(g353
I87
I16253
tp2907
sS'SLATER AV'
p2908
(S'SLATER AVE'
p2909
I100
I17100
tp2910
sS'JACKSON R203'
p2911
(g353
I87
I16253
tp2912
sS'GANO, TEL GASPEEL 1-9312'
p2913
(g1037
I66
I15863
tp2914
sS'HOWARD BLDG'
p2915
(S'NORTH HOWARD AVE'
p2916
I76
I16363
tp2917
sS'POPE'
p2918
(S'POPE ST'
p2919
I100
I16405
tp2920
sS'BROADWAY R28'
p2921
(g440
I90
I15794
tp2922
sS'DARTMOUTH AV'
p2923
(S'DARTMOUTH AVE'
p2924
I100
I17192
tp2925
sS'-1247 ELMWOOD AV'
p2926
(g746
I87
I17207
tp2927
sS'V; HOPE ST'
p2928
(S'HOPE ST'
p2929
I94
I15875
tp2930
sS'89 BROADWAY'
p2931
(g440
I92
I15794
tp2932
sS"ELMG'ROVE AVE"
p2933
(S'ELMGROVE AVE'
p2934
I81
I16960
tp2935
sS'PINE,'
p2936
(S'PINE ST'
p2937
I100
I15933
tp2938
sS'NARRDGANSEIT AV'
p2939
(S'NARRAGANSETT AV'
p2940
I85
I17270
tp2941
sS'INDUSTRIAL BANK BLDG 111 WESTMINSTER. TEL GASNEE 1-1200'
p2942
(g41
I67
I15991
tp2943
sS'SHIPYARD, TEL STUART 1-9100'
p2944
(S'SHIPYARD ST'
p2945
I73
I16820
tp2946
sS"CR'ANSTON"
p2947
(g795
I90
I15817
tp2948
sS'DORRANGE,'
p2949
(g1559
I88
I15829
tp2950
sS'WEST EXCHANGE, 5TH FLOOR,'
p2951
(S'WEST EXCHANGE ST'
p2952
I86
I15982
tp2953
sS'A F M 179 BROADWAY'
p2954
(g1077
I81
I15794
tp2955
sS"VALLEY, TEL DEXTER 1-438'3"
p2956
(S'VALLEY GREEN CT'
p2957
I74
I16512
tp2958
sS'WESTMINSTER R3 04'
p2959
(g41
I89
I15991
tp2960
sS'314 S MAIN'
p2961
(g157
I91
I15948
tp2962
sS'CRANSTON ST.'
p2963
(g8
I100
I15817
tp2964
sS'-39 NARRANGANSETT AV'
p2965
(g733
I92
I17270
tp2966
sS'RICHMOND,'
p2967
(S'RICHMOND ST'
p2968
I100
I15946
tp2969
sS'CUSTOM HOUSE R33'
p2970
(g154
I93
I15820
tp2971
sS'CUSTOM HOUSE R31'
p2972
(g154
I93
I15820
tp2973
sS'EATON'
p2974
(S'EATON ST'
p2975
I100
I17478
tp2976
sS'GALLUP'
p2977
(S'GALLUP ST'
p2978
I100
I16668
tp2979
sS'ATWELLA AVE'
p2980
(g2820
I88
I15775
tp2981
sS'WEYBOSSET R205'
p2982
(g20
I89
I15992
tp2983
sS'-1701'
p2984
(g332
I50
I16868
tp2985
sS'; CARPENTER CO THE'
p2986
(g911
I86
I15801
tp2987
sS'WABUN AV'
p2988
(S'WABUN AVE'
p2989
I100
I17705
tp2990
sS'ZELLA'
p2991
(S'ZELLA ST'
p2992
I100
I17729
tp2993
sS'RHODES'
p2994
(S'RHODES ST'
p2995
I100
I15945
tp2996
sS'GEORGIA AV,'
p2997
(S'GEORGIA AVE'
p2998
I100
I16671
tp2999
sS'WESTMINSTER R1216'
p3000
(g41
I89
I15991
tp3001
sS'WESTMINSTER R1217'
p3002
(g41
I89
I15991
tp3003
sS'INDUSTRIAL BANK BLDG'
p3004
(g1315
I83
I16249
tp3005
sS'ASTRAL AV'
p3006
(S'ASTRAL AVE'
p3007
I100
I16894
tp3008
sS'WESTMINSTER R1212'
p3009
(g41
I89
I15991
tp3010
sS'DRYDEN LANE'
p3011
(S'DRYDEN LN'
p3012
I85
I16156
tp3013
sS'EMPIRIE R1'
p3014
(g238
I83
I15840
tp3015
sS'A EDDY ST'
p3016
(S'EDDY ST'
p3017
I94
I15834
tp3018
sS'RICE'
p3019
(S'RICE ST'
p3020
I100
I17304
tp3021
sS'WESTMINSTER R1218'
p3022
(g41
I89
I15991
tp3023
sS'WESTMINSTER R1219'
p3024
(g41
I89
I15991
tp3025
sS'CHESTNUT'
p3026
(g2838
I100
I15807
tp3027
sS'WESTMINSTER R732.'
p3028
(g427
I90
I15991
tp3029
sS'BILL'
p3030
(S'MILL ST'
p3031
I75
I15911
tp3032
sS'PAWTUCKET AV'
p3033
(g383
I84
I16771
tp3034
sS'E IMW OOD AV'
p3035
(S'EAST ST'
p3036
I75
I15833
tp3037
sS'131 ORMS'
p3038
(g2
I83
I16384
tp3039
sS'MAIN, PAWTUCKET,'
p3040
(g494
I73
I16771
tp3041
sS'BRIDGHAM,'
p3042
(g2301
I100
I17169
tp3043
sS'BRIDGHAM.'
p3044
(g2301
I100
I17169
tp3045
sS'AVON'
p3046
(S'AVON ST'
p3047
I100
I16040
tp3048
sS'; ELMWOOD AVE'
p3049
(S'ELMWOOD AVE'
p3050
I100
I17207
tp3051
sS'A PRAIRIE AV'
p3052
(g2047
I94
I16787
tp3053
sS'-1200'
p3054
(g332
I50
I16868
tp3055
sS'WGYBOSSET R7'
p3056
(g20
I82
I15992
tp3057
sS'CENTRAL,'
p3058
(S'CENTRAL AVE'
p3059
I100
I16095
tp3060
sS'BRANCH AW OFFICE 1026 BRANCH AV, TEL DIMER 1-7390'
p3061
(g184
I61
I16067
tp3062
sS'WESTMINSTER R936'
p3063
(g41
I90
I15991
tp3064
sS'WESTMINSTER R934'
p3065
(g41
I90
I15991
tp3066
sS'HOSPITAL TRUST PLAZA SUITE 2700'
p3067
(g2328
I70
I15878
tp3068
sS'DORRANCE R402'
p3069
(g789
I88
I15829
tp3070
sS'WHIPPLE'
p3071
(S'WHIPPLE ST'
p3072
I100
I17716
tp3073
sS'RUGBY'
p3074
(S'RUGBY ST'
p3075
I100
I16803
tp3076
sS'WESTMINSTER STRM47'
p3077
(g703
I88
I15991
tp3078
sS'WEYBWSET, TEIS GASPEE 1-7112, 1-7961, RES'
p3079
(g295
I56
I15992
tp3080
sS'14 GREENE'
p3081
(g800
I90
I15866
tp3082
sS'EDDY 1-'
p3083
(g623
I90
I15834
tp3084
sS'S MAIN'
p3085
(g157
I100
I15948
tp3086
sS'JASTRAM'
p3087
(S'JASTRAM ST'
p3088
I100
I17547
tp3089
sS'PLAINSFIELD'
p3090
(g865
I95
I17994
tp3091
sS'ROSEBANK AV'
p3092
(S'ROSEBANK AVE'
p3093
I100
I17653
tp3094
sS'WESTMINSTER R735'
p3095
(g41
I90
I15991
tp3096
sS'WESTMINSTER R25'
p3097
(g41
I92
I15991
tp3098
sS'WESTMINSTER R737'
p3099
(g41
I90
I15991
tp3100
sS'WESTMINSTER R20'
p3101
(g41
I92
I15991
tp3102
sS'WESTMINSTER R21'
p3103
(g41
I92
I15991
tp3104
sS'WESTMINSTER R733'
p3105
(g41
I90
I15991
tp3106
sS'WESTMINSTER R23'
p3107
(g41
I92
I15991
tp3108
sS'WASHINGTON R405'
p3109
(g970
I90
I15987
tp3110
sS'WASHINGTON R402'
p3111
(g970
I90
I15987
tp3112
sS'WASHINGTON R401'
p3113
(g970
I90
I15987
tp3114
sS'FRIENDSHIP'
p3115
(g2509
I100
I15858
tp3116
sS'HOLDEN'
p3117
(S'HOLDEN ST'
p3118
I100
I17532
tp3119
sS'ACADEMV AV'
p3120
(g2785
I86
I17365
tp3121
sS'VALLEY BLDG'
p3122
(g2957
I85
I16512
tp3123
sS'CLIFFORD LST FL'
p3124
(S'CLIFFORD ST'
p3125
I85
I15811
tp3126
sS'MONTICELLO'
p3127
(S'MONTICELLO ST'
p3128
I100
I16348
tp3129
sS"-39 NARRAGANSETT AV, TEIS STUAI'T 1-0600, 1-0601"
p3130
(S'NARRAGANSETT BLVD'
p3131
I72
I16745
tp3132
sS'MATHEWSON R1'
p3133
(g400
I93
I15904
tp3134
sS'BAKER, TEL STUART 1-3400'
p3135
(S'STATE HWY 146'
p3136
I56
I16473
tp3137
sS'ADELAIDE AV'
p3138
(S'ADELAIDE AVE'
p3139
I100
I17148
tp3140
sS'N MAIN'
p3141
(g2538
I100
I15916
tp3142
sS'WESTMINSTER R840'
p3143
(g41
I90
I15991
tp3144
sS'-56 WEGLEVAN AV'
p3145
(S'WESLEYAN AVE'
p3146
I69
I17353
tp3147
sS'6'
p3148
(g2184
I50
I16876
tp3149
sS'LAUREL AV'
p3150
(S'LAUREL AVE'
p3151
I100
I17018
tp3152
sS'WESTMINSTER R208'
p3153
(g41
I90
I15991
tp3154
sS'RIDGE'
p3155
(S'RIDGE ST'
p3156
I100
I18010
tp3157
sS'VES'
p3158
(g292
I86
I17007
tp3159
sS'BLUNDELL'
p3160
(S'BLUNDELL ST'
p3161
I100
I16596
tp3162
sS'FEDERAL'
p3163
(g5
I100
I15848
tp3164
sS'TAFT AV'
p3165
(S'TAFT AVE'
p3166
I100
I16484
tp3167
sS"' WESTMINSTER. TEIS GASPEE"
p3168
(g41
I82
I15991
tp3169
sS'WATERMAN R216'
p3170
(S'WATERMAN ST'
p3171
I88
I15988
tp3172
sS'WESTMINSTER R207'
p3173
(g41
I90
I15991
tp3174
sS'WESTMINSTER R206'
p3175
(g41
I90
I15991
tp3176
sS'WESTMINSTER'
p3177
(g41
I100
I15991
tp3178
sS'WESTMINSTER R41-42 IVENTASH HERBERT 1 RHODE ISLAND AV'
p3179
(g41
I68
I15991
tp3180
sS'PROMENADE.'
p3181
(S'PROMENADE ST'
p3182
I100
I17630
tp3183
sS'ROLFE. CRANSTON. TEL GASPEE'
p3184
(g795
I74
I15817
tp3185
sS"BICHMOND SQUARE. TELSF PLANTATIONS 142260, '1-2201"
p3186
(g1110
I52
I15978
tp3187
sS'ANGELI ST'
p3188
(g198
I86
I16890
tp3189
sS'ACADEMV A;'
p3190
(g2785
I80
I17365
tp3191
sS'KNIGHT VIRGINIA & SPANISH PEANUT C0 260 DEXTER'
p3192
(g2546
I65
I16849
tp3193
sS'CEDAR'
p3194
(S'CEDAR ST'
p3195
I100
I15803
tp3196
sS'COMMODORE'
p3197
(S'COMMODORE ST'
p3198
I100
I16115
tp3199
sS"O'CONNELL"
p3200
(S'OCONNELL ST'
p3201
I93
I16760
tp3202
sS'WATERMAN R104'
p3203
(g3171
I88
I15988
tp3204
sS'CHALKM STONE AV'
p3205
(g233
I77
I17433
tp3206
sS'WATERMAN R101'
p3207
(g3171
I88
I15988
tp3208
sS'EXCHANGE 01'
p3209
(S'EXCHANGE ST'
p3210
I92
I15845
tp3211
sS'LOWELL AV'
p3212
(S'LOWELL AVE'
p3213
I100
I17938
tp3214
sS'PORRIONA AV'
p3215
(S'MORRISON ST'
p3216
I75
I17048
tp3217
sS'HUNTER'
p3218
(S'HUNTERS RUN'
p3219
I81
I16244
tp3220
sS'A DOUGLAS AV'
p3221
(g497
I94
I16154
tp3222
sS'PINEHURST AV'
p3223
(S'PINEHURST AVE'
p3224
I100
I17626
tp3225
sS'-0476 GASPEE'
p3226
(g1037
I85
I15863
tp3227
sS'ARBOR'
p3228
(S'ARBOR DR'
p3229
I100
I17380
tp3230
sS'BROAD TEL GASPEE'
p3231
(g1037
I77
I15863
tp3232
sS'B ATWELLS AV'
p3233
(g230
I94
I15775
tp3234
sS"-8649 1-8650'"
p3235
(g82
I33
I15880
tp3236
sS'ICE & COAL CO 52 TOBEV'
p3237
(S'TOBEY ST'
p3238
I56
I18076
tp3239
sS'MAIN, WWARWICK.'
p3240
(S'WARWICK AV'
p3241
I81
I16852
tp3242
sS'WESTMINSTER R908'
p3243
(g41
I90
I15991
tp3244
sS'BUTLER AV'
p3245
(S'BUTLER AVE'
p3246
I100
I16915
tp3247
sS'-IZEO'
p3248
(S'VIREO ST'
p3249
I67
I16523
tp3250
sS'IANTHE'
p3251
(S'IANTHE ST'
p3252
I100
I16248
tp3253
sS'-7256'
p3254
(g52
I29
I15881
tp3255
sS'ELMWOSD AV'
p3256
(S'ELMWOOD AVE'
p3257
I86
I17207
tp3258
sS'SIMS AV, TEL GASPEE 1-0173'
p3259
(g1037
I69
I15863
tp3260
sS'E MANNING'
p3261
(S'EAST MANNING ST'
p3262
I100
I16951
tp3263
sS"LEFT TOP LINES) ' *SAVINGS BANKS"
p3264
(S'SAVINGS ST'
p3265
I70
I17318
tp3266
sS'WESLEVAN AV'
p3267
(g3146
I88
I17353
tp3268
sS'WESTMINSTER STRM908'
p3269
(g703
I86
I15991
tp3270
sS'WESTMINSBER ST'
p3271
(g703
I92
I15991
tp3272
sS'DIKE'
p3273
(g1168
I100
I17827
tp3274
sS'PEARL'
p3275
(S'PEARL AVE'
p3276
I100
I16394
tp3277
sS'WESTMINSTER R328'
p3278
(g41
I90
I15991
tp3279
sS'LEDGE'
p3280
(S'LEDGE ST'
p3281
I100
I16275
tp3282
sS'A ADMIRAL ST'
p3283
(g719
I95
I16005
tp3284
sS'EXCHANGE P1R412'
p3285
(g61
I87
I15846
tp3286
sS'SAYLES'
p3287
(S'SAYLES ST'
p3288
I100
I16809
tp3289
sS'219 W PARK'
p3290
(S'WEST PARK ST'
p3291
I91
I17704
tp3292
sS'MINERAL SPRING AVE'
p3293
(S'MINERAL SPRING AV'
p3294
I100
I16343
tp3295
sS'PECASSET AV'
p3296
(g945
I88
I17995
tp3297
sS'SMITH NGLAND MOTORS INC. 220 ELMWOOO AV,'
p3298
(g1478
I57
I17207
tp3299
sS'GORDON AV, RITLIIL HOPKINS 1-2560'
p3300
(S'DRILL ST'
p3301
I47
I17474
tp3302
sS'A ACADEMY AV'
p3303
(g2785
I94
I17365
tp3304
sS'NORTH BROADWAY, RUMFORD.'
p3305
(S'GRAND BROADWAY'
p3306
I78
I16209
tp3307
sS"WESTMINSTER R732, TEL'GAS'PEE 1-5401"
p3308
(g427
I74
I15991
tp3309
sS'WILLIAM ST'
p3310
(S'WILLIAMS ST'
p3311
I94
I15997
tp3312
sS'7 GREENWICH'
p3313
(S'GREENWICH ST'
p3314
I95
I17220
tp3315
sS'CRARJY'
p3316
(g1903
I91
I15818
tp3317
sS'CUSTOM HOWE,'
p3318
(g831
I93
I15820
tp3319
sS'ELMWOOD AV; BRANCHES;'
p3320
(g184
I67
I16067
tp3321
sS'BABCOCK'
p3322
(S'BABCOCK ST'
p3323
I100
I16573
tp3324
sS'WEST. MINSTER R700'
p3325
(g41
I78
I15991
tp3326
sS'MEETING, TEL GASPEE 1-9100'
p3327
(S'MEETING ST'
p3328
I72
I15907
tp3329
sS'LOMV-R BARDI, TEL JACKSON 1-2253'
p3330
(g353
I68
I16253
tp3331
sS'WEYBOSSET R4 06'
p3332
(g20
I87
I15992
tp3333
sS'PLUM'
p3334
(S'PLUM ST'
p3335
I100
I16782
tp3336
sS'MAIN PAWTUCKET.'
p3337
(g494
I73
I16771
tp3338
sS'EXCHANGE PR514'
p3339
(g61
I88
I15846
tp3340
sS"WESTMINS'TER R1 034"
p3341
(g41
I78
I15991
tp3342
sS'WASHINGTON STRM306'
p3343
(g2880
I85
I15986
tp3344
sS'COUNCIL'
p3345
(g2431
I67
I16112
tp3346
sS'TORONTO AV'
p3347
(g1572
I100
I16840
tp3348
sS'BROAD'
p3349
(g300
I100
I15793
tp3350
sS'UNION R306 MARKET CREATIONS 26 CUSTOM HOUSE R202'
p3351
(g1110
I51
I15978
tp3352
sS'WASH 302'
p3353
(g859
I83
I21700
tp3354
sS'WASHINGTON AV'
p3355
(S'WASHINGTON ST'
p3356
I100
I15987
tp3357
sS'-943 BROAD'
p3358
(g300
I85
I15793
tp3359
sS'-2641 CLNTRODALE'
p3360
(g792
I63
I16095
tp3361
sS'MASSASOIT AV, EAST PROVIDENCE, TELS EAST PROVIDENCEV1-3881 , 1 -2095'
p3362
(g133
I61
I17631
tp3363
sS'CLEMATIS'
p3364
(S'CLEMATIS ST'
p3365
I100
I17440
tp3366
sS'WEYBWSET, R7,'
p3367
(g295
I76
I15992
tp3368
sS'ADELAIDE AV,'
p3369
(S'ADELAIDE AVE'
p3370
I100
I17148
tp3371
sS'BELMONT AV'
p3372
(S'BELMONT AVE'
p3373
I100
I17398
tp3374
sS'ELMWOOD'
p3375
(g746
I100
I17207
tp3376
sS'LEFT TON LINES)'
p3377
(g2394
I57
I16963
tp3378
sS'ONTARIO'
p3379
(S'ONTARIO ST'
p3380
I100
I17277
tp3381
sS'WESTMINSTER R1712'
p3382
(g41
I89
I15991
tp3383
sS'BENEDI-CT'
p3384
(S'BENEDICT ST'
p3385
I86
I16053
tp3386
sS'FOUNTAIN; TEL DEXTER'
p3387
(g257
I79
I15853
tp3388
sS'RADCLIFFE AV'
p3389
(S'RADCLIFFE AVE'
p3390
I100
I17634
tp3391
sS'CHARLES. TEL DEXTER'
p3392
(g1748
I78
I16096
tp3393
sS'WEYBOSSET R32-35'
p3394
(g20
I86
I15992
tp3395
sS'MILL. JOHNSTON, R1,'
p3396
(g1113
I77
I16707
tp3397
sS'FARMINGTON AV'
p3398
(S'FARMINGTON AVE'
p3399
I100
I17853
tp3400
sS'W RIVER'
p3401
(S'WEST RIVER ST'
p3402
I100
I16541
tp3403
sS'RICHMOND STRM207'
p3404
(S'RICHMOND SQ'
p3405
I87
I17086
tp3406
sS'; POWER C0 OF RHODE ISLAND'
p3407
(S'RHODE ISLAND AVE'
p3408
I83
I17085
tp3409
sS'1396 BROAD'
p3410
(g300
I83
I15793
tp3411
sS'7WESTMINSTER'
p3412
(g41
I96
I15991
tp3413
sS'-0086'
p3414
(g2184
I29
I16876
tp3415
sS'-5450; WASHINGTON PARK'
p3416
(g49
I86
I15986
tp3417
sS'SUMMIT AV'
p3418
(S'SUMMIT AVE'
p3419
I100
I17106
tp3420
sS'GREENE'
p3421
(g800
I100
I15866
tp3422
sS'-264 WEYBOSSET, TELS GASPEE 1-8200, 1-8201'
p3423
(g20
I69
I15992
tp3424
sS'7'
p3425
(S'7TH ST'
p3426
I50
I16877
tp3427
sS'PROMENADE,'
p3428
(g3182
I100
I17630
tp3429
sS'-37 BASSETT'
p3430
(g868
I91
I15777
tp3431
sS'I PLAINFIELD'
p3432
(g865
I95
I17994
tp3433
sS'GOR-'
p3434
(S'GEORGE ST'
p3435
I67
I16670
tp3436
sS'2-5400'
p3437
(S'I 95'
p3438
I36
I15881
tp3439
sS'WESTMINSTER R1202 MURRAY JOHN J JR 256 WESTMINSTER R31 MUSEN FREDK N 890 HONE'
p3440
(g41
I62
I15991
tp3441
sS'SILVER SPRING'
p3442
(S'SILVER SPRING ST'
p3443
I100
I16454
tp3444
sS'WESTMINSTER .R1012'
p3445
(g41
I89
I15991
tp3446
sS'HOMESTEAD AV'
p3447
(S'HOMESTEAD AVE'
p3448
I100
I17234
tp3449
sS'BROADWAY LE'
p3450
(g1077
I92
I15794
tp3451
sS'AIRPORT RD'
p3452
(S'ARBOR DR'
p3453
I67
I17380
tp3454
sS'WEYBOSSET STREET,'
p3455
(g58
I86
I15992
tp3456
sS'GORDON AV, 7TGFIL HOPKINS 1-2560'
p3457
(g244
I68
I15876
tp3458
sS'WEYBOSSET R23A'
p3459
(g20
I89
I15992
tp3460
sS'CRANSTON, CRANSTON, R1, TEL UNION 1-0215'
p3461
(g795
I68
I15817
tp3462
sS'FENNER, TEL DEXTER 1-2434'
p3463
(S'FENNER ST'
p3464
I70
I15849
tp3465
sS'RIGHT SIDE LINES)'
p3466
(g641
I63
I17781
tp3467
sS'CHALKSTONEI AV'
p3468
(S'CHALKSTONE AVE'
p3469
I95
I17433
tp3470
sS'WESTMINSTER R902'
p3471
(g41
I90
I15991
tp3472
sS'WESTMINSTER R903'
p3473
(g41
I90
I15991
tp3474
sS'WESTMINSTER R901'
p3475
(g41
I90
I15991
tp3476
sS'WESTMINSTER R904'
p3477
(g41
I90
I15991
tp3478
sS'WESTMINSTER R905'
p3479
(g41
I90
I15991
tp3480
sS'HANOVER'
p3481
(S'HANOVER ST'
p3482
I100
I17225
tp3483
sS'MATHEWSON R602'
p3484
(g400
I89
I15904
tp3485
sS'MATHEWSON R603'
p3486
(g400
I89
I15904
tp3487
sS'WESTMINSTER STRM71'
p3488
(g703
I88
I15991
tp3489
sS'MATHEWSON R606'
p3490
(g400
I89
I15904
tp3491
sS'SUTTON TEL UNLON'
p3492
(g1210
I77
I15966
tp3493
sS'WEYBOSSET R505'
p3494
(g20
I89
I15992
tp3495
sS'WESTMINSTER STRM78'
p3496
(g703
I88
I15991
tp3497
sS'WESTMINSTER R 636'
p3498
(g41
I89
I15991
tp3499
sS'CENTRAL. TE)ZL GASPEE 1-0081'
p3500
(g792
I70
I16095
tp3501
sS'WESTMINSTER R1711'
p3502
(g41
I89
I15991
tp3503
sS'DRYDEN LA'
p3504
(g29
I90
I16156
tp3505
sS'LOMBARDI,'
p3506
(S'LOMBARDI ST'
p3507
I100
I16290
tp3508
sS'WESTMINSTER R 703'
p3509
(g41
I89
I15991
tp3510
sS'WESTMINSTER R18'
p3511
(g41
I92
I15991
tp3512
sS'CENTRAL, TEL GASPEE 1-0081'
p3513
(g792
I72
I16095
tp3514
sS'ALLENS AV'
p3515
(g11
I100
I15768
tp3516
sS'WESTMINSTER R11'
p3517
(g41
I92
I15991
tp3518
sS'WESTMINSTER R10'
p3519
(g41
I92
I15991
tp3520
sS'HOSPITAL'
p3521
(g85
I100
I15878
tp3522
sS'WESTMINSTER R12'
p3523
(g41
I92
I15991
tp3524
sS'WESTMINSTER R15'
p3525
(g41
I92
I15991
tp3526
sS'WESTMINSTER R14'
p3527
(g41
I92
I15991
tp3528
sS'; POWER CO OF RHODE ISLAND'
p3529
(g3408
I83
I17085
tp3530
sS'WESTMINSTER R16'
p3531
(g41
I92
I15991
tp3532
sS'SOMERSET'
p3533
(S'SOMERSET ST'
p3534
I100
I17325
tp3535
sS'RANDALL, TEL JACKSON 1-5829'
p3536
(g1461
I75
I16416
tp3537
sS'; ENGINEELE CO.'
p3538
(S'NEEDLE GROVE'
p3539
I62
I16354
tp3540
sS'NIANTIC AV'
p3541
(S'NIANTIC AVE'
p3542
I100
I17274
tp3543
sS'WESTMINSTER R905-06'
p3544
(g41
I86
I15991
tp3545
sS'KINSLEV'
p3546
(g2617
I86
I15889
tp3547
sS'HOWARD STREET DETROIT, MICHIGAN 48231'
p3548
(S'MICHIGAN AVE'
p3549
I68
I16732
tp3550
sS'CRANSBON ST'
p3551
(g8
I89
I15817
tp3552
sS'W EXCHANGE TEL GASPEE'
p3553
(g373
I85
I15982
tp3554
sS'ORCHARD P1'
p3555
(S'ORCHARD PL'
p3556
I95
I17064
tp3557
sS'-2232'
p3558
(g126
I29
I16872
tp3559
sS'-8255 NIGHTS HOLIDAYS TEL ELMHURST'
p3560
(g2267
I50
I17054
tp3561
sS"SILVER ' SPRING,"
p3562
(S'SILVER SPRING ST'
p3563
I100
I16454
tp3564
sS'E LMA'
p3565
(g1433
I83
I15833
tp3566
sS'JACKSON APT B'
p3567
(g353
I85
I16253
tp3568
sS'EXCHANGE PL R411'
p3569
(g61
I85
I15846
tp3570
sS'EXCHANGE PL R414'
p3571
(g61
I85
I15846
tp3572
sS'BEMON ST'
p3573
(S'BELMONT AVE'
p3574
I83
I17398
tp3575
sS'WAHUN AV'
p3576
(g2989
I80
I17705
tp3577
sS'EMPIRE R528'
p3578
(g238
I85
I15840
tp3579
sS'W PARK'
p3580
(g3291
I100
I17704
tp3581
sS'VZ CRANSTON ST'
p3582
(g8
I94
I15817
tp3583
sS'ELMHURST AV'
p3584
(g1888
I100
I17482
tp3585
sS'EXCHANGE, TEL GASPEE 1-1860'
p3586
(g61
I79
I15846
tp3587
sS'ROCHAMBEAU'
p3588
(g1520
I100
I17088
tp3589
sS'627 WESTMINSTER'
p3590
(g41
I92
I15991
tp3591
sS'-91 ATWELLS AV'
p3592
(g230
I91
I15775
tp3593
sS'PETTIS'
p3594
(S'PETTIS ST'
p3595
I100
I16396
tp3596
sS'GORDON AV, 3.5L HOPKINS 1-2560'
p3597
(g244
I69
I15876
tp3598
sS'WEYBOGSET R430'
p3599
(g20
I79
I15992
tp3600
sS'WESTMINS TER JUNC'
p3601
(S'WEST BEL AIR RD'
p3602
I57
I21341
tp3603
sS'MILES AV'
p3604
(S'MILES AVE'
p3605
I100
I17044
tp3606
sS'HOSPITAL TRUST BLDG 15 WESTMINSTER. TEL GASNEE 1-8070'
p3607
(g41
I67
I15991
tp3608
sS'EMPIRE R419'
p3609
(g238
I85
I15840
tp3610
sS'16 PLAINFIELD'
p3611
(g865
I93
I17994
tp3612
sS"CHESTNUT, TEL GAS'PEE 1'-3423"
p3613
(g2838
I73
I15807
tp3614
sS'EMPIRE R416'
p3615
(g238
I85
I15840
tp3616
sS'CARLSBAD ST'
p3617
(S'CARL ST'
p3618
I72
I17792
tp3619
sS'WESTMINSTER R301'
p3620
(g41
I90
I15991
tp3621
sS'WESTMINSTER R302'
p3622
(g41
I90
I15991
tp3623
sS'WESTMINSTER R303'
p3624
(g41
I90
I15991
tp3625
sS'WESTMINSTER R304'
p3626
(g41
I90
I15991
tp3627
sS'WESTMINSTER R305'
p3628
(g41
I90
I15991
tp3629
sS'WESTMINSTER R306'
p3630
(g41
I90
I15991
tp3631
sS'WESTMINSTER R307'
p3632
(g41
I90
I15991
tp3633
sS'WESTMINSTER R309'
p3634
(g41
I90
I15991
tp3635
sS'LEFT BOTTOM LINES AIND FRONT COVER) .'
p3636
(g1562
I50
I15762
tp3637
sS'EXCHANGE PL'
p3638
(g3210
I92
I15845
tp3639
sS'HEDLEY'
p3640
(g1883
I100
I21727
tp3641
sS'SABIN 6'
p3642
(g1720
I91
I15950
tp3643
sS'471 CRANSTON'
p3644
(g795
I90
I15817
tp3645
sS'AND LEFT SIDE LINES)'
p3646
(S'ALDINE ST'
p3647
I60
I17738
tp3648
sS'WATERMAN AVE'
p3649
(g71
I100
I15988
tp3650
sS'KINGSTOWN RD'
p3651
(S'KINGSTON AVE'
p3652
I94
I17013
tp3653
sS'POTTERS AV'
p3654
(g2384
I100
I16786
tp3655
sS'HOPE TEL MANNING'
p3656
(g3262
I85
I16951
tp3657
sS'WATERMAN,'
p3658
(S'WATERMAN ST'
p3659
I100
I15988
tp3660
sS'PINE 6'
p3661
(S'PINE ST'
p3662
I90
I15933
tp3663
sS'-2500; DOWNTOWN OFFICE'
p3664
(S'DOWNING ST'
p3665
I52
I17202
tp3666
sS'TURKS HEAD BLDG 76 WESTMINSTER.'
p3667
(g427
I77
I15991
tp3668
sS'LEFT TOP'
p3669
(S'LORETO ST'
p3670
I58
I16294
tp3671
sS'513 DEXTER'
p3672
(g35
I87
I17198
tp3673
sS'FREDERICK'
p3674
(S'FREDERICK ST'
p3675
I100
I16189
tp3676
sS'HOSPITAL TRUST PLAZA, SUITE 2700'
p3677
(g2328
I70
I15878
tp3678
sS"ELMG'ROVE AV"
p3679
(g1051
I80
I16960
tp3680
sS'ALLEN,S AV,'
p3681
(g775
I81
I15768
tp3682
sS'-10-12 ARCADE BLDG'
p3683
(g2426
I76
I15773
tp3684
sS'WAVLAND AIL'
p3685
(S'WAYLAND AVE'
p3686
I76
I17125
tp3687
sS'WAYLAND'
p3688
(g3686
I100
I17125
tp3689
sS'A SMITH'
p3690
(g105
I91
I16457
tp3691
sS'TUMER ST'
p3692
(g2738
I77
I15965
tp3693
sS'TH FL'
p3694
(S'4TH ST'
p3695
I65
I16874
tp3696
sS'A WAYLAND AVE'
p3697
(g2622
I96
I17125
tp3698
sS"POTTER' 5 AV"
p3699
(S'POTTER DR'
p3700
I93
I17294
tp3701
sS'CHARLES'
p3702
(g1748
I100
I16096
tp3703
sS'LANGDON'
p3704
(S'LANGDON ST'
p3705
I100
I16272
tp3706
sS'GASPEE'
p3707
(g1037
I100
I15863
tp3708
sS'687 CHARLES'
p3709
(g1748
I89
I16096
tp3710
sS'8'
p3711
(S'8TH ST'
p3712
I50
I16878
tp3713
sS'WATERMAN TELS UNION'
p3714
(g3171
I79
I15988
tp3715
sS'MT HOPE AVE'
p3716
(g2929
I86
I15875
tp3717
sS'FENNER'
p3718
(g3464
I100
I15849
tp3719
sS'-5746 1-8432'
p3720
(g875
I27
I15880
tp3721
sS"THOX'NAS"
p3722
(S'THOMAS ST'
p3723
I65
I15969
tp3724
sS'ALAB AMA'
p3725
(S'ALABAMA AVE'
p3726
I83
I16556
tp3727
sS'HAMILTON'
p3728
(S'HAMILTON ST'
p3729
I100
I17223
tp3730
sS'N MAIN R2'
p3731
(g2538
I93
I15916
tp3732
sS'WESTMINSTER 4TH FL,'
p3733
(g427
I88
I15991
tp3734
sS'PINE, TEL GASPEE 1-1131'
p3735
(g1037
I71
I15863
tp3736
sS'SEEKONK'
p3737
(S'SEEKONK ST'
p3738
I100
I17097
tp3739
sS'FRANKLIN R208-09'
p3740
(S'FRANKLIN SQ'
p3741
I83
I15856
tp3742
sS'ELMJIOOD AV, TEL STUART 1-4000'
p3743
(g746
I56
I17207
tp3744
sS'WESLGYAN AV'
p3745
(g1059
I88
I17353
tp3746
sS'EXCHANGE. TEL GASPEE 1-0943'
p3747
(g61
I79
I15846
tp3748
sS'WATERMAN STRM500'
p3749
(g71
I83
I15988
tp3750
sS'TRAVERSE'
p3751
(S'TRAVERSE ST'
p3752
I100
I17117
tp3753
sS'EDDY R407'
p3754
(g623
I81
I15834
tp3755
sS'BRANCH AV,'
p3756
(S'BRANCH AVE'
p3757
I100
I16067
tp3758
sS'OLNEYVILLE SQUL'
p3759
(S'OLNEYVILLE SQ'
p3760
I96
I17978
tp3761
sS'DORRANCE R318'
p3762
(g789
I88
I15829
tp3763
sS'ABOM ST'
p3764
(S'ABORN ST'
p3765
I73
I15763
tp3766
sS'PINE, TEL GASPEE 1-9600'
p3767
(g1037
I71
I15863
tp3768
sS'CHESTNUT ST3DF1'
p3769
(g1656
I85
I15807
tp3770
sS'ONE JACKSON WALKWAY'
p3771
(S'JACKSON WALKWAY'
p3772
I94
I15884
tp3773
sS'WASH R301'
p3774
(g859
I81
I21700
tp3775
sS'CANDAC E'
p3776
(g329
I85
I17422
tp3777
sS'279 PLAINFIE 1D'
p3778
(g865
I80
I17994
tp3779
sS'87 WEYBOSSET R228'
p3780
(g20
I84
I15992
tp3781
sS'EDDYSTRM306'
p3782
(g3017
I53
I15834
tp3783
sS'WEYBOSSET B420'
p3784
(g20
I89
I15992
tp3785
sS'VA HEY'
p3786
(S'HENRY ST'
p3787
I65
I16691
tp3788
sS'. TURKS HEAD BLDG.'
p3789
(S'TURKS HEAD PL'
p3790
I93
I15976
tp3791
sS"ANGELL'"
p3792
(g853
I100
I16022
tp3793
sS'CHALK-STONE AV'
p3794
(g233
I81
I17433
tp3795
sS'-297 WESTMINSTER.'
p3796
(g427
I92
I15991
tp3797
sS'WASHINGTON R311'
p3798
(g970
I90
I15987
tp3799
sS'WASHINGTON R310'
p3800
(g970
I90
I15987
tp3801
sS'WASHINGTON R317'
p3802
(g970
I90
I15987
tp3803
sS'WASHINGTON R316'
p3804
(g970
I90
I15987
tp3805
sS'WASHINGTON R315'
p3806
(g970
I90
I15987
tp3807
sS'WASHINGTON R314'
p3808
(g970
I90
I15987
tp3809
sS'AND'
p3810
(S'ANDY ST'
p3811
I86
I16020
tp3812
sS'BROWNELL'
p3813
(S'BROWNELL ST'
p3814
I100
I17414
tp3815
sS'CANAL,'
p3816
(S'CANAL ST'
p3817
I100
I15798
tp3818
sS'LB EDDY ST'
p3819
(g3017
I91
I15834
tp3820
sS'LAND SHIPPING ASSOCIATION 54 CUSTOM HOUSE R42'
p3821
(g1110
I50
I15978
tp3822
sS'GEORGE, TEL GASPEE 1-5627'
p3823
(g2273
I73
I15864
tp3824
sS"ALLEN'S AV."
p3825
(g775
I81
I15768
tp3826
sS"ALLEN'S AV,"
p3827
(g775
I81
I15768
tp3828
sS'WEYBOSSET R6'
p3829
(g20
I93
I15992
tp3830
sS'WESTMINSTER R1235'
p3831
(g41
I89
I15991
tp3832
sS'WEYBOSSET R53A'
p3833
(g20
I89
I15992
tp3834
sS'INDUSTRIAL BANK BLDG TEL GASPEE'
p3835
(g1315
I74
I16249
tp3836
sS'WESTMINSTER R1230'
p3837
(g41
I89
I15991
tp3838
sS'WESTMINSTER R1231'
p3839
(g41
I89
I15991
tp3840
sS'; LOAN ASSOCIATION OF PROVIDENCE'
p3841
(g1110
I54
I15978
tp3842
sS'SUMMER'
p3843
(S'SUMMER ST'
p3844
I100
I15965
tp3845
sS'-2000'
p3846
(g126
I29
I16872
tp3847
sS'CHALKSTONE; SIX OTHER CONVENIENT COMMUNITY OFFICES IN EARRINGTON CRANSTON CENTREDALE PAWTUCKET GREENVILPE'
p3848
(S'CHALKSTONE AVE'
p3849
I59
I17433
tp3850
sS'ATWELLS AV;'
p3851
(g230
I100
I15775
tp3852
sS'AMIGA BLDG 10 WEYBOSSET, TEL GASPEE 1-3500'
p3853
(g20
I68
I15992
tp3854
sS'W BROAD ST'
p3855
(g973
I88
I15793
tp3856
sS'A HOPE ST'
p3857
(g2929
I94
I15875
tp3858
sS'CHALKSTONE AV'
p3859
(g233
I100
I17433
tp3860
sS'MURRAY'
p3861
(S'MURRAY ST'
p3862
I100
I17968
tp3863
sS'ATWELLS AV,'
p3864
(S'ATWELLS AVE'
p3865
I100
I15775
tp3866
sS"PILSUDSKI'"
p3867
(g2607
I100
I17993
tp3868
sS"SILVER ' SPRING TEL UNION"
p3869
(g3443
I86
I16454
tp3870
sS'RIGHT TOP'
p3871
(g641
I74
I17781
tp3872
sS'; H J INC'
p3873
(g2453
I62
I16180
tp3874
sS'WEYBOSSET TEL GASPEE'
p3875
(g20
I81
I15992
tp3876
sS'ORMSBEE'
p3877
(g2
I73
I16384
tp3878
sS'-39 NARRAGANSETT AV'
p3879
(g733
I95
I17270
tp3880
sS'PRAIRIE AV. TEL GASPEE 1-9182'
p3881
(g2047
I70
I16787
tp3882
sS'SILVER LAKE AV'
p3883
(S'SILVER LAKE AVE'
p3884
I100
I18039
tp3885
sS"-712 POTTER'S AV"
p3886
(S'POTTER DR'
p3887
I77
I17294
tp3888
sS'WESTMINSTER R917'
p3889
(g41
I90
I15991
tp3890
sS"DOUGLAS AV'"
p3891
(S'DOUGLAS AVE'
p3892
I100
I16154
tp3893
sS'WESTRRTINSTER R420'
p3894
(g41
I76
I15991
tp3895
sS'-128 , BROADWAY,'
p3896
(S'BROADWAY ST'
p3897
I90
I15794
tp3898
sS'VINTON'
p3899
(S'VINTON ST'
p3900
I100
I15981
tp3901
sS'POCASSVET AV'
p3902
(g945
I94
I17995
tp3903
sS'EUCLID AV'
p3904
(S'EUCLID AVE'
p3905
I100
I16964
tp3906
sS'BROAD; TEL HOPKINS'
p3907
(g244
I79
I15876
tp3908
sS'REZENT AV'
p3909
(g77
I83
I17642
tp3910
sS'INDUSTRIAL BANK BLDG. TEL DASPEE 1-8723'
p3911
(g1315
I71
I16249
tp3912
sS'EARL'
p3913
(g3276
I89
I16394
tp3914
sS'GORDON AV'
p3915
(S'GORDON AVE'
p3916
I100
I16675
tp3917
sS'WINTER'
p3918
(S'WINTER ST'
p3919
I100
I15999
tp3920
sS'VALLEY ST.'
p3921
(g1438
I100
I17693
tp3922
sS'CAFNP'
p3923
(g722
I67
I16917
tp3924
sS'CHALKSBONE AVE'
p3925
(g2130
I91
I17433
tp3926
sS'BYRON'
p3927
(S'BROWN ST'
p3928
I80
I16073
tp3929
sS'CRANSTON, CRANSTON, R1,'
p3930
(g14
I78
I15817
tp3931
sS"VALLEY ST'"
p3932
(g1438
I100
I17693
tp3933
sS'UNION R601'
p3934
(g646
I83
I15977
tp3935
sS'UNION R607'
p3936
(g646
I83
I15977
tp3937
sS'MONTGOM ERY AV'
p3938
(S'MONTGOMERY AV'
p3939
I89
I16739
tp3940
sS'PUTNAM'
p3941
(S'PUTNAM ST'
p3942
I100
I18003
tp3943
sS'FERMER'
p3944
(g3464
I67
I15849
tp3945
sS'BFOAD'
p3946
(g300
I80
I15793
tp3947
sS"WEYBOSSZ'R ROOM"
p3948
(g20
I70
I15992
tp3949
sS'MATHEWSON R503'
p3950
(g400
I89
I15904
tp3951
sS'MATHEWSON R502'
p3952
(g400
I89
I15904
tp3953
sS'MATHEWSON R501'
p3954
(g400
I89
I15904
tp3955
sS'MATHEWSON R507'
p3956
(g400
I89
I15904
tp3957
sS'MATHEWSON R504'
p3958
(g400
I89
I15904
tp3959
sS'126 BE LLEVUE AV'
p3960
(S'BELLEVUE AVE'
p3961
I81
I16051
tp3962
sS'ALBERT AV, CRANSTON, TEL GASPEE 1-0556'
p3963
(g795
I68
I15817
tp3964
sS'SWISS'
p3965
(S'SWISS ST'
p3966
I100
I18061
tp3967
sS'ARCH'
p3968
(S'ARCH ST'
p3969
I100
I17156
tp3970
sS'-7860'
p3971
(g2184
I29
I16876
tp3972
sS'EXCHANGE R219'
p3973
(g61
I90
I15846
tp3974
sS'-226 WASHINGTON'
p3975
(g970
I91
I15987
tp3976
sS'SHIPYARD,'
p3977
(S'SHIPYARD ST'
p3978
I100
I16820
tp3979
sS'PLAINFIELD'
p3980
(g865
I100
I17994
tp3981
sS'WES TMINSTE R TEL GASPEE'
p3982
(g41
I70
I15991
tp3983
sS'MEDWAY. TEL) UNION'
p3984
(g2008
I77
I17040
tp3985
sS'HOME AV'
p3986
(S'HOME AVE'
p3987
I100
I17534
tp3988
sS'WEYBOSSET R323'
p3989
(g20
I89
I15992
tp3990
sS'EMPIRE R 6'
p3991
(g238
I87
I15840
tp3992
sS'A CHAPEL, SAYLESVILLE, RI, TEL PAWTUCKET 2-6300'
p3993
(g3288
I47
I16809
tp3994
sS"3D, TELS GASPEE 1-36'21, 1-3622'"
p3995
(g1037
I67
I15863
tp3996
sS'HUMBOLDT AV'
p3997
(S'HUMBOLDT AVE'
p3998
I100
I17003
tp3999
sS'SABIN. TEIS DEXTER 1-3380, L;3381'
p4000
(g35
I66
I17198
tp4001
sS'BROWNE CO, INC, 2 ALLEWS AV,'
p4002
(S'BROWNELL ST'
p4003
I69
I17414
tp4004
sS'HAMMOND'
p4005
(S'HAMMOND ST'
p4006
I100
I17880
tp4007
sS'PINE'
p4008
(g3662
I100
I15933
tp4009
sS"-737'6 V"
p4010
(g1795
I26
I16873
tp4011
sS'-54 HARRIS AV'
p4012
(g559
I90
I15869
tp4013
sS'WESTMINSTER R313'
p4014
(g41
I90
I15991
tp4015
sS'WESTMINSTER R312'
p4016
(g41
I90
I15991
tp4017
sS'WESTMINSTER R311'
p4018
(g41
I90
I15991
tp4019
sS'WESTMINSTER R310'
p4020
(g41
I90
I15991
tp4021
sS'WESTMINSTER R317'
p4022
(g41
I90
I15991
tp4023
sS'WESTMINSTER R315'
p4024
(g41
I90
I15991
tp4025
sS'WESTMINSTER R314'
p4026
(g41
I90
I15991
tp4027
sS'W EXCHANGE ST'
p4028
(S'WEST EXCHANGE ST'
p4029
I100
I15982
tp4030
sS'OAK'
p4031
(S'OAK ST'
p4032
I100
I17974
tp4033
sS'DART'
p4034
(S'HART ST'
p4035
I75
I16991
tp4036
sS'EMPIRE R607'
p4037
(g238
I85
I15840
tp4038
sS'EMPIRE R605'
p4039
(g238
I85
I15840
tp4040
sS'EMPIRE R602'
p4041
(g238
I85
I15840
tp4042
sS"RESERVOIR AV, TEL WNUAM'S 1-3500"
p4043
(g32
I70
I17303
tp4044
sS'FRONT EDGE BASE 2)'
p4045
(g1455
I62
I16975
tp4046
sS'EXCHANGE PL,'
p4047
(g1068
I92
I15845
tp4048
sS'WESTMINSTER, ROOM 506'
p4049
(g427
I85
I15991
tp4050
sS'FRONT EDGE AND'
p4051
(g1455
I65
I16975
tp4052
sS'WESTMINSTER STRM200'
p4053
(g703
I86
I15991
tp4054
sS'EMPIRE R418'
p4055
(g238
I85
I15840
tp4056
sS'ALTIERI JAS 609;CHAR1ES'
p4057
(S'SALTER ST'
p4058
I55
I17660
tp4059
sS'FOSTER'
p4060
(S'FOSTER ST'
p4061
I100
I15852
tp4062
sS'WESTMINSTER R9'
p4063
(g41
I94
I15991
tp4064
sS'WESTMINSTER R8'
p4065
(g41
I94
I15991
tp4066
sS'BALMORAL AV'
p4067
(S'BALMORAL AVE'
p4068
I100
I17394
tp4069
sS'WICKENDEN, TEL GASPEE 1-8000'
p4070
(g1567
I75
I15995
tp4071
sS'WESTMINSTER R7'
p4072
(g41
I94
I15991
tp4073
sS'WESTMINSTER R1'
p4074
(g41
I94
I15991
tp4075
sS'OGDEN'
p4076
(S'OGDEN ST'
p4077
I100
I17059
tp4078
sS'WESTMINSTER R2'
p4079
(g41
I94
I15991
tp4080
sS'WEYBOSSET R327'
p4081
(g20
I89
I15992
tp4082
sS'WASHINGTON, ANTHONY'
p4083
(S'WASHINGTON PL'
p4084
I85
I15986
tp4085
sS"O'CONNELL ST"
p4086
(S'OCONNELL ST'
p4087
I94
I16760
tp4088
sS'WAVLAND AV'
p4089
(g151
I86
I17125
tp4090
sS'-2641 CENTREDALE 1-7488'
p4091
(g3059
I65
I16095
tp4092
sS'EAGLEST4THFL'
p4093
(S'EAGLE ST'
p4094
I59
I17477
tp4095
sS'WEALTH AV'
p4096
(S'WEALTH AVE'
p4097
I100
I17714
tp4098
sS"'C1IFFORD R5"
p4099
(g3125
I81
I15811
tp4100
sS'MANTON LIV'
p4101
(g584
I87
I17947
tp4102
sS'WALLING'
p4103
(S'WALLING ST'
p4104
I100
I21723
tp4105
sS'A TWELLS AV'
p4106
(g230
I92
I15775
tp4107
sS'WESTMINSTER, 3D FLOOR, TEL DEXTER 1-1230'
p4108
(g41
I72
I15991
tp4109
sS'WESTMINSTER; TEL GASNEE'
p4110
(g41
I83
I15991
tp4111
sS'GESLER HODE ISLAND CONSERVATORY OF MUSIC, 280 WASHINGTON, TEL PLANTATIONS 1-4941'
p4112
(g224
I54
I17058
tp4113
sS'CUSHING'
p4114
(S'CUSHING ST'
p4115
I100
I16130
tp4116
sS'ELMGRAVE AV'
p4117
(S'ELMGROVE AVE'
p4118
I88
I16960
tp4119
sS'WESTMINSTER 3809'
p4120
(g41
I90
I15991
tp4121
sS'WEYBOSSET R328'
p4122
(g20
I89
I15992
tp4123
sS'5RANCH AV'
p4124
(S'BRANCH AVE'
p4125
I83
I16067
tp4126
sS'CHARLES LST'
p4127
(g1748
I89
I16096
tp4128
sS'DIVISION'
p4129
(S'DIVISION ST'
p4130
I100
I17828
tp4131
sS"ALLEN'SV ' AV"
p4132
(g11
I88
I15768
tp4133
sS'KANE'
p4134
(S'KANE ST'
p4135
I100
I17553
tp4136
sS'BENEIIT ST'
p4137
(S'BENEFIT ST'
p4138
I88
I15781
tp4139
sS'DBRRANCE'
p4140
(g789
I88
I15829
tp4141
sS'WASHINGTON R501'
p4142
(g970
I90
I15987
tp4143
sS'7"'
p4144
(S'7TH ST'
p4145
I50
I16877
tp4146
sS'LINWOOD AV'
p4147
(S'LINWOOD AVE'
p4148
I100
I17249
tp4149
sS'W EXC HANGE'
p4150
(g373
I86
I15982
tp4151
sS'BERKSHIRE'
p4152
(S'BERKSHIRE ST'
p4153
I100
I17402
tp4154
sS'PLAINTIELD ST'
p4155
(g391
I91
I17994
tp4156
sS'WASH R212A'
p4157
(S'TARA DR'
p4158
I43
I16487
tp4159
sS'WASHINZTON'
p4160
(g970
I90
I15987
tp4161
sS'322 PRAIRIE AV'
p4162
(g2047
I89
I16787
tp4163
sS'NDULAINE'
p4164
(g599
I80
I17822
tp4165
sS'VZ CAMP ST'
p4166
(S'CAMP ST'
p4167
I91
I16917
tp4168
sS'LILY'
p4169
(S'LILY ST'
p4170
I100
I15894
tp4171
sS'WESTMINSTER ROOMS 307-8-9-13'
p4172
(g41
I78
I15991
tp4173
sS"SILVEI' LAKE"
p4174
(g3884
I87
I18039
tp4175
sS'ROCHAMBOAU AV'
p4176
(g1520
I90
I17088
tp4177
sS'; SONS CO INC'
p4178
(S'SIMMONS ST'
p4179
I58
I18040
tp4180
sS'CUSTOM HOUSE, TEL GASPEE 1-6900'
p4181
(g154
I78
I15820
tp4182
sS'WEYBOSSET R206 CF'
p4183
(g20
I84
I15992
tp4184
sS'OCEAN'
p4185
(S'OCEAN AV'
p4186
I100
I16756
tp4187
sS'WEBSTER AV'
p4188
(S'WEBSTER AVE'
p4189
I100
I18098
tp4190
sS'DORRANCE R308'
p4191
(g789
I88
I15829
tp4192
sS'DORRANCE R309'
p4193
(g789
I88
I15829
tp4194
sS'CLAVERICK'
p4195
(S'CLAVERICK ST'
p4196
I100
I15809
tp4197
sS'V; BROADWAY'
p4198
(g1077
I94
I15794
tp4199
sS'HALSEY'
p4200
(S'HALSEY ST'
p4201
I100
I16989
tp4202
sS'OHIO AV'
p4203
(S'OHIO AVE'
p4204
I100
I16762
tp4205
sS'DORRANCE R304'
p4206
(g789
I88
I15829
tp4207
sS'DORRANCE R305'
p4208
(g789
I88
I15829
tp4209
sS'LVMAN'
p4210
(S'LYMAN ST'
p4211
I80
I15897
tp4212
sS'POCASSET AV'
p4213
(g945
I100
I17995
tp4214
sS'B CAMP'
p4215
(g722
I90
I16917
tp4216
sS'; CARPENTER C0 THE.'
p4217
(g911
I86
I15801
tp4218
sS'POST RD, APPONAUG,'
p4219
(g1659
I59
I15832
tp4220
sS'WEYBCBSET,'
p4221
(g295
I78
I15992
tp4222
sS'AMHERST'
p4223
(S'AMHERST ST'
p4224
I100
I17744
tp4225
sS'HOPE'
p4226
(g1423
I100
I15875
tp4227
sS'SORRENTO'
p4228
(S'SORRENTO ST'
p4229
I100
I18046
tp4230
sS'WESTMINSTER STREET, SUITE 830'
p4231
(g703
I78
I15991
tp4232
sS'RLZHI BOTTOM LINES)'
p4233
(S'BLOOM ST'
p4234
I54
I16062
tp4235
sS"ALLEN'S AV"
p4236
(g11
I81
I15768
tp4237
sS'JACKSON,'
p4238
(g1548
I100
I16253
tp4239
sS'WASHINGTON R308'
p4240
(g970
I90
I15987
tp4241
sS'WASHINGTON R309'
p4242
(g970
I90
I15987
tp4243
sS'POST RD, APPONAUG, TEL REGENT 7-9100'
p4244
(S'EAST APPROACH'
p4245
I48
I15832
tp4246
sS'POWER RD'
p4247
(S'POWER ST'
p4248
I100
I15939
tp4249
sS'WASHINGTON R300'
p4250
(g970
I90
I15987
tp4251
sS'WASHINGTON R301'
p4252
(g970
I90
I15987
tp4253
sS'WASHINGTON R302'
p4254
(g970
I90
I15987
tp4255
sS'CALVERLEY ST'
p4256
(S'CALVERLY ST'
p4257
I95
I17419
tp4258
sS'WEVBOSSET R509'
p4259
(g20
I79
I15992
tp4260
sS"'57 WESTMINSTER R309"
p4261
(g41
I86
I15991
tp4262
sS'SILVER SPRING TEL UNION'
p4263
(g3443
I86
I16454
tp4264
sS'RIGHT BOTTOM NINES)'
p4265
(g4234
I54
I16062
tp4266
sS'BURLINGTON'
p4267
(S'BURLINGTON ST'
p4268
I100
I16914
tp4269
sS'VINTOU ST'
p4270
(S'VINTON ST'
p4271
I86
I15981
tp4272
sS'FREMONT'
p4273
(g1455
I100
I16975
tp4274
sS'SPRING, PAWTUCKET. TEL PAWTUCKET 5-3394'
p4275
(g383
I56
I16771
tp4276
sS'LIVINGSTON'
p4277
(S'LIVINGSTON ST'
p4278
I100
I16287
tp4279
sS'RANDALL,'
p4280
(S'RANDALL RD'
p4281
I100
I16415
tp4282
sS'PATERSON'
p4283
(S'PATERSON ST'
p4284
I100
I17069
tp4285
sS"RESERV'OIR AVE"
p4286
(S'RESERVOIR AVE'
p4287
I88
I17303
tp4288
sS'ALIEN AV. TEL WLLLIAMS'
p4289
(S'BETSEY WILLIAMS DR'
p4290
I74
I16590
tp4291
sS'EDDY. TEL DEXTER 1-8292'
p4292
(g35
I71
I17198
tp4293
sS'HOPE,'
p4294
(S'HOPE ST'
p4295
I100
I15875
tp4296
sS'WATERMANRST'
p4297
(g71
I84
I15988
tp4298
sS"W ' EXCHANGE"
p4299
(g373
I100
I15982
tp4300
sS'-6900'
p4301
(g52
I29
I15881
tp4302
sS'WOODMAN'
p4303
(S'WOODMAN ST'
p4304
I100
I17360
tp4305
sS'UNION AV, TEL ELMHURST 1-1 51 5'
p4306
(g1888
I71
I17482
tp4307
sS'BENEFIT RHODE ISLAND RADIO SCHOOL 47 MATHEWSON'
p4308
(g400
I66
I15904
tp4309
sS'STANW OOD'
p4310
(S'STANWOOD ST'
p4311
I85
I17331
tp4312
sS'DONANCE ST'
p4313
(S'DORRANCE ST'
p4314
I83
I15829
tp4315
sS'VALLEY, TEL DEXTER 1-4883'
p4316
(g2957
I75
I16512
tp4317
sS"BROA'DWAY"
p4318
(g300
I80
I15793
tp4319
sS'HOSPITAL TRUST BLDG 15 WESTMINSTER.'
p4320
(g427
I74
I15991
tp4321
sS'2555 SMITH'
p4322
(g105
I83
I16457
tp4323
sS'CUSTOM HOUSE TEL GASPEE'
p4324
(g154
I84
I15820
tp4325
sS'ANGELL STREET'
p4326
(S'ANGELL RD'
p4327
I81
I16022
tp4328
sS'-2108'
p4329
(g332
I50
I16868
tp4330
sS"CRANST'ON"
p4331
(g795
I90
I15817
tp4332
sS'9 JAC KSON'
p4333
(g353
I77
I16253
tp4334
sS'WEST EXCHANGE TEL GASPE E'
p4335
(g373
I81
I15982
tp4336
sS'176 BENEFIT'
p4337
(g545
I89
I15781
tp4338
sS'DEXTER'
p4339
(g35
I100
I17198
tp4340
sS'-5125'
p4341
(g82
I50
I15880
tp4342
sS'ROGER WILLIAMS AV'
p4343
(g1690
I100
I17306
tp4344
sS'TH'
p4345
(g3695
I80
I16874
tp4346
sS'RIVER AV. TEL GASPEE'
p4347
(g1037
I74
I15863
tp4348
sS'WESTMINSTER, TEL GASPEE 1-3352'
p4349
(g41
I77
I15991
tp4350
sS'-226 THAVER'
p4351
(g2883
I73
I17112
tp4352
sS'TAUNTON AV, TEL "GKNEVA 4-4900'
p4353
(g841
I60
I18051
tp4354
sS"WES'T EXCHANGE."
p4355
(g2952
I98
I15982
tp4356
sS'& CARPENTER'
p4357
(g911
I100
I15801
tp4358
sS'PROV COUNTY COURT HOUSE'
p4359
(S'COUNTY ST'
p4360
I70
I16126
tp4361
sS'WESTMINSTER R418'
p4362
(g41
I90
I15991
tp4363
sS'WESTMINSTER R414'
p4364
(g41
I90
I15991
tp4365
sS'WESTMINSTER R417'
p4366
(g41
I90
I15991
tp4367
sS'WESTMINSTER R410'
p4368
(g41
I90
I15991
tp4369
sS'WESTMINSTER R411'
p4370
(g41
I90
I15991
tp4371
sS'WESTMINSTER R412'
p4372
(g41
I90
I15991
tp4373
sS'CHARLES FIELD APT 202'
p4374
(g1748
I75
I16096
tp4375
sS'EMPIRE TEL GABPEE'
p4376
(g458
I81
I15839
tp4377
sS"' WESTMINSTER ST"
p4378
(g703
I100
I15991
tp4379
sS'RANDALL SQ SUITE 308'
p4380
(g1939
I83
I16416
tp4381
sS'MONEGENAIS'
p4382
(S'MONGENAIS ST'
p4383
I95
I17964
tp4384
sS'DYER'
p4385
(S'DYER ST'
p4386
I100
I15831
tp4387
sS'RANDALL SQ SUITE 305'
p4388
(g1939
I83
I16416
tp4389
sS'RANDALL SQ SUITE 307'
p4390
(g1939
I83
I16416
tp4391
sS'FRANKLIN R210'
p4392
(g283
I88
I16188
tp4393
sS'WESTMINSTER R17'
p4394
(g41
I92
I15991
tp4395
sS'FRANKLIN R215'
p4396
(g283
I88
I16188
tp4397
sS'STATION. CRANBTON,'
p4398
(g14
I73
I15817
tp4399
sS'HARRIS AV'
p4400
(g559
I100
I15869
tp4401
sS'ARCADE BLDG'
p4402
(g2426
I85
I15773
tp4403
sS'-5550 SEE YELLOW PAGE 1M'
p4404
(g1592
I51
I15835
tp4405
sS'WESTMINSTER R521'
p4406
(g41
I90
I15991
tp4407
sS'WESTMINSTER R522'
p4408
(g41
I90
I15991
tp4409
sS'COURTLAND'
p4410
(S'COURTLAND ST'
p4411
I100
I17806
tp4412
sS'WESTMINSTER R525'
p4413
(g41
I90
I15991
tp4414
sS'WESTMINSTER R526'
p4415
(g41
I90
I15991
tp4416
sS'WESTMINSTER R527'
p4417
(g41
I90
I15991
tp4418
sS'WESTMINSTER R528'
p4419
(g41
I90
I15991
tp4420
sS'WESTMINSTER R529'
p4421
(g41
I90
I15991
tp4422
sS'DORRANOE ST'
p4423
(g4314
I89
I15829
tp4424
sS'SIBLEY'
p4425
(S'SIBLEY ST'
p4426
I100
I17322
tp4427
sS'-9700'
p4428
(g52
I29
I15881
tp4429
sS'PARADE, TEL ELMHURST 1-1972'
p4430
(g1888
I73
I17482
tp4431
sS"ALLEH'S AV"
p4432
(g11
I66
I15768
tp4433
sS'EXCHANGE PL R500'
p4434
(g61
I85
I15846
tp4435
sS'PECK,'
p4436
(S'PECK ST'
p4437
I100
I15928
tp4438
sS'ELMZROVE AVE'
p4439
(g2934
I90
I16960
tp4440
sS'A POCASSET AV'
p4441
(S'POCASSET AVE'
p4442
I94
I17995
tp4443
sS'WESTMINSTER R322'
p4444
(g41
I90
I15991
tp4445
sS'WESTMINSTER R323'
p4446
(g41
I90
I15991
tp4447
sS'WESTMINSTER R320'
p4448
(g41
I90
I15991
tp4449
sS'DORR'
p4450
(g1132
I100
I17471
tp4451
sS'RIGHT BOTTOM LINES)'
p4452
(g4234
I54
I16062
tp4453
sS'WESTMINSTER R 218'
p4454
(g41
I89
I15991
tp4455
sS'ATLANTIC AV'
p4456
(S'ATLANTIC AVE'
p4457
I100
I16035
tp4458
sS'PEACE'
p4459
(S'PEACE ST'
p4460
I100
I17286
tp4461
sS'HOSPITAL TRUST BLDG 15 WESTMINSTER. MU 1 GASPEE 1-6070'
p4462
(g41
I67
I15991
tp4463
sS'WASHBUM ST'
p4464
(S'WASHBURN ST'
p4465
I83
I17712
tp4466
sS'WESTMINSTER R329'
p4467
(g41
I90
I15991
tp4468
sS'P'
p4469
(S'POE ST'
p4470
I50
I16783
tp4471
sS'MELROSE'
p4472
(S'MELROSE ST'
p4473
I100
I17263
tp4474
sS',WENDE11'
p4475
(g2649
I71
I16535
tp4476
sS'14 HOLDEN'
p4477
(g3118
I90
I17532
tp4478
sS'PRESIDENT AV'
p4479
(S'PRESIDENT AVE'
p4480
I100
I17079
tp4481
sS'24 BENEFIT'
p4482
(g545
I91
I15781
tp4483
sS"ANGE'LL"
p4484
(g853
I86
I16022
tp4485
sS'ALLEN,S AV'
p4486
(g996
I81
I15768
tp4487
sS'CANAL'
p4488
(g2223
I100
I15798
tp4489
sS'WICKENDEN STV'
p4490
(S'WICKENDEN ST'
p4491
I91
I15995
tp4492
sS'WAY.LAND AV'
p4493
(g151
I83
I17125
tp4494
sS'POCASEET AV'
p4495
(g945
I88
I17995
tp4496
sS'WESTMINSTER, TEL TEMPLE 1-7500'
p4497
(g427
I77
I15991
tp4498
sS'HOSPITAL TRUST BLDG 15 WESTMINSTER. TEL GASPEE 1-6070'
p4499
(g41
I67
I15991
tp4500
sS'MESSINA'
p4501
(S'MESSINA ST'
p4502
I100
I17590
tp4503
sS'3D'
p4504
(g1795
I80
I16873
tp4505
sS'WESTMINSTER STRM305'
p4506
(g703
I86
I15991
tp4507
sS'WESTMINSTER STRM306'
p4508
(g703
I86
I15991
tp4509
sS'WESTMINSTER STRM301'
p4510
(g703
I86
I15991
tp4511
sS'WESTMINSTER STRM302'
p4512
(g703
I86
I15991
tp4513
sS'RICHMOND'
p4514
(g1334
I100
I15946
tp4515
sS'MANUFACTURING CO, 623-633 ATWELIS AV, TEL GASPEE 1-0680'
p4516
(S'MANNING WALK'
p4517
I45
I17035
tp4518
sS'EMPIRE TEL GASPEE'
p4519
(g458
I81
I15839
tp4520
sS'I ATWELLS AV'
p4521
(g191
I94
I15775
tp4522
sS'-3600'
p4523
(g1795
I29
I16873
tp4524
sS'MIDDLE'
p4525
(S'MIDDLE ST'
p4526
I100
I15910
tp4527
sS'908 EDDY'
p4528
(g623
I83
I15834
tp4529
sS'B CHARLES ST'
p4530
(g862
I95
I16096
tp4531
sS'& KNIGHT'
p4532
(g500
I100
I15890
tp4533
sS'WESTMINSTER R 21 3'
p4534
(g41
I88
I15991
tp4535
sS'A PLAINFIELD'
p4536
(g865
I95
I17994
tp4537
sS"ALMV '"
p4538
(S'PALM ST'
p4539
I75
I16386
tp4540
sS'32'
p4541
(g126
I40
I16872
tp4542
sS'NEW YORK AV'
p4543
(S'NEW YORK AVE'
p4544
I100
I16751
tp4545
sS'N MAIN,'
p4546
(S'NORTH MAIN ST'
p4547
I100
I15916
tp4548
sS'SELINA ST'
p4549
(S'SALINA ST'
p4550
I86
I17658
tp4551
sS'CHACE AV'
p4552
(S'CHACE AVE'
p4553
I100
I16921
tp4554
sS'I WEBSTER AV'
p4555
(g4189
I94
I18098
tp4556
sS'ATWOOD AV. JOHNSTON, TEL UNION 1-0913'
p4557
(g38
I63
I16707
tp4558
sS'CHALKSTONE SIX OTHER CONVENIENT COMMUNITY OFFICES IN BARRINGTON CRANSTON CENTREDALE PAWTUCKET GREENVILLE'
p4559
(g233
I59
I17433
tp4560
sS'LUCITE'
p4561
(g430
I77
I17577
tp4562
sS'BROADWAY, EAST PROVIDENCE. TELS GENEVA 4-1255, 4-1256'
p4563
(g133
I69
I17631
tp4564
sS'PEQUOT'
p4565
(S'PEQUOT ST'
p4566
I100
I15930
tp4567
sS'OAK ST,'
p4568
(S'OAK ST'
p4569
I100
I17974
tp4570
sS'-3883'
p4571
(g1795
I29
I16873
tp4572
sS'WARRINGTON'
p4573
(S'WARRINGTON ST'
p4574
I100
I17350
tp4575
sS'WEYBOSSET R2, TEL GASPIAE 1-5074'
p4576
(g20
I72
I15992
tp4577
sS') TELEPHONE 277-7000'
p4578
(g1003
I55
I16474
tp4579
sS'-3352'
p4580
(g52
I29
I15881
tp4581
sS'HOME'
p4582
(S'HOME AVE'
p4583
I100
I17534
tp4584
sS'BORDEN. "REXS DEXTER 1-0243, 1-0244'
p4585
(g2088
I66
I15787
tp4586
sS'MEETING'
p4587
(g3328
I100
I15907
tp4588
sS'WEYBOSSET R8 06'
p4589
(g20
I87
I15992
tp4590
sS'TELS GASPEE'
p4591
(g1037
I85
I15863
tp4592
sS'RARYST'
p4593
(S'CRARY ST'
p4594
I73
I15818
tp4595
sS'WESTMINS TER'
p4596
(g41
I90
I15991
tp4597
sS'-3401'
p4598
(g516
I29
I16871
tp4599
sS'-3400'
p4600
(g1795
I29
I16873
tp4601
sS'WEYBOSSET TEL STUART'
p4602
(g20
I81
I15992
tp4603
sS'OSIMSAV'
p4604
(S'SIMS AVE'
p4605
I73
I18041
tp4606
sS'WESTMINSTER , R504'
p4607
(g41
I90
I15991
tp4608
sS'RUSSO'
p4609
(S'RUSSO ST'
p4610
I100
I16439
tp4611
sS'W PARK ST'
p4612
(S'WEST PARK ST'
p4613
I100
I17704
tp4614
sS'ME LROSE'
p4615
(g4473
I88
I17263
tp4616
sS'ATWELFS AV'
p4617
(g191
I86
I15775
tp4618
sS'-2060 RES TELS WILLIAMS'
p4619
(S'BETSY WILLIAMS DR'
p4620
I83
I16591
tp4621
sS'INDUSTRIAL BANK BLDG 111 WESTMINSTER STREET. SERVICE OFFICE IN LOBBY. TEL, JACKSON 1-3900'
p4622
(g427
I61
I15991
tp4623
sS'EVERGREEN'
p4624
(S'EVERGREEN ST'
p4625
I100
I16966
tp4626
sS"-5800'"
p4627
(g52
I29
I15881
tp4628
sS'-0050'
p4629
(g52
I29
I15881
tp4630
sS'-0056'
p4631
(g52
I29
I15881
tp4632
sS'RICHMOND, TEL GASPEE 1-7840'
p4633
(S'RICHMOND SQ'
p4634
I77
I17086
tp4635
sS'WESTMINSTER; BRANCH 205 WAYLAND AV,'
p4636
(g427
I77
I15991
tp4637
sS'ANTHONY AV'
p4638
(S'ANTHONY AVE'
p4639
I100
I17155
tp4640
sS'TON'
p4641
(S'STONE ST'
p4642
I75
I16476
tp4643
sS'PAGE'
p4644
(g1391
I100
I15923
tp4645
sS'CRANSTON'
p4646
(g795
I100
I15817
tp4647
sS'POST RD. APPONAUG, TEL REGENT 7-9100'
p4648
(g4245
I48
I15832
tp4649
sS'HARTFORD AV'
p4650
(S'HARTFORD AVE'
p4651
I100
I17889
tp4652
sS'POWER RD; FACTORY 310 OWEN AV, PAWTUCKET.'
p4653
(g494
I56
I16771
tp4654
sS'WESTMINSTER R428'
p4655
(g41
I90
I15991
tp4656
sS'WEYBOSSET STRM506'
p4657
(g58
I84
I15992
tp4658
sS'GREEN'
p4659
(g800
I91
I15866
tp4660
sS'WEYBOSSET R8-9-10'
p4661
(g20
I84
I15992
tp4662
sS'JENKINS'
p4663
(S'JENKINS ST'
p4664
I100
I17010
tp4665
sS'BRIDGHAM'
p4666
(g2050
I100
I17169
tp4667
sS'HEWES'
p4668
(S'CHEEVES ST'
p4669
I67
I15806
tp4670
sS'WESTMNSTER . PROVIDENCE TEL ELMHURST'
p4671
(g41
I69
I15991
tp4672
sS'CRANSTOR.'
p4673
(g795
I88
I15817
tp4674
sS'-5331'
p4675
(g52
I29
I15881
tp4676
sS'WASHINGTON R203'
p4677
(g970
I90
I15987
tp4678
sS'WASHINGTON R202'
p4679
(g970
I90
I15987
tp4680
sS'WASHINGTON R205'
p4681
(g970
I90
I15987
tp4682
sS"WESTMINW'3 STER, TEIS GASNEE'1-8950. 1-8951. 1-8952"
p4683
(g41
I55
I15991
tp4684
sS'WASHINGTON R207'
p4685
(g970
I90
I15987
tp4686
sS'WASHINGTON R206'
p4687
(g970
I90
I15987
tp4688
sS'WASHINGTON R209'
p4689
(g970
I90
I15987
tp4690
sS'WESTMINSTER ROOM'
p4691
(g41
I90
I15991
tp4692
sS'B SMITH ST'
p4693
(S'SMITH ST'
p4694
I94
I16457
tp4695
sS'NIAGARA'
p4696
(S'NIAGARA ST'
p4697
I100
I17273
tp4698
sS'VIRGINIA AV'
p4699
(g2546
I100
I16849
tp4700
sS'NEWARK BARKLEYS WINDOW, HOME & OFFICE CLEANING C0. 283 SMITH, IBROVIDENCEF'
p4701
(g736
I52
I17299
tp4702
sS'WASHINGTON R201'
p4703
(g970
I90
I15987
tp4704
sS'-0100; SERVICE'
p4705
(S'SERVICE RD'
p4706
I87
I15953
tp4707
sS'LEFT TOP LINES) 1'
p4708
(g2565
I59
I16885
tp4709
sS'EASTWOOD AV'
p4710
(S'EASTWOOD AVE'
p4711
I100
I17839
tp4712
sS'-39 NARRAGANSETT AV,'
p4713
(g605
I95
I17270
tp4714
sS'WASHINGTON R3 06'
p4715
(g49
I88
I15986
tp4716
sS'SNOW, 2D FLOOR,'
p4717
(S'FLORA ST'
p4718
I62
I16182
tp4719
sS'&WILLOW'
p4720
(g900
I100
I18108
tp4721
sS'R111'
p4722
(S'11TH ST'
p4723
I50
I16869
tp4724
sS'WASHINGTON R204'
p4725
(g970
I90
I15987
tp4726
sS'BRADFORD'
p4727
(S'BRADFORD ST'
p4728
I100
I15790
tp4729
sS'A REYNOLDS AV'
p4730
(g749
I94
I16791
tp4731
sS'EXCHANGE R511'
p4732
(g61
I90
I15846
tp4733
sS'RANDALL, TEL GASPEE 14981'
p4734
(g1461
I76
I16416
tp4735
sS'S MAIN ST'
p4736
(S'SOUTH MAIN ST'
p4737
I100
I15948
tp4738
sS'WESTBMNSTER. TEIS DEXTER 1-3400. 1-3401'
p4739
(g427
I66
I15991
tp4740
sS'W EXCHANGE KIDDE WALTER CO'
p4741
(g373
I81
I15982
tp4742
sS'ENGROVE AV'
p4743
(S'GROVE ST'
p4744
I83
I17876
tp4745
sS'A WATERMAN APT 7'
p4746
(g3171
I83
I15988
tp4747
sS'WESTMINSTER TEL GABPEE'
p4748
(g41
I83
I15991
tp4749
sS'WASHINGTON R208'
p4750
(g970
I90
I15987
tp4751
sS"HARTFORD A'"
p4752
(g4651
I94
I17889
tp4753
sS"' WESTMINSTER R1141"
p4754
(g41
I89
I15991
tp4755
sS'CAROLINA'
p4756
(g1184
I100
I16085
tp4757
sS'MANTON'
p4758
(g584
I100
I17947
tp4759
sS'-50 WEYBOSSET'
p4760
(g20
I93
I15992
tp4761
sS'UNIVERSITV AV'
p4762
(S'UNIVERSITY AVE'
p4763
I90
I17119
tp4764
sS'UNION R409'
p4765
(g646
I83
I15977
tp4766
sS'HAWKINS'
p4767
(S'HAWKINS ST'
p4768
I100
I16223
tp4769
sS'ELLENFIELD'
p4770
(S'ELLENFIELD ST'
p4771
I100
I16654
tp4772
sS'WESTMINSTER R1612'
p4773
(g41
I89
I15991
tp4774
sS'CHESTNUT DEL'
p4775
(g2838
I90
I15807
tp4776
sS'-0600'
p4777
(g2184
I29
I16876
tp4778
sS'WESTMINSTER R409'
p4779
(g41
I90
I15991
tp4780
sS'WESIEYAN AV'
p4781
(g1059
I88
I17353
tp4782
sS'WESTMINSTER R407'
p4783
(g41
I90
I15991
tp4784
sS'WESTMINSTER R212'
p4785
(g41
I90
I15991
tp4786
sS'WESTMINSTER R405'
p4787
(g41
I90
I15991
tp4788
sS'WESTMINSTER R404'
p4789
(g41
I90
I15991
tp4790
sS'WESTMINSTER R403'
p4791
(g41
I90
I15991
tp4792
sS'WESTMINSTER R402'
p4793
(g41
I90
I15991
tp4794
sS'WESTMINSTER R401'
p4795
(g41
I90
I15991
tp4796
sS'WESTMINSTER R400'
p4797
(g41
I90
I15991
tp4798
sS'-128 , BROADWAY, TELS GASPEE 1-6394 , THROUGH TO GASPEE 1-6399'
p4799
(S'GRAND BROADWAY'
p4800
I63
I16209
tp4801
sS'WASH PL DONNELLY JAS H 15 WESTMINSTER R740'
p4802
(g41
I71
I15991
tp4803
sS'WESTMINSTER R2010'
p4804
(g41
I89
I15991
tp4805
sS'TOBEV'
p4806
(g3238
I80
I18076
tp4807
sS'DIMAN P1'
p4808
(S'DIMAN PL'
p4809
I94
I16943
tp4810
sS'VEAZIE'
p4811
(S'VEAZIE ST'
p4812
I100
I16515
tp4813
sS'HUNTIHGTON AV'
p4814
(g2403
I90
I17236
tp4815
sS'FOUNTAIN, TEL UNMN 1-5000'
p4816
(g257
I75
I15853
tp4817
sS'PRAIRIE'
p4818
(g2047
I100
I16787
tp4819
sS'DOYLE AVU'
p4820
(g2331
I85
I16946
tp4821
sS'WAMPANOAG TRAIL, EAST PROVIDENCE, TEL GENEVA 47400'
p4822
(g894
I69
I17631
tp4823
sS'LESTER'
p4824
(S'LESTER ST'
p4825
I100
I17245
tp4826
sS'-5800; DOWNTOWN OFFICE'
p4827
(g3665
I52
I17202
tp4828
sS'OLNEV'
p4829
(S'OLNEY ST'
p4830
I80
I16377
tp4831
sS'-9800'
p4832
(g52
I29
I15881
tp4833
sS'OLNEY'
p4834
(g4830
I100
I16377
tp4835
sS'PLAINFIELD,'
p4836
(S'PLAINFIELD ST'
p4837
I100
I17994
tp4838
sS'-1290; BLACKSTONE VALLEY THE ATTLEBOROS'
p4839
(S'BLACKSTONE PL'
p4840
I74
I15784
tp4841
sS'CLIFFORD,'
p4842
(S'CLIFFORD ST'
p4843
I100
I15811
tp4844
sS'-7400'
p4845
(g88
I29
I16874
tp4846
sS'CLIFFORD.'
p4847
(g4843
I100
I15811
tp4848
sS'& 10 266 CRANSTON'
p4849
(g795
I85
I15817
tp4850
sS'EDNA OFF 125 PLAINFIELD, DIRECTLY IN REAR OF FORMER LOCATION-NOW THE OLNEYVILLE EXPRESSWAY, TEIS ELMHURST 1-5100, 1-5101'
p4851
(g865
I58
I17994
tp4852
sS'AVENTINE AV'
p4853
(S'AVENTINE AVE'
p4854
I100
I16039
tp4855
sS'CHARLES R3'
p4856
(g1748
I91
I16096
tp4857
sS'CHARLES R5'
p4858
(g1748
I91
I16096
tp4859
sS'-414 PINE'
p4860
(g3662
I83
I15933
tp4861
sS'EDENDALE AVE'
p4862
(S'VERNDALE AVE'
p4863
I79
I16846
tp4864
sS'WESTMINSTER R333'
p4865
(g41
I90
I15991
tp4866
sS'WESTMINSTER R335'
p4867
(g41
I90
I15991
tp4868
sS'-6655 DEXTER'
p4869
(g35
I85
I17198
tp4870
sS'36 POCASSET AV'
p4871
(g945
I92
I17995
tp4872
sS'CUSTOMHOUSE R202'
p4873
(g154
I75
I15820
tp4874
sS'HOSPITAL TRUST BLDG 15 WESTMINSTER, TEL GASPEE 1-8666'
p4875
(g41
I67
I15991
tp4876
sS'SABIN 5TH'
p4877
(g1720
I85
I15950
tp4878
sS'WESTNHNSTER,'
p4879
(g427
I82
I15991
tp4880
sS'380 E LMW OOD AV'
p4881
(g1433
I70
I15833
tp4882
sS'-220 ACADEMY AV'
p4883
(g2785
I89
I17365
tp4884
sS'EXCHANGE PL R200'
p4885
(g61
I85
I15846
tp4886
sS'WEST PARK. 3.1511 GASPEE 1-2386'
p4887
(g201
I66
I15863
tp4888
sS'LOVELL AV, CRANSTON'
p4889
(g14
I81
I15817
tp4890
sS'464-66 BROAD'
p4891
(g300
I79
I15793
tp4892
sS'VANBURCN'
p4893
(S'VAN BUREN ST'
p4894
I72
I16844
tp4895
sS'7 9 PLAINFIE 1D'
p4896
(g865
I80
I17994
tp4897
sS'WESTMINSTER, R1215-16, TELS GASPEE 1-0824, 1-8234'
p4898
(g41
I69
I15991
tp4899
sS'WHITNEY'
p4900
(S'WHITNEY ST'
p4901
I100
I17356
tp4902
sS'OLIVE'
p4903
(S'OLIVE ST'
p4904
I100
I17061
tp4905
sS'RIGHT SIDEI LIXIES)'
p4906
(S'CITIZENS PLZ'
p4907
I48
I15808
tp4908
sS'HOYLE'
p4909
(g2331
I80
I16946
tp4910
sS"-32'59 TEX'NPLE 1-0678"
p4911
(S'NAPLES AVE'
p4912
I55
I17602
tp4913
sS'WASHINGTON'
p4914
(g970
I100
I15987
tp4915
sS"WESTMINSTER, PROVIDENCE, TEL ELMHURST 1-5800Z DOWNTOWN OFFICE 20 WESTMINSTER. MT PLEASANT OFFICE 1082 CHALKSTONE, SIX OTHER CONVENIENT COMMUNITY OFFICES IN EARRINGTON, CRANSTON, CENTREDALE, PAWTUCKET AND'GREENVILLE"
p4916
(g41
I55
I15991
tp4917
sS'STAMFORD'
p4918
(g2541
I100
I17330
tp4919
sS"WESTMIN'STER,"
p4920
(g41
I87
I15991
tp4921
sS'WHITMARSH'
p4922
(S'WHITMARSH ST'
p4923
I100
I17355
tp4924
sS'BERGEN'
p4925
(S'BERGEN ST'
p4926
I100
I17400
tp4927
sS'PARK'
p4928
(S'PARK ST'
p4929
I100
I16391
tp4930
sS'BROAD TEL STUART'
p4931
(g397
I60
I15963
tp4932
sS'SHEPARD'
p4933
(S'SHEPARD AV'
p4934
I100
I16449
tp4935
sS'KNIZHT ST'
p4936
(S'KNIGHT ST'
p4937
I86
I15890
tp4938
sS'MASON ST'
p4939
(S'MATSON AVE'
p4940
I91
I17953
tp4941
sS'WESTMINSTER. TEL GASPEE 1-1600'
p4942
(g41
I77
I15991
tp4943
sS'WEYBOSSET R905'
p4944
(g20
I89
I15992
tp4945
sS'CRAWFORD'
p4946
(g4728
I75
I15790
tp4947
sS'WEYBOSSET R903'
p4948
(g20
I89
I15992
tp4949
sS'WEYBOSSET R901'
p4950
(g20
I89
I15992
tp4951
sS'WEYBOSSET R304'
p4952
(g20
I89
I15992
tp4953
sS'; POCASSET AV'
p4954
(g4442
I100
I17995
tp4955
sS'WESTMINSTER ST, SUITE 830'
p4956
(g703
I81
I15991
tp4957
sS'GREENWICH'
p4958
(S'GREENWICH ST'
p4959
I100
I17220
tp4960
sS'-83 CARPENTER, TEL GASPEE 1-1025'
p4961
(g911
I73
I15801
tp4962
sS'WEYBOSSET R303'
p4963
(g20
I89
I15992
tp4964
sS'SPRING'
p4965
(S'SPRING ST'
p4966
I100
I16465
tp4967
sS'THURBERS AV'
p4968
(S'THURBERS AVE'
p4969
I100
I16839
tp4970
sS'DE FOE P1'
p4971
(S'DEFOE PL'
p4972
I78
I16941
tp4973
sS'PLAINFIELD, TELS ELMHURST 1-4900, 64901, 1-4902, 1-4903'
p4974
(g865
I66
I17994
tp4975
sS'SACKETT'
p4976
(S'SACKETT ST'
p4977
I100
I17314
tp4978
sS"LEFT TOP LINES) '"
p4979
(g2565
I61
I16885
tp4980
sS'STEWART'
p4981
(g397
I100
I15963
tp4982
sS'BROWN'
p4983
(g3928
I100
I16073
tp4984
sS'03 WESTMINS TER'
p4985
(g41
I84
I15991
tp4986
sS'EDDY R308'
p4987
(g623
I81
I15834
tp4988
sS'EDDY R307'
p4989
(g623
I81
I15834
tp4990
sS'GESLER'
p4991
(S'GESLER ST'
p4992
I100
I17864
tp4993
sS'LOMBARDI, TEL JACKSON 1-2253'
p4994
(S'LOMBARDI ST'
p4995
I73
I16290
tp4996
sS'GANO'
p4997
(S'GANO ST'
p4998
I100
I15861
tp4999
sS'TAN DRIVE'
p5000
(g2135
I71
I16541
tp5001
sS'BASSETT, TEL GASPEE 1-4600'
p5002
(g868
I72
I15777
tp5003
sS'OLNEYVILLE SQ R5-6'
p5004
(g252
I92
I17978
tp5005
sS'WESTMNSTER,. PROVIDENCE,'
p5006
(g427
I79
I15991
tp5007
sS'602 ELMWOOD AV'
p5008
(g746
I89
I17207
tp5009
sS'ATKINS'
p5010
(S'ATKINS ST'
p5011
I100
I17385
tp5012
sS'POINT'
p5013
(S'POINT ST'
p5014
I100
I15936
tp5015
sS'CHALKSTONE SIX OTHER CONVENIENT COMMUNITY OFFICES IN HARRINGTON CRANSTON CENTREDALE PAWTUCKET GREENVILLE'
p5016
(g233
I59
I17433
tp5017
sS'WESTIIINSTER,'
p5018
(g427
I87
I15991
tp5019
sS'; ATWELLS AV'
p5020
(g230
I100
I15775
tp5021
sS'RIVER AV,'
p5022
(g914
I100
I16423
tp5023
sS'HILLSIDE AV'
p5024
(S'HILLSIDE DR'
p5025
I100
I16235
tp5026
sS'970 WESTMINSTER'
p5027
(g41
I92
I15991
tp5028
sS'RIGHI TOP LINES)'
p5029
(g641
I61
I17781
tp5030
sS'A BROAD'
p5031
(g300
I91
I15793
tp5032
sS'DANA'
p5033
(S'DANA ST'
p5034
I100
I16940
tp5035
sS'APPLETON'
p5036
(S'APPLETON ST'
p5037
I100
I17749
tp5038
sS'WESVTMINSTER R907'
p5039
(g41
I87
I15991
tp5040
sS'DEANST'
p5041
(S'DEAN ST'
p5042
I80
I15825
tp5043
sS"POCAS*' SET AV"
p5044
(g4442
I85
I17995
tp5045
sS'WIASFNXINSTER ST'
p5046
(g703
I70
I15991
tp5047
sS'CHAPIN AV'
p5048
(g554
I100
I17800
tp5049
sS'WATERMANSTRM404'
p5050
(g71
I70
I15988
tp5051
sS'A N MAIN ST'
p5052
(g2109
I96
I15916
tp5053
sS'A ELMWOOD AV'
p5054
(g746
I94
I17207
tp5055
sS'DORRANCE R210'
p5056
(g789
I88
I15829
tp5057
sS"WA'YLAND AV"
p5058
(g151
I88
I17125
tp5059
sS"MASSASOIT AV, EAST PROVIDENCE , TELS EAST PROVIDENCE'1-3881, 1-2095"
p5060
(g133
I66
I17631
tp5061
sS'WATERMAN'
p5062
(g3171
I100
I15988
tp5063
sS'CABOT ST'
p5064
(S'TALBOT ST'
p5065
I77
I16485
tp5066
sS'ATWELLS AV, TEL GASPEE 1-2439'
p5067
(g230
I70
I15775
tp5068
sS'LILLIAN AV'
p5069
(S'LILLIAN ST'
p5070
I100
I16282
tp5071
sS'ERVING AV'
p5072
(S'IRVING ST'
p5073
I83
I16251
tp5074
sS'GEORGE MI. COHAN BLVD'
p5075
(g2273
I98
I15864
tp5076
sS'FENNQR'
p5077
(g3464
I83
I15849
tp5078
sS'ANGELL R520'
p5079
(g853
I85
I16022
tp5080
sS'BROAD R4-5'
p5081
(g300
I83
I15793
tp5082
sS'-5585, 1-5586, WIILIAMS 1-8714'
p5083
(g2701
I64
I15997
tp5084
sS'BROADWAY,'
p5085
(g3897
I100
I15794
tp5086
sS'WESTMINSTE R.'
p5087
(g427
I95
I15991
tp5088
sS'VALLEY,'
p5089
(S'VALLEY ST'
p5090
I100
I17693
tp5091
sS'BURRILL'
p5092
(S'RILL ST'
p5093
I73
I17646
tp5094
sS'CHAD BROWN'
p5095
(S'CHAD BROWN ST'
p5096
I100
I17432
tp5097
sS'CONGDON'
p5098
(S'CONGDON ST'
p5099
I100
I16932
tp5100
sS'BROADWAY SUITE G'
p5101
(g1077
I83
I15794
tp5102
sS'RIGHT'
p5103
(g641
I77
I17781
tp5104
sS'ELIZAST'
p5105
(S'ELIZA ST'
p5106
I83
I17843
tp5107
sS'HIGH, PAWTUCKET,'
p5108
(g494
I73
I16771
tp5109
sS'ELMWOOA AV'
p5110
(g746
I86
I17207
tp5111
sS'HIGH, PAWTUCKET.'
p5112
(g494
I73
I16771
tp5113
sS'BAINBRIDGE AV'
p5114
(S'BAINBRIDGE AVE'
p5115
I100
I17757
tp5116
sS'-8320'
p5117
(g126
I29
I16872
tp5118
sS'BALLO AV'
p5119
(g503
I80
I21740
tp5120
sS'29 LILY'
p5121
(g4170
I86
I15894
tp5122
sS'CRAN5 TON'
p5123
(g795
I72
I15817
tp5124
sS'SISSON'
p5125
(S'SISSON ST'
p5126
I100
I18042
tp5127
sS'RICHMOND SQ LS PLANTATIONS'
p5128
(g1110
I61
I15978
tp5129
sS'W CLIFFORD'
p5130
(S'WEST CLIFFORD ST'
p5131
I100
I17344
tp5132
sS'-5450; WASHINGTON'
p5133
(g970
I90
I15987
tp5134
sS'PAWTUCKET AV, PAWTUCKET'
p5135
(g494
I64
I16771
tp5136
sS'RIGHTIJF SME LINES)'
p5137
(g641
I54
I17781
tp5138
sS'WATE RMAN'
p5139
(g3171
I80
I15988
tp5140
sS'MANBON AVE'
p5141
(g805
I86
I17947
tp5142
sS'EDDY. TEL JACKSON'
p5143
(g353
I80
I16253
tp5144
sS'210 BROADWAY'
p5145
(g440
I90
I15794
tp5146
sS"-198'1"
p5147
(g82
I53
I15880
tp5148
sS'A CAMP'
p5149
(g722
I90
I16917
tp5150
sS'ELMWOOD AV, TEL STUART 1-4000'
p5151
(g746
I70
I17207
tp5152
sS'WESTMINSTER R1115'
p5153
(g41
I89
I15991
tp5154
sS'WESTMINSTER R1114'
p5155
(g41
I89
I15991
tp5156
sS'GLOBE'
p5157
(S'GLOBE ST'
p5158
I100
I15865
tp5159
sS'WESTMINSTER R1110'
p5160
(g41
I89
I15991
tp5161
sS"RESERVOIR AV. CRANSTON, TEL HOPKINS 1-9380'"
p5162
(g32
I68
I17303
tp5163
sS'ALDRICH'
p5164
(S'ALDRICH ST'
p5165
I100
I16559
tp5166
sS'CM NUT,'
p5167
(S'CONDUIT ST'
p5168
I61
I15814
tp5169
sS"DORRANCE' TEL GASPEE"
p5170
(g2482
I82
I15828
tp5171
sS'WESTMINSTER. TEL GASPEE'
p5172
(g41
I83
I15991
tp5173
sS'TAPPAN'
p5174
(S'TAPPAN ST'
p5175
I100
I17680
tp5176
sS'FRIENDSHIP,'
p5177
(S'FRIENDSHIP ST'
p5178
I100
I15858
tp5179
sS'ACADEMY AV'
p5180
(g2785
I100
I17365
tp5181
sS'WESTMINSTER, TEL GASPEE 1-6507'
p5182
(g41
I77
I15991
tp5183
sS'R EVNOLDS AV'
p5184
(g749
I81
I16791
tp5185
sS'RANDALL SQ SUITE 405'
p5186
(g1939
I83
I16416
tp5187
sS'CUSTOM HOUSE R504'
p5188
(g154
I91
I15820
tp5189
sS'CUSTOM HOUSE R506'
p5190
(g154
I91
I15820
tp5191
sS'OXFORD'
p5192
(g1502
I100
I16764
tp5193
sS'GEORGE'
p5194
(g3435
I100
I16670
tp5195
sS'CARLISS'
p5196
(S'CORLISS ST'
p5197
I86
I16123
tp5198
sS'PLAINFIELD PIKE'
p5199
(g391
I90
I17994
tp5200
sS'WESTMINSTER R1022'
p5201
(g41
I89
I15991
tp5202
sS'WESTMINSTER R1024'
p5203
(g41
I89
I15991
tp5204
sS'S ANGELL ST'
p5205
(g2373
I100
I17093
tp5206
sS'-6650'
p5207
(g52
I29
I15881
tp5208
sS'PLAINFIELD, IEL ELMHURST 1-5513'
p5209
(g865
I75
I17994
tp5210
sS'EXCHANGE.'
p5211
(g1068
I100
I15845
tp5212
sS'1 27 DORRANCE'
p5213
(g789
I88
I15829
tp5214
sS'UNION R508'
p5215
(g646
I83
I15977
tp5216
sS"'PARK AV, CRANSTON,"
p5217
(g14
I83
I15817
tp5218
sS'-3094'
p5219
(g52
I29
I15881
tp5220
sS'RESERVOIR AV. CRANSTON,'
p5221
(g2198
I80
I17303
tp5222
sS'BROADWAY REEVES JAMES A 1420 BROAD ST'
p5223
(g1077
I73
I15794
tp5224
sS'BACK COVER)'
p5225
(S'CLOVE ST'
p5226
I66
I17442
tp5227
sS'UNION R505'
p5228
(g646
I83
I15977
tp5229
sS'WESTMINSTER R506'
p5230
(g41
I90
I15991
tp5231
sS'UNIVERSITY AV'
p5232
(S'UNIVERSITY AVE'
p5233
I100
I17119
tp5234
sS'JACKSON, TEL DEXTER 1-6100'
p5235
(S'JACKSON WALKWAY'
p5236
I72
I15884
tp5237
sS'WESTMINSTER R502'
p5238
(g41
I90
I15991
tp5239
sS'DIXON'
p5240
(S'DIXON ST'
p5241
I100
I16147
tp5242
sS'BROADWAV'
p5243
(g440
I88
I15794
tp5244
sS'WESTMINSTER R406'
p5245
(g41
I90
I15991
tp5246
sS'BROADWAY'
p5247
(g440
I100
I15794
tp5248
sS'STANWOOD'
p5249
(g4311
I100
I17331
tp5250
sS'N COURT'
p5251
(S'NORTH ROME AVE'
p5252
I83
I16364
tp5253
sS'WESTMINSTER R508'
p5254
(g41
I90
I15991
tp5255
sS'WESTMINSTER R509'
p5256
(g41
I90
I15991
tp5257
sS'WINTHROP AV'
p5258
(S'WINTHROP AVE'
p5259
I100
I17720
tp5260
sS'ALLENS AV,'
p5261
(g775
I100
I15768
tp5262
sS') 401'
p5263
(S'1ST ST'
p5264
I33
I16871
tp5265
sS'MENTION AVE'
p5266
(g805
I81
I17947
tp5267
sS'HOPE; HOPKINS SQUARE; OLNEYVILLE SQUARE; WASHINGTON PARK'
p5268
(g252
I69
I17978
tp5269
sS'E LMW OOD AV'
p5270
(g1433
I75
I15833
tp5271
sS'JACKSORL'
p5272
(g353
I80
I16253
tp5273
sS'PARKJS AVE'
p5274
(S'PARKIS AVE'
p5275
I86
I17282
tp5276
sS'CRANSTON. ARLINGTON, TEIS ELMHURST 112107. 1-2108'
p5277
(g23
I66
I16892
tp5278
sS'MIDLAND MALL, WARWICK, TEL'
p5279
(g2843
I58
I17643
tp5280
sS'JOHNSTON R I'
p5281
(S'JOHNSON ST'
p5282
I83
I16707
tp5283
sS'-1445 OCEAN'
p5284
(g4186
I83
I16756
tp5285
sS'BURROWS'
p5286
(S'BURROWS ST'
p5287
I100
I17173
tp5288
sS'MASON'
p5289
(S'MATSON AVE'
p5290
I91
I17953
tp5291
sS'UNIT'
p5292
(S'UNIT ST'
p5293
I100
I18082
tp5294
sS'CLIFFORD'
p5295
(g3125
I100
I15811
tp5296
sS'2 79 PLAINFIE 1D'
p5297
(g865
I79
I17994
tp5298
sS'CUSTOM HOUSE R42, 43, 44,'
p5299
(g831
I85
I15820
tp5300
sS'& THURBERS AV'
p5301
(g4969
I100
I16839
tp5302
sS'LAURISTON'
p5303
(S'LAURISTON ST'
p5304
I100
I17020
tp5305
sS'RAILROAD WOONSOCKET. R1. TEL POPLAR'
p5306
(S'WOONASQUATUCKET AV'
p5307
I55
I18113
tp5308
sS'B BARNES ST'
p5309
(S'BARNES ST'
p5310
I95
I16898
tp5311
sS'HEALTH AV'
p5312
(S'HEALTH AVE'
p5313
I100
I17524
tp5314
sS'SUTTON. TEL UNION'
p5315
(g1210
I77
I15966
tp5316
sS'LEFT SIDE LILIES)'
p5317
(S'LESLIE DR'
p5318
I61
I17564
tp5319
sS'DE SOTO ST'
p5320
(S'DESOTO ST'
p5321
I87
I17823
tp5322
sS'ELMWOOD AV, SUITE 103'
p5323
(g3050
I76
I17207
tp5324
sS'WATERMAN ST.'
p5325
(g71
I100
I15988
tp5326
sS'N MAIN, "'
p5327
(g2538
I100
I15916
tp5328
sS'PINE AND'
p5329
(g3662
I83
I15933
tp5330
sS'WESTMINSTER. TEL UNION'
p5331
(g41
I84
I15991
tp5332
sS'ANSEL AV'
p5333
(g1811
I100
I17154
tp5334
sS'7 EXCHANGE R319'
p5335
(g61
I87
I15846
tp5336
sS'WESTMINSTER E I'
p5337
(g41
I88
I15991
tp5338
sS'MATHEWSON R2'
p5339
(g400
I93
I15904
tp5340
sS'ATWELIS AV, TEL GASPEE 1-2439'
p5341
(g230
I63
I15775
tp5342
sS'-4785'
p5343
(g52
I29
I15881
tp5344
sS'WESTMINSTER R816'
p5345
(g41
I90
I15991
tp5346
sS'LILY ST;'
p5347
(S'LILY ST'
p5348
I100
I15894
tp5349
sS'HOMSTEAD AV'
p5350
(g3448
I94
I17234
tp5351
sS'MAPLE , PAWTUCKET, TEL PAWTUCKET 5-5600'
p5352
(g383
I57
I16771
tp5353
sS"-7562'"
p5354
(g52
I29
I15881
tp5355
sS'LEFT BOTTOM LINES FRONT COVER) CHEESE MANUFACTURERS'
p5356
(g1198
I47
I16308
tp5357
sS'PARK LA'
p5358
(S'PARK LANE'
p5359
I94
I17281
tp5360
sS'EXCHANGE'
p5361
(g3210
I100
I15845
tp5362
sS'BROOK, TEL DEXTER 1-8020'
p5363
(g35
I70
I17198
tp5364
sS'OLNEY ST.'
p5365
(S'OLNEY ST'
p5366
I100
I16377
tp5367
sS'FOUNTAIN TEL DEXTER'
p5368
(g257
I79
I15853
tp5369
sS'PARKIS AV'
p5370
(S'PARKIS AVE'
p5371
I100
I17282
tp5372
sS"6-1218 BR'OAD"
p5373
(g4723
I37
I16869
tp5374
sS'CANAL.'
p5375
(g3817
I100
I15798
tp5376
sS'; HUDSON CO'
p5377
(g1814
I90
I17903
tp5378
sS"BRANCH AV; FUNERAL HOME '971 BRANCH AV,"
p5379
(S'MINERAL SPRING AV'
p5380
I56
I16343
tp5381
sS'DOWNING'
p5382
(g3665
I100
I17202
tp5383
sS'OLNEYVILLE SQ R10'
p5384
(g252
I93
I17978
tp5385
sS'RANDALL'
p5386
(g1960
I100
I16415
tp5387
sS'A WESTMINSTER ST'
p5388
(g703
I96
I15991
tp5389
sS'WASH R401'
p5390
(g859
I81
I21700
tp5391
sS'A SMITH ST'
p5392
(g4694
I94
I16457
tp5393
sS'G ELMWOOD AV'
p5394
(g746
I94
I17207
tp5395
sS'CHALKSTONE SIX OTHER CONVENIENT COMMUNITY OFFICES IN EARRINGTON CRANSTON CENTREDALE PAWTUCKET GREENVILLE)'
p5396
(g233
I59
I17433
tp5397
sS'-90 DUDLEY TEL DEXTER'
p5398
(g1129
I73
I15830
tp5399
sS'ETHAN'
p5400
(S'ETHAN ST'
p5401
I100
I17847
tp5402
sS'CRARYST'
p5403
(g4594
I83
I15818
tp5404
sS'POND'
p5405
(g695
I100
I15937
tp5406
sS'S ESSIODS'
p5407
(S'SESSIONS ST'
p5408
I73
I17098
tp5409
sS'JACKSON R207-8'
p5410
(g353
I83
I16253
tp5411
sS"LEFT SIDE LINES) '"
p5412
(g2394
I61
I16963
tp5413
sS'ABBOTT PARK P1'
p5414
(g2751
I96
I15762
tp5415
sS'GAY'
p5416
(S'GAY ST'
p5417
I100
I16669
tp5418
sS'INDIA'
p5419
(S'INDIA ST'
p5420
I100
I15883
tp5421
sS'E E LMW OOD AV'
p5422
(g3036
I69
I15833
tp5423
sS'VIRGINIA AV,'
p5424
(g2546
I100
I16849
tp5425
sS'N ORTHUP AV'
p5426
(S'NORTHUP AVE'
p5427
I83
I16365
tp5428
sS'CARPENTER U'
p5429
(g911
I95
I15801
tp5430
sS'EDDY R208'
p5431
(g623
I81
I15834
tp5432
sS'PONAGANSETT AV'
p5433
(S'PONAGANSETT AVE'
p5434
I100
I17997
tp5435
sS"ALLEN'S'AV"
p5436
(g11
I81
I15768
tp5437
sS'WEYBOSSET HILL 5TH FL'
p5438
(g58
I80
I15992
tp5439
sS'-158 PINE'
p5440
(g3662
I83
I15933
tp5441
sS'WESTMINSTER MALL'
p5442
(g703
I90
I15991
tp5443
sS'830 WESTMINS TER'
p5444
(g41
I82
I15991
tp5445
sS'BENEFIT,'
p5446
(S'BENEFIT ST'
p5447
I100
I15781
tp5448
sS'WEST EXCHANGE, 5TH FLOOR, TEL DEXTER 1-6241'
p5449
(g373
I74
I15982
tp5450
sS'BROAD R3'
p5451
(g300
I88
I15793
tp5452
sS'ELMWOOD AV.'
p5453
(g1478
I100
I17207
tp5454
sS'VERNDALE AV'
p5455
(S'VERNDALE AVE'
p5456
I100
I16846
tp5457
sS'BROAD R9'
p5458
(g300
I88
I15793
tp5459
sS'ELMWOOD AV;'
p5460
(g746
I100
I17207
tp5461
sS'; PRAIRIE AV'
p5462
(g1318
I100
I16787
tp5463
sS'LEFT TOP UNES)'
p5464
(S'SEFTON DR'
p5465
I56
I16814
tp5466
sS'INC, 175 PAWTUCKET AV'
p5467
(g383
I73
I16771
tp5468
sS'WEVBOSSET R3'
p5469
(g20
I82
I15992
tp5470
sS"PLAINL'LELD ST"
p5471
(S'PLAIN ST'
p5472
I82
I15934
tp5473
sS'WEYBFBSET. TEL GASPEE'
p5474
(g20
I63
I15992
tp5475
sS"WEST EXCHANGE TEL GA'SPEE"
p5476
(g373
I84
I15982
tp5477
sS'DEAN'
p5478
(S'DEAN ST'
p5479
I100
I15825
tp5480
sS'-232 UNION AV'
p5481
(S'UNION AV'
p5482
I90
I18080
tp5483
sS'-9609'
p5484
(g52
I29
I15881
tp5485
sS'-0788'
p5486
(g3426
I29
I16877
tp5487
sS'SPRUCE'
p5488
(S'SPRUCE ST'
p5489
I100
I15961
tp5490
sS'RAILROAD'
p5491
(S'RAILROAD TERR'
p5492
I88
I15943
tp5493
sS'ADELAIDE'
p5494
(g3139
I100
I17148
tp5495
sS'-337 PRAIRIE AV'
p5496
(g2047
I89
I16787
tp5497
sS'BACKBONE)'
p5498
(S'BLACKSTONE ST'
p5499
I78
I15785
tp5500
sS'GEORGIA AV, TEL HOPKINS 1-2730'
p5501
(g1481
I69
I16671
tp5502
sS'BFANCH AV'
p5503
(g4125
I83
I16067
tp5504
sS'ARLINGTON AV'
p5505
(S'ARLINGTON AVE'
p5506
I100
I16892
tp5507
sS'& DEXTER'
p5508
(g35
I100
I17198
tp5509
sS'THOMAS OLNEY COMMON'
p5510
(S'THOMAS OLNEY COMMON ST'
p5511
I100
I17113
tp5512
sS'CLORANE'
p5513
(S'LORRAINE AVE'
p5514
I80
I17030
tp5515
sS'NARRAGANSETT AV, TEL HOPKINS 1-1420'
p5516
(S'NARRAGANSETT PKWY'
p5517
I79
I16746
tp5518
sS'WESTMINSTER R49'
p5519
(g41
I92
I15991
tp5520
sS'WESTMINSTER R43'
p5521
(g41
I92
I15991
tp5522
sS'WESTMINSTER R40'
p5523
(g41
I92
I15991
tp5524
sS'STOKES'
p5525
(S'STOKES ST'
p5526
I100
I18058
tp5527
sS'WESTMINSTER R1109'
p5528
(g41
I89
I15991
tp5529
sS'WESTMINSTER R1107'
p5530
(g41
I89
I15991
tp5531
sS'WESTMINSTER R1104'
p5532
(g41
I89
I15991
tp5533
sS'-0490'
p5534
(g52
I29
I15881
tp5535
sS'WESTMINSTER R1102'
p5536
(g41
I89
I15991
tp5537
sS'-0824 1-8234'
p5538
(S'12TH ST'
p5539
I26
I16870
tp5540
sS'& BROADWAGR'
p5541
(g440
I82
I15794
tp5542
sS'MANTOU AVE'
p5543
(g805
I86
I17947
tp5544
sS'-264 WEYBOSSET,'
p5545
(g295
I91
I15992
tp5546
sS'E TRANSIT'
p5547
(S'EAST TRANSIT ST'
p5548
I100
I16954
tp5549
sS'-9776'
p5550
(g52
I29
I15881
tp5551
sS"STEI'ENS"
p5552
(S'STERLING AVE'
p5553
I65
I18055
tp5554
sS'-0476 AND GASPEE'
p5555
(g1037
I78
I15863
tp5556
sS'BATH'
p5557
(S'BATH ST'
p5558
I100
I17396
tp5559
sS'FOUNTAIN V'
p5560
(g257
I94
I15853
tp5561
sS'WESTMINSTER R933'
p5562
(g41
I90
I15991
tp5563
sS'K THAYER ST'
p5564
(S'THAYER ST'
p5565
I95
I17112
tp5566
sS'-6062'
p5567
(g126
I29
I16872
tp5568
sS'DANIEL AV'
p5569
(S'DANIEL AVE'
p5570
I100
I17817
tp5571
sS"; BILL'S DINER 705I CRANSTON"
p5572
(g795
I71
I15817
tp5573
sS'R18'
p5574
(S'CYR ST'
p5575
I33
I16634
tp5576
sS'PAWTUCKET AV, EAST PROVIDENCE,'
p5577
(g736
I76
I17299
tp5578
sS'PAWTUCKET AV, EAST PROVIDENCE.'
p5579
(g736
I76
I17299
tp5580
sS'38 DIKE LST FL'
p5581
(g1168
I72
I17827
tp5582
sS'610 PLAINFIELD'
p5583
(g865
I91
I17994
tp5584
sS'-7112 R-IDENCE TELEPHONE 351-6682'
p5585
(g1003
I48
I16474
tp5586
sS'CRANSTON,'
p5587
(g14
I100
I15817
tp5588
sS'CRARV'
p5589
(g1903
I80
I15818
tp5590
sS'WOMENS AUXILIARY 176 BENEFIT'
p5591
(S'HILARY DR'
p5592
I48
I17529
tp5593
sS"POTTE'R'S AV"
p5594
(g3887
I77
I17294
tp5595
sS'BLACKSTONE'
p5596
(g5499
I100
I15785
tp5597
sS'CHAPMAN'
p5598
(S'CHAPMAN ST'
p5599
I100
I16617
tp5600
sS'HILLSIDE RD,'
p5601
(g2161
I100
I16235
tp5602
sS'WESTMINSTER R519'
p5603
(g41
I90
I15991
tp5604
sS'WESTMINSTER R511'
p5605
(g41
I90
I15991
tp5606
sS'WESTMINSTER R510'
p5607
(g41
I90
I15991
tp5608
sS'WESTMINSTER R512'
p5609
(g41
I90
I15991
tp5610
sS'WESTMINSTER R515'
p5611
(g41
I90
I15991
tp5612
sS'WESTMINSTER R514'
p5613
(g41
I90
I15991
tp5614
sS'WESTMINSTER R517'
p5615
(g41
I90
I15991
tp5616
sS'WESTMINSTER R516'
p5617
(g41
I90
I15991
tp5618
sS'RIGHT BOTTOM NAPS)'
p5619
(g1562
I56
I15762
tp5620
sS'PARSONAGE'
p5621
(S'PARSONAGE ST'
p5622
I100
I15927
tp5623
sS'PONTIAC AV'
p5624
(g692
I100
I17292
tp5625
sS'OLNEYVILLE SQ R4'
p5626
(g252
I95
I17978
tp5627
sS'PITMAN, TELS UNION 1-3960, 1-3961'
p5628
(g2360
I66
I17073
tp5629
sS'-85 WESTMINSTER R25'
p5630
(g41
I88
I15991
tp5631
sS'EXCHANGE TEL GASPEE'
p5632
(g61
I85
I15846
tp5633
sS'-9870'
p5634
(g52
I29
I15881
tp5635
sS'WESTMINSTER 4THF1'
p5636
(g41
I89
I15991
tp5637
sS'WEYBOMT ST'
p5638
(g58
I78
I15992
tp5639
sS'SNOW R207'
p5640
(g2900
I81
I15957
tp5641
sS'EMPIRE R301'
p5642
(g238
I85
I15840
tp5643
sS'NINIGRET AV'
p5644
(S'NINIGRET AVE'
p5645
I100
I17275
tp5646
sS'SPRAGUE'
p5647
(S'SPRAGUE ST'
p5648
I100
I17327
tp5649
sS'CROSS'
p5650
(S'CROSS ST'
p5651
I100
I16129
tp5652
sS'W EXCHANGE, TEL DEXTER 1-5800'
p5653
(g373
I79
I15982
tp5654
sS'345 CANAL'
p5655
(g2223
I85
I15798
tp5656
sS'PRAIR IE AV'
p5657
(g2047
I88
I16787
tp5658
sS'BATTEY'
p5659
(g1967
I100
I15778
tp5660
sS'LYNDHURST AV'
p5661
(S'LYNDHURST AVE'
p5662
I100
I17581
tp5663
sS'ATWELLS AV'
p5664
(g230
I100
I15775
tp5665
sS'ATWEUS AV'
p5666
(g230
I77
I15775
tp5667
sS'-7333'
p5668
(g1795
I29
I16873
tp5669
sS'70 WESTMINSTER R503'
p5670
(g41
I86
I15991
tp5671
sS'-243 WESTMINSTER, TEL GASPEE 1-4900'
p5672
(g41
I75
I15991
tp5673
sS'POCASSET'
p5674
(g945
I100
I17995
tp5675
sS'WESTMINSTER R337'
p5676
(g41
I90
I15991
tp5677
sS'RIGHT TOP LINES RIGHT SIDE LINES)'
p5678
(g641
I56
I17781
tp5679
sS'ALIENS AVE'
p5680
(S'ALLENS AVE'
p5681
I86
I15768
tp5682
sS"ABOR'N"
p5683
(S'NORTH CT'
p5684
I83
I15918
tp5685
sS'RANDALL SQ SUITE 407'
p5686
(g1939
I83
I16416
tp5687
sS'KENNEDY PLAZA'
p5688
(S'KENNEDY PLZ'
p5689
I96
I15887
tp5690
sS'RANDALL SQ SUITE 402'
p5691
(g1939
I83
I16416
tp5692
sS'RANDALL SQ SUITE 401'
p5693
(g1939
I83
I16416
tp5694
sS'-4795'
p5695
(g52
I58
I15881
tp5696
sS'RANDALL SQ SUITE 408'
p5697
(g1939
I83
I16416
tp5698
sS'RANDALL SQ SUITE 409'
p5699
(g1939
I83
I16416
tp5700
sS'RESERVOIR AV, CRANSTON TEL HOPKINS 1-9380'
p5701
(g32
I68
I17303
tp5702
sS'KNIGHT'
p5703
(g500
I100
I15890
tp5704
sS'-219 RICHMOND'
p5705
(g1334
I90
I15946
tp5706
sS'& WILLARD AV'
p5707
(g1444
I100
I16545
tp5708
sS'DORRANCE SUITE 300'
p5709
(g4314
I81
I15829
tp5710
sS'DALE'
p5711
(S'DALE ST'
p5712
I100
I17816
tp5713
sS'CRANSTON, CRANSTON, RI, TEL UNION 1-0215'
p5714
(g795
I68
I15817
tp5715
sS"MAJ'N ST"
p5716
(S'NORTH CT'
p5717
I85
I15918
tp5718
sS'SOCKANOSSET CROSS RD'
p5719
(g2532
I65
I17995
tp5720
sS'AURORA'
p5721
(S'AURORA AV'
p5722
I100
I16570
tp5723
sS'STATE'
p5724
(S'STATE ST'
p5725
I100
I17672
tp5726
sS'DORRANCE'
p5727
(g789
I100
I15829
tp5728
sS"KINSLEY AV, TEL GASPEE 1-5065; QUARRY DIVISION, FIRST STREET, BERKELEY, RI, TEL PAWTUCK'ET 3-3300"
p5729
(g4130
I58
I17828
tp5730
sS'WESTMINSTER TEL JACKSON'
p5731
(g41
I82
I15991
tp5732
sS'RANKIN AV'
p5733
(S'RANKIN AVE'
p5734
I100
I17636
tp5735
sS'CVARRINGTON AV'
p5736
(S'CARRINGTON AVE'
p5737
I95
I16918
tp5738
sS'FRUIT HILL AV'
p5739
(S'FRUIT HILL AVE'
p5740
I100
I16192
tp5741
sS'-8094.'
p5742
(g52
I29
I15881
tp5743
sS'DRYDEN 1A'
p5744
(g29
I90
I16156
tp5745
sS'-0476 GASPEE 1-7376'
p5746
(g201
I75
I15863
tp5747
sS'COUNTY ROAD'
p5748
(S'COUNTY ST'
p5749
I85
I16126
tp5750
sS'-45 SEEKONK'
p5751
(g3738
I91
I17097
tp5752
sS'POMFRET ST'
p5753
(S'SOMERSET ST'
p5754
I71
I17325
tp5755
sS'WESTMINSTER R727.'
p5756
(g427
I90
I15991
tp5757
sS'FOREST'
p5758
(S'FOREST ST'
p5759
I100
I16972
tp5760
sS'WEYBOSSET R57'
p5761
(g20
I91
I15992
tp5762
sS'PINE. TEL UNION 1-1000'
p5763
(g646
I69
I15977
tp5764
sS'WADSWORTH'
p5765
(S'WADSWORTH ST'
p5766
I100
I17346
tp5767
sS'EMEOOD AV'
p5768
(g746
I77
I17207
tp5769
sS'WESTMINSTER R6 04'
p5770
(g41
I89
I15991
tp5771
sS'WESTMINSTER R6 05'
p5772
(g41
I89
I15991
tp5773
sS"LEFT TOP '1INES)"
p5774
(g3662
I55
I15933
tp5775
sS'WARREN AV, EAST PROVIDENCE, TELS GENEVA 4-0570. 4-0571'
p5776
(g133
I69
I17631
tp5777
sS'MOULTON ST'
p5778
(S'MOULTON LN'
p5779
I100
I15913
tp5780
sS'CHALKSTONE'
p5781
(g233
I100
I17433
tp5782
sS'-12 ARCADE'
p5783
(g2426
I90
I15773
tp5784
sS'CO MAIN OFFICE'
p5785
(S'POST OFFICE CT'
p5786
I82
I15938
tp5787
sS'NORWICH AV'
p5788
(S'NORWICH AVE'
p5789
I100
I16753
tp5790
sS'EXCHANGE. TEL GASPEE 1-1860'
p5791
(g61
I79
I15846
tp5792
sS'MELROSE, TEL STUART 1-9400'
p5793
(g4473
I72
I17263
tp5794
sS'BROAD 1ST'
p5795
(g973
I85
I15793
tp5796
sS'-264 WEYBOSSET, TEIS GASPIAE 1-8200, 1-8201'
p5797
(g20
I68
I15992
tp5798
sS'BENEDICT'
p5799
(g3385
I100
I16053
tp5800
sS'WAYLAND AV'
p5801
(g3686
I100
I17125
tp5802
s.