(dp0
S'ORMS'
p1
(S'ORMS ST'
p2
I86
I16384
tp3
sS"CHAIN CO 144 PINT'A 4TH FL"
p4
(S'CHAPIN AVE'
p5
I67
I17800
tp6
sS'POTTER1S AV'
p7
(S'POTTERS AVE'
p8
I92
I16786
tp9
sS'BWAY RM'
p10
(S'BAY ST'
p11
I74
I16580
tp12
sS'WESTMINSTEF RM'
p13
(S'WESTMINSTER ST'
p14
I85
I15991
tp15
sS"MAIN PAWTUCKET TELS PERRY 0080-F0R FUR- THER INFORMATION SEE PAGE 112 BUY- ERS' GUIDE"
p16
(S'NORMAN DR'
p17
I44
I16362
tp18
sS'EDDY 2D 11'
p19
(S'EDDY ST'
p20
I79
I15834
tp21
sS'01- NEYVILLE SQ'
p22
(S'OLNEYVILLE SQ'
p23
I85
I17978
tp24
sS'POWER'
p25
(S'POWER ST'
p26
I88
I15939
tp27
sS'21 EDDY'
p28
(g20
I78
I15834
tp29
sS'EXCHANGE PL AND SNOW COR CHAPEL'
p30
(S'EXCHANGE ST'
p31
I74
I15845
tp32
sS"WESTMINSTER TELS GAS- PEE 8666-8667-FOR FURTHER INFORMA- TION SEE PAGE 93 BUYERS' GUIDE"
p33
(g14
I64
I15991
tp34
sS'CHARLES BICYCLES DEALERS-WHOLESALE'
p35
(S'LESLIE DR'
p36
I52
I17564
tp37
sS'ACADE- MY AV'
p38
(S'ACADEMY AVE'
p39
I87
I17365
tp40
sS'OLNE1'
p41
(S'OLNEY ST'
p42
I71
I16377
tp43
sS'WAVERLY'
p44
(S'WAVERLY ST'
p45
I91
I17351
tp46
sS'HOPE  NOVELTIES-MIRS'
p47
(S'NELLIE ST'
p48
I58
I16355
tp49
sS'THE 1226 N MAIN'
p50
(S'N MAIN ST'
p51
I81
I15916
tp52
sS'PORTLAND'
p53
(S'PORTLAND ST'
p54
I92
I17293
tp55
sS'MATH- EWSON'
p56
(S'MATHEWSON ST'
p57
I76
I15904
tp58
sS'-222 ATWELLS AV'
p59
(S'ATWELLS AVE'
p60
I90
I15775
tp61
sS'HONE'
p62
(S'THORNE ST'
p63
I71
I17682
tp64
sS'11 HIGH, PAWTUCKET'
p65
(S'PAWTUXET AV'
p66
I66
I16771
tp67
sS'MATHEWSON 11'
p68
(S'MATHEWSON ST'
p69
I91
I15904
tp70
sS'LAURIS- TON'
p71
(S'LAURISTON ST'
p72
I81
I17020
tp73
sS'ACADEMY A'
p74
(S'ACADEMY AVE'
p75
I95
I17365
tp76
sS'CHESTNUT TELS GASPEE 4439-4440'
p77
(S'CHESTNUT ST'
p78
I74
I15807
tp79
sS'HAROLD'
p80
(S'ARGOL ST'
p81
I65
I6657
tp82
sS'REGENT AV'
p83
(S'REGENT AVE'
p84
I97
I17642
tp85
sS'PARADE'
p86
(S'PARADE ST'
p87
I90
I17278
tp88
sS'618-622 WESTMINSTER'
p89
(S'WESTMINSTER ST'
p90
I83
I15991
tp91
sS'SEEKELL'
p92
(S'STOCKWELL ST'
p93
I58
I18057
tp94
sS'BLACKSTONE BLVD'
p95
(S'BLACKSTONE AVE'
p96
I91
I6686
tp97
sS'BUYERS1 GUIDE'
p98
(S'BUTLER DR'
p99
I58
I16916
tp100
sS'160 DOR- RANCE AND 76-78 WEYBOSSET'
p101
(S'WEYBOSSET ST'
p102
I70
I15992
tp103
sS"OFFICE 526 POWER RD 'FACTORY 310 OWEN AV"
p104
(S'OBSERVATORY AVE'
p105
I48
I17058
tp106
sS'0 WESTMINSTER'
p107
(g14
I90
I15991
tp108
sS'BARNES'
p109
(S'BARNES ST'
p110
I90
I16898
tp111
sS'BROAD ELDGEWOOD TEL'
p112
(S'EDGEWOOD AVE'
p113
I79
I16651
tp114
sS'DORRANCE CORNER WESTMINSTER'
p115
(g14
I77
I15991
tp116
sS'WINTER .'
p117
(S'WINTER ST'
p118
I90
I15999
tp119
sS'BASSETT'
p120
(S'BASSETT ST'
p121
I91
I15777
tp122
sS'JACKSON'
p123
(S'JACKSON ST'
p124
I91
I16253
tp125
sS'ANDEM'
p126
(S'ANDEM ST'
p127
I88
I17376
tp128
sS'206 WASHINGTON COR EMPIRE'
p129
(S'WASHINGTON PL'
p130
I81
I15986
tp131
sS'PROGRESS. AV'
p132
(S'PROGRESS AVE'
p133
I98
I18001
tp134
sS'WARREN'
p135
(S'WARREN WY'
p136
I90
I16851
tp137
sS'KENWOOD'
p138
(S'KENWOOD ST'
p139
I91
I17240
tp140
sS'NEW YORK OFFICE 354 FOURTH AV'
p141
(S'POST OFFICE CT'
p142
I73
I15938
tp143
sS'MCDONOUGH'
p144
(S'MARLBOROUGH AVE'
p145
I55
I17259
tp146
sS'WESTMINSTER,'
p147
(g14
I94
I15991
tp148
sS'BEANIT'
p149
(S'BENEFIT ST'
p150
I70
I15781
tp151
sS'WESTMINSTER)'
p152
(g14
I94
I15991
tp153
sS"' HAROLD"
p154
(S'HAROLD ST'
p155
I90
I17519
tp156
sS'RESERVOIR AV'
p157
(S'RESERVOIR AVE'
p158
I98
I17303
tp159
sS'BROAD- WAY'
p160
(S'BROAD ST'
p161
I85
I15793
tp162
sS'WILLARD A'
p163
(S'WILLARD AVE'
p164
I95
I16863
tp165
sS') BROAD'
p166
(S'BROAD ST'
p167
I88
I15793
tp168
sS'DABOLL'
p169
(S'DABOLL ST'
p170
I90
I17191
tp171
sS'MARIETTA'
p172
(S'MARIETTA ST'
p173
I92
I16314
tp174
sS'INC 150452 DOR- RANCE TELS GASPEE 6682-3-F0R FUR- THER INFORMATION SEE PAGE 79 BUYERY GUIDE AND LEFT BOTTOM LINES'
p175
(S'NORMAN DR'
p176
I42
I16362
tp177
sS'FRANK. LIN'
p178
(S'FRANK ST'
p179
I85
I15855
tp180
sS'WESTMINSTER .'
p181
(g90
I94
I15991
tp182
sS'AND 6698-FOR FURTHER INFORMATION SEE PAGE 138 BUYERS, GUIDE'
p183
(g176
I47
I16362
tp184
sS'WESTMINSTER ,'
p185
(g14
I94
I15991
tp186
sS'UPDIKE'
p187
(S'UPDIKE ST'
p188
I90
I17342
tp189
sS'VERMONT AV'
p190
(S'VERMONT AVE'
p191
I97
I16845
tp192
sS"TELS GASPEE 6964-6965-F'0R FUR- THER INFORMATION SEE PAGE 80 BUYERS' GUIDE"
p193
(g17
I45
I16362
tp194
sS"'CHARLES"
p195
(S'CHARLES ST'
p196
I91
I16096
tp197
sS'SILVER SPRING TELS GASPEE 2887 AND DEXTER 7724-FOR FURTHER INFORMATION SEE PAGE 44 BUYERS4 GUIDE'
p198
(g17
I43
I16362
tp199
sS"WEYBOSSET YARD 500 ALLEN'S AV"
p200
(g102
I76
I15992
tp201
sS'VIOLA'
p202
(S'VIOLA ST'
p203
I88
I18091
tp204
sS'PLEAS- ANT'
p205
(S'PLEASANT AV'
p206
I78
I16399
tp207
sS'MATHEW- SON'
p208
(S'MATTHEW ST'
p209
I86
I17587
tp210
sS"WESTMINSTER RM'- 905-"
p211
(g90
I87
I15991
tp212
sS'STERLING AV'
p213
(S'STERLING AVE'
p214
I98
I18055
tp215
sS'GARNET 7TH FL'
p216
(S'GARNET ST'
p217
I86
I15862
tp218
sS'SMITH-'
p219
(S'SMITH ST'
p220
I88
I16457
tp221
sS'IVES'
p222
(S'IVES ST'
p223
I86
I17007
tp224
sS'S ANGELL AND 136 AND 160 WESTMINSTER'
p225
(g90
I70
I15991
tp226
sS'MILL CRANSTON R I'
p227
(S'CRANSTON ST'
p228
I82
I15817
tp229
sS'ELLERY'
p230
(S'ELLERY ST'
p231
I90
I17844
tp232
sS'AF OF L 511 WESTMINSTER'
p233
(g90
I79
I15991
tp234
sS'RINGGOLD'
p235
(S'RINGGOLD ST'
p236
I92
I15947
tp237
sS'DUKE'
p238
(S'DUKE ST'
p239
I86
I17475
tp240
sS'S ANGELI'
p241
(S'S ANGELL ST'
p242
I82
I17093
tp243
sS'-631 ATWELLS AV'
p244
(g60
I90
I15775
tp245
sS'MEDICAL SOCIETY LIBRARY 106 FRAN- CIS'
p246
(S'AMERICA ST'
p247
I53
I15770
tp248
sS"EXCHANGE 'RM 311 ALICE BUSINESS SERVICE 236 WESTMINSTER"
p249
(g90
I66
I15991
tp250
sS'THE 62 PAGE 4TH 11'
p251
(S'PAGE ST'
p252
I74
I15923
tp253
sS'BOGMAN'
p254
(S'BOGMAN ST'
p255
I90
I16597
tp256
sS'-543 ELMWOOD AV'
p257
(S'ELMWOOD AVE'
p258
I90
I17207
tp259
sS'ARMINGTON AV'
p260
(S'ARMINGTON AVE'
p261
I98
I17384
tp262
sS'ASHBURTON'
p263
(S'ASHBURTON ST'
p264
I93
I16032
tp265
sS'N MAIN 1ST FL'
p266
(g51
I93
I15916
tp267
sS"'FRIENDSHIP"
p268
(S'FRIENDSHIP ST'
p269
I93
I15858
tp270
sS'CEDAR A ABORN'
p271
(S'CEDAR LN'
p272
I83
I16093
tp273
sS'CANDACE'
p274
(S'CANDACE ST'
p275
I91
I17422
tp276
sS'LEDGE AND 6035 CHARLES'
p277
(g196
I72
I16096
tp278
sS'ACORN'
p279
(S'ACORN ST'
p280
I88
I15764
tp281
sS'WESTMIN- STER.'
p282
(g90
I81
I15991
tp283
sS"BROAD'"
p284
(g167
I88
I15793
tp285
sS"HOPE TELS DEXTER 8094-8095 RES TELS GASPEE 6655, DEXTER 8638-FOR FURTHER INFORMATION SEE PAGES 71 AND 126 BUYERS' GUIDE AND LEFT TON LINES"
p286
(g176
I41
I16362
tp287
sS'ASH- BURTON AND 168 ELMWOOD AV'
p288
(g258
I75
I17207
tp289
sS'FORD'
p290
(S'FORD ST'
p291
I86
I17212
tp292
sS'SANSOUCI'
p293
(S'SAN SOUCI DR'
p294
I78
I18028
tp295
sS'CRANSTON CRANSTON RI'
p296
(S'CRANSTON ST'
p297
I85
I15817
tp298
sS'ORANGE AND 61 PECK'
p299
(S'ORANGE ST'
p300
I76
I15921
tp301
sS'ROSEDALE'
p302
(S'ROSEDALE ST'
p303
I92
I18017
tp304
sS'SALEM'
p305
(S'SALEM DR'
p306
I88
I16442
tp307
sS'BWAY AND'
p308
(g11
I71
I16580
tp309
sS"BUYERS' GUIDE AND RIGHT TOP LINES"
p310
(S'BURRS LN'
p311
I54
I16076
tp312
sS'LENOX AV'
p313
(S'LENOX AVE'
p314
I97
I17244
tp315
sS'AND 275 W EX- CHANGE'
p316
(S'W EXCHANGE ST'
p317
I77
I15982
tp318
sS'STATE DEPT OF HEALTH 364 STATE OF- FICE BLDG'
p319
(S'HEALTH AVE'
p320
I67
I17524
tp321
sS'ALLEYS AV'
p322
(S'ALLENS AVE'
p323
I83
I15768
tp324
sS'RICHMOND 4TH FL'
p325
(S'RICHMOND ST'
p326
I88
I15946
tp327
sS'KNIGHT W'
p328
(S'KNIGHT ST'
p329
I95
I15890
tp330
sS'111 WESTMINSTER'
p331
(g14
I88
I15991
tp332
sS'FRIEND- SHIP'
p333
(g269
I79
I15858
tp334
sS'- DORRANCE'
p335
(S'DORRANCE ST'
p336
I92
I15829
tp337
sS'SOUTH MAIN TELS GASPEE 1322-1323- FOR FURTHER INFORMATION SEE PAGE 65 BUYERS, GUIDE'
p338
(g17
I44
I16362
tp339
sS'AT- LANTIC AV'
p340
(S'ATLANTIC AVE'
p341
I89
I16035
tp342
sS'CALHOUN AV'
p343
(S'CALHOUN AVE'
p344
I97
I17176
tp345
sS'ADE- LAIDE AV'
p346
(S'ADELAIDE AVE'
p347
I84
I17148
tp348
sS'I- ALLEN6S AV'
p349
(g323
I87
I15768
tp350
sS'JOB'
p351
(S'JOB ST'
p352
I83
I16257
tp353
sS'STJAMES'
p354
(S'ST JAMES CT'
p355
I80
I16468
tp356
sS'LYMAH'
p357
(S'LYMAN ST'
p358
I71
I15897
tp359
sS"HIGH, PAWTUCKET TELS PERRY 2400 AND GASPEE 4148-FOR FURTHER INFORMA- TION SEE PAGE 118 BUYERS' GUIDE"
p360
(S'PAWTUXET AVE'
p361
I50
I16772
tp362
sS'LYMAN'
p363
(S'LYMAN ST'
p364
I88
I15897
tp365
sS'MINER'
p366
(S'MINER ST'
p367
I88
I16342
tp368
sS'CHEST- NUT 2D FL'
p369
(S'CHESTNUT ST'
p370
I73
I15807
tp371
sS'COMMER- CIAL EDGEWOOD'
p372
(S'EDGEWOOD AV'
p373
I76
I16650
tp374
sS'STUART AND 712 WESTMINSTER'
p375
(g14
I77
I15991
tp376
sS'CORLISS'
p377
(S'CORLISS ST'
p378
I91
I16123
tp379
sS'ABORN'
p380
(S'ABORN ST'
p381
I88
I15763
tp382
sS'WEI TER'
p383
(S'WEISS CT'
p384
I71
I16855
tp385
sS'WAR- REN'
p386
(S'WARD AVE'
p387
I76
I16530
tp388
sS'76 WESTMINSTER'
p389
(g90
I89
I15991
tp390
sS'WILLIAMS'
p391
(S'WILLIAMS ST'
p392
I92
I15997
tp393
sS"'3 ATWOOD"
p394
(S'ATWOOD ST'
p395
I85
I17752
tp396
sS"FOUNTAIN TELS GASPEE 4000 GASPEE 2728-FOR FURTHER INFORMATION SEE PAGE 39 BUYERS' GUIDE AND LEFT BOTT TOM LINES"
p397
(g176
I42
I16362
tp398
sS'E1 CHANGE PL'
p399
(S'EXCHANGE ST'
p400
I78
I15845
tp401
sS'BENE- LIT'
p402
(S'EBEN ST'
p403
I71
I16163
tp404
sS'DOUGLAS AV'
p405
(S'DOUGLAS AVE'
p406
I97
I16154
tp407
sS'AMERICA-'
p408
(g247
I91
I15770
tp409
sS'WEST- MINSTER 4TH FL TELS GASPEE 5746-8432 -FOR FURTHER INFORMATION SEE PAGE 72 BUYERS, GUIDE AND FRONT COVER'
p410
(g17
I43
I16362
tp411
sS'POINT AND 183 PUBLIC'
p412
(S'NOT A PUBLIC WAY'
p413
I80
I17057
tp414
sS'.24 WASH'
p415
(S'WASHBURN ST'
p416
I55
I17712
tp417
sS'WHITEHALL'
p418
(S'WHITEHALL ST'
p419
I93
I18106
tp420
sS'754-756 BROAD'
p421
(g161
I74
I15793
tp422
sS"' ASH"
p423
(S'ASCHAM ST'
p424
I58
I16031
tp425
sS"FOUNTAIN TOWER I'OOIIL"
p426
(S'FOUNTAIN ST'
p427
I80
I15853
tp428
sS'ALTHEA'
p429
(S'ALTHEA ST'
p430
I90
I17152
tp431
sS'MONT- GOMERY AV'
p432
(S'MONTGOMERY AV'
p433
I85
I16739
tp434
sS'GOVER- NORRM 2'
p435
(S'GOVERNOR ST'
p436
I76
I16983
tp437
sS'BILT- MORE'
p438
(S'BILTMORE AVE'
p439
I71
I17405
tp440
sS'KNIGHT STREET CENTER 376 KNIGHT'
p441
(g329
I72
I15890
tp442
sS'RICHMOND 3D FL'
p443
(g326
I86
I15946
tp444
sS"EA- TON '"
p445
(S'EATON ST'
p446
I73
I17478
tp447
sS'GLENDALE AV'
p448
(S'GLENDALE AVE'
p449
I98
I16979
tp450
sS'MANTON AV'
p451
(S'MANTON AVE'
p452
I97
I17947
tp453
sS'RICHMOND 4TH II'
p454
(S'RICHMOND ST'
p455
I88
I15946
tp456
sS'& BWAY'
p457
(g11
I73
I16580
tp458
sS'DELAINE'
p459
(S'DELAINE ST'
p460
I91
I17822
tp461
sS'OLNEY- VILLE SQ'
p462
(S'OLNEY ST'
p463
I82
I16377
tp464
sS"S WATER TELS GASPEE 3569-9653-FOR FURTHER INFOR- MATION SEE PAGE 98 BUYERS' GUIDE"
p465
(S"CUTTER'S GREEN"
p466
I46
I16131
tp467
sS'CHESTER AV'
p468
(S'CHESTER AVE'
p469
I97
I16619
tp470
sS'S WATER'
p471
(S'S WATER ST'
p472
I94
I15949
tp473
sS'CO 387 CHARLES'
p474
(g196
I79
I16096
tp475
sS'WEY- DOSSGT'
p476
(g102
I58
I15992
tp477
sS"' JOHN"
p478
(S'JOHN ST'
p479
I86
I16259
tp480
sS'WHITTIER AV'
p481
(S'WHITTIER AVE'
p482
I98
I18107
tp483
sS'ORMSBEE AV'
p484
(g2
I66
I16384
tp485
sS'A POTTEFS AV'
p486
(g8
I82
I16786
tp487
sS'170 WESTMINSTER'
p488
(g14
I88
I15991
tp489
sS'BROAD AND 354 FRIENDSHIP'
p490
(g269
I77
I15858
tp491
sS'WELLINGTON AV'
p492
(S'WELLINGTON AVE'
p493
I98
I17352
tp494
sS'. WASH'
p495
(S'WASHBURN ST'
p496
I60
I17712
tp497
sS'URWSEA 115 EMPIRE'
p498
(S'SUNRISE DR'
p499
I53
I17677
tp500
sS"BORDEN TELS DEXTER 0243-0244-FOR' FURTHER INFOR- MATION SEE PAGE 134 BUYERS' GUIDE"
p501
(g466
I44
I16131
tp502
sS'A11EN1S AV'
p503
(S'ALLENS AVE'
p504
I66
I15768
tp505
sS'BURRINGTON'
p506
(S'BURLINGTON ST'
p507
I84
I16914
tp508
sS'MA.- THEWSON AND 26 SNOW'
p509
(g69
I76
I15904
tp510
sS'SHIP'
p511
(S'SHIP ST'
p512
I86
I15955
tp513
sS'; CHESTNUT'
p514
(g78
I92
I15807
tp515
sS"A'TWELLS AV"
p516
(g60
I91
I15775
tp517
sS'DOR- RANCE'
p518
(S'DORRANCE ST'
p519
I78
I15829
tp520
sS'275 WESTMIN- STER TELS GASPEE 5900 AND PERRY 8000'
p521
(g14
I60
I15991
tp522
sS'TRANSIT'
p523
(S'TRANSIT ST'
p524
I91
I15975
tp525
sS'BROAD, 165 CHARLES, 81 DYER, 51 FOX POINT BLVD AND 40 RESERVOIR AV'
p526
(g158
I66
I17303
tp527
sS'POMONA AV'
p528
(S'POMONA AVE'
p529
I97
I17628
tp530
sS'BRIDGE'
p531
(S'BRIDGE ST'
p532
I90
I15792
tp533
sS'WESTMIN-'
p534
(g14
I72
I15991
tp535
sS'TX- CHANGE PL'
p536
(g400
I78
I15845
tp537
sS'-261 ALLEMS AV'
p538
(g323
I76
I15768
tp539
sS'WEYBOSSET 300 GROSVE- NOR BLDG'
p540
(g102
I77
I15992
tp541
sS'ALTHEA,'
p542
(S'ALTHEA ST'
p543
I90
I17152
tp544
sS'EMPIRE 3D FL'
p545
(S'EMPIRE PLAZA'
p546
I83
I15839
tp547
sS'CAMP'
p548
(S'CAMP ST'
p549
I86
I16917
tp550
sS'119 TOBEY'
p551
(S'TOBEY ST'
p552
I79
I18076
tp553
sS'AND 382 PINE'
p554
(S'PINE ST'
p555
I71
I15933
tp556
sS'EDDY 3D FL'
p557
(S'EDDY ST'
p558
I79
I15834
tp559
sS'POE'
p560
(S'POE ST'
p561
I83
I16783
tp562
sS'CUSTOM HOUSE-ST'
p563
(S'CUSTOM HOUSE ST'
p564
I100
I15820
tp565
sS"PRAIRIE 'AV"
p566
(S'PRAIRIE AVE'
p567
I97
I16787
tp568
sS'-F0R FURTHER INFORMA-'
p569
(S'RUTHERGLEN AVE'
p570
I53
I17312
tp571
sS'TAUNTON AV'
p572
(g452
I78
I17947
tp573
sS'ELMDALE AV'
p574
(S'ELMDALE AVE'
p575
I97
I17845
tp576
sS'PLEASANT'
p577
(g206
I92
I16399
tp578
sS'- WATERMAN'
p579
(S'WATERMAN ST'
p580
I92
I15988
tp581
sS'MASHAPAUG'
p582
NsS'EXCHANGE RMS 1216127'
p583
(g31
I82
I15845
tp584
sS'N MAIN 4TH 11 AND 35 ALGER AV'
p585
(S'NORTH MAIN ST'
p586
I76
I15916
tp587
sS"PINE AND' 127 FRIENDSHIP"
p588
(S'WEST FRIENDSHIP ST'
p589
I79
I17345
tp590
sS'X ALGONQUIN'
p591
(S'ALGONQUIN ST'
p592
I89
I17151
tp593
sS'SARGENT AV'
p594
(S'SARGENT AVE'
p595
I97
I17095
tp596
sS'SAWYER'
p597
(S'SLATER ST'
p598
I60
I7046
tp599
sS"WESTMINSTER TEL4 GASPEE 9282-F0R FURTHER INFORMA- TION SEE PAGE 103 BUYERS' GUIDE AND LEFT TOP LINES"
p600
(g14
I62
I15991
tp601
sS'VHOPE'
p602
(S'HOPE ST'
p603
I78
I15875
tp604
sS'MEADOW'
p605
(S'MEADOW ST'
p606
I90
I15906
tp607
sS'BROWNELL'
p608
(S'BROWNELL ST'
p609
I92
I17414
tp610
sS'70 SHIP'
p611
(g512
I78
I15955
tp612
sS'MARLBOROUGH AV'
p613
(g145
I98
I17259
tp614
sS'THOS S & VINCENT LUONGO MEM SQ'
p615
(S'VINCENT AVE'
p616
I71
I16522
tp617
sS"DYER COR WESTMINSTER TELS DEXTER 8313 AND 8314-FOR FURTHER INFORMA- TION SEE PAGE 94 BUYERS' GUIDE AND RIGHT TOP LINES"
p618
(g14
I61
I15991
tp619
sS'WGSHINGTON'
p620
(S'WASHINGTON PL'
p621
I84
I15986
tp622
sS'FRANCIS'
p623
(S'FRANCIS ST'
p624
I91
I17503
tp625
sS'MINTO'
p626
(S'MINTO ST'
p627
I88
I17593
tp628
sS'IIIRIWOOD AV'
p629
(S'NORWOOD AV'
p630
I68
I16754
tp631
sS'369 ELMWOOD AV'
p632
(S'ELMWOOD AVE'
p633
I90
I17207
tp634
sS'WEY- BOSSET'
p635
(g102
I81
I15992
tp636
sS'JEWETT'
p637
(S'JEWETT ST'
p638
I90
I17549
tp639
sS'& J ACKSON'
p640
(g124
I85
I16253
tp641
sS',6 WESTMINSTER'
p642
(g90
I90
I15991
tp643
sS'PROMENADE'
p644
(S'PROMENADE ST'
p645
I93
I17630
tp646
sS'ALMV'
p647
(S'PALM ST'
p648
I65
I16386
tp649
sS'LONGMONT'
p650
(S'LONGMONT ST'
p651
I92
I17571
tp652
sS'ALMY'
p653
(S'ALMY ST'
p654
I86
I17741
tp655
sS'RHODES COR ALLEN2S AV'
p656
(g323
I75
I15768
tp657
sS'INC KILBERT ST'
p658
(S'GILBERT ST'
p659
I80
I17867
tp660
sS"ANGELL, 434 SMITH AND 1 OLNEYVILLE SQ-FOR FURTHER IN- FORMATION SEE PAGE 25 BUYERS' GUIDE AND LEFT BOTTOM LINES"
p661
(S'OLNEYVILLE SQ'
p662
I60
I17978
tp663
sS'CHEST- NUT'
p664
(g78
I78
I15807
tp665
sS'BROAD AND 116 ELMWOOD AV'
p666
(g258
I78
I17207
tp667
sS'FRUIT HILL AV'
p668
(S'FRUIT HILL AVE'
p669
I98
I16192
tp670
sS'WESTMINSI TER'
p671
(g14
I80
I15991
tp672
sS'-236 BUTLER AV'
p673
(S'BUTLER AVE'
p674
I89
I16915
tp675
sS'NARRAGANSETT AV'
p676
NsS'& POCAS- SET AV'
p677
(S'POCASSET AVE'
p678
I84
I17995
tp679
sS'HOPE TELS DEXTER 8094-8095 RES TELS GASPEE 6655, DEXTER 8636-FOR FURTHER INFORMATION SEE PAGES 71 AND 126 BUYERS, GUIDE AND LEFT TOP LINES'
p680
(g176
I41
I16362
tp681
sS'PINE 3D FL'
p682
(S'PINE ST'
p683
I79
I15933
tp684
sS'WESTMINSTER TELS GASPEE 1462-1463'
p685
(g90
I77
I15991
tp686
sS'-10 ORMS .'
p687
(g2
I78
I16384
tp688
sS"' ADMIRAL"
p689
(S'ADMIRAL ST'
p690
I91
I16005
tp691
sS'WESTMINSTER TEL-GASPEE 9800-F0R FURTHER INFOR- MATION SEE PAGE 71 BUYERSF GUIDE BACK COVER AND RIGHT TOP LINES'
p692
(g90
I61
I15991
tp693
sS'WEST- MINSTER.'
p694
(g14
I81
I15991
tp695
sS'RIVER AV'
p696
(S'RIVER AVE'
p697
I97
I16423
tp698
sS"WEST- MINSTER'"
p699
(g90
I81
I15991
tp700
sS'A1- LEN S AV'
p701
(S'SOUTH CT'
p702
I76
I15959
tp703
sS'VICTOR'
p704
(S'VICTOR ST'
p705
I90
I17699
tp706
sS'BAS- SETT'
p707
(g121
I75
I15777
tp708
sS'DORRANCE 5TH'
p709
(g519
I93
I15829
tp710
sS'. WESTMINSTER'
p711
(g90
I94
I15991
tp712
sS'DUNCAN AV'
p713
(S'DUNCAN AVE'
p714
I97
I16947
tp715
sS'GARNET'
p716
(S'GARNET ST'
p717
I90
I15862
tp718
sS'204 HARTFORD AV'
p719
(S'HARTFORD AVE'
p720
I90
I17889
tp721
sS'INC 271 FOX POINT BLVD TELS DEXTER 2440-2441'
p722
(S'DEXTER ST'
p723
I63
I17198
tp724
sS'ELMWOOD AV, 248 SHAYER AND 169 WESTMINSTER'
p725
(g14
I70
I15991
tp726
sS'RES- ERVOIR AV'
p727
(g158
I86
I17303
tp728
sS'GOVERNOR'
p729
(S'GOVERNOR ST'
p730
I92
I16983
tp731
sS"' AMSTERDAM"
p732
(S'AMSTERDAM ST'
p733
I93
I17745
tp734
sS'POCASSET I AV'
p735
(S'POCASSET AVE'
p736
I94
I17995
tp737
sS'WESTMINSTER VRM 1002'
p738
(g14
I85
I15991
tp739
sS'WESTMIM STER'
p740
(S'WEST ST'
p741
I73
I15990
tp742
sS'78 IVES'
p743
(S'IVES ST'
p744
I78
I17007
tp745
sS'; IVES'
p746
(g223
I86
I17007
tp747
sS'201 BRANCH AV'
p748
(S'BRANCH AVE'
p749
I89
I16067
tp750
sS'PUBLIC TELS DEXTER 0051 AND WILLIAMS 3134-F0R FURTHER INFOR- MATION SEE PAGE 46 BUYERS0 GUIDE'
p751
(S'ROGER WILLIAMS GREEN ST'
p752
I65
I16430
tp753
sS'-288 POCASSET AV'
p754
(g678
I90
I17995
tp755
sS"' MATHEWSON RM"
p756
(g57
I91
I15904
tp757
sS'ARM- INGTON, EDGEWOOD RI'
p758
(g373
I77
I16650
tp759
sS'MAJOR'
p760
(S'MASSO DR'
p761
I61
I16322
tp762
sS"EAGLE TELS GASPEE 1700-2112-F'OR FURTHER INFORMATION SEE PAGE 32 BUYERS1 GUIDE"
p763
(g176
I44
I16362
tp764
sS'VIR- GINA AV'
p765
(S'VIRGINIA AVE'
p766
I77
I16849
tp767
sS'AMHERST,'
p768
(S'AMHERST ST'
p769
I91
I17744
tp770
sS'AMHERST-'
p771
(S'AMHERST ST'
p772
I91
I17744
tp773
sS'THAYER,'
p774
(S'THAYER ST'
p775
I90
I17112
tp776
sS'; EARL'
p777
(S'EARLY ST'
p778
I78
I16646
tp779
sS'PUBLIC'
p780
(S'PUBLIC ST'
p781
I90
I15942
tp782
sS'WESTMIN-L STER'
p783
(g14
I78
I15991
tp784
sS"258-262 PINE PAWTUCKET RI TELS PERRY 2988-89 -FOR FURTHER INFORMATION SEE PAGE 32 BUYERS' GUIDE AND BACK COVER"
p785
(g17
I43
I16362
tp786
sS'AN- GELL'
p787
(S'ANGELL RD'
p788
I77
I16022
tp789
sS"BUYERS'"
p790
(S'BURNS ST'
p791
I65
I16075
tp792
sS'VVATER- MAN'
p793
(S'MATHER AV'
p794
I65
I16728
tp795
sS"'WESTMINSTER"
p796
(g14
I94
I15991
tp797
sS'ANITH'
p798
(S'IANTHE ST'
p799
I65
I16248
tp800
sS'ADMIRAL'
p801
(S'ADMIRAL ST'
p802
I91
I16005
tp803
sS'A WESTMINSTER'
p804
(g14
I90
I15991
tp805
sS'PROVIDENCE'
p806
(S'PROVIDENT PL'
p807
I78
I2380
tp808
sS'WESTMINSTER.'
p809
(g90
I94
I15991
tp810
sS'LOMBARDI TELS DEXTER 9850 AND 9851'
p811
(S'LOMBARDI ST'
p812
I74
I16290
tp813
sS'WESLEYAN AV'
p814
(S'WESLEYAN AVE'
p815
I98
I17353
tp816
sS'171 WESTMINSTER'
p817
(g14
I88
I15991
tp818
sS'EMPIRE RM9'
p819
(S'EMPIRE ST'
p820
I87
I15840
tp821
sS"NEW YORK' AV"
p822
(S'NEW YORK AVE'
p823
I98
I16751
tp824
sS'BROAD 364, 829 AND 1932 WESTMINSTER'
p825
(g90
I73
I15991
tp826
sS'BENEM'
p827
(S'BENEFIT ST'
p828
I60
I15781
tp829
sS'387 CHARLES'
p830
(g196
I83
I16096
tp831
sS'CHALK- STONE AV'
p832
(S'CHARLTON AVE'
p833
I69
I6719
tp834
sS'W FRIENDSHIP'
p835
(S'W FRIENDSHIP ST'
p836
I95
I17345
tp837
sS'BALBO AV'
p838
(S'ALBRO ST'
p839
I71
I15767
tp840
sS'ANGELL'
p841
(S'ANGELL RD'
p842
I90
I16022
tp843
sS'RAYMOND'
p844
(S'RAYMOND ST'
p845
I91
I17639
tp846
sS'ANGELI'
p847
(S'ANGELA CT'
p848
I75
I16021
tp849
sS'WESTMIN- STER AND 109 WASH'
p850
(g14
I72
I15991
tp851
sS'OLD COLONY HOUSE 58 WEYBQSSET'
p852
(S'WEYBOSSET ST'
p853
I64
I15992
tp854
sS'A PONT'
p855
(S'OAK POINT'
p856
I84
I16369
tp857
sS'096 WESTMINSTER'
p858
(g14
I88
I15991
tp859
sS"459 S WATER TELS GASPEE 3569-9653*F0R FURTHER INFOR- MATION SEE PAGE 36 BUYERS' GUIDE"
p860
(S"CUTTER'S GREEN"
p861
I44
I16131
tp862
sS'58 WEYBOSSET'
p863
(g102
I87
I15992
tp864
sS'PINE 2D'
p865
(g555
I85
I15933
tp866
sS'ALLEN4S AV'
p867
(g323
I91
I15768
tp868
sS'WASH AV'
p869
(S'WASHAKIE AVE'
p870
I70
I16531
tp871
sS"WATERMAN I'M"
p872
(g580
I89
I15988
tp873
sS'EXCHANGE PLACE'
p874
(S'EXCHANGE TER'
p875
I88
I15846
tp876
sS'V UNARLES'
p877
(S'NAPLES AVE'
p878
I65
I17602
tp879
sS'WESTFIELD'
p880
(S'WESTFIELD ST'
p881
I93
I17354
tp882
sS'PECK'
p883
(S'PECK ST'
p884
I86
I15928
tp885
sS'BRIDGE, 170 ANGELL AND 895 CHALKSTONE AV'
p886
(S'CHALKSTONE AVE'
p887
I74
I17433
tp888
sS'ARNOLD ,'
p889
(S'ARNOLD CT'
p890
I90
I16028
tp891
sS'DUDLEY'
p892
(S'DUDLEY ST'
p893
I90
I15830
tp894
sS'ARGOL'
p895
(g81
I88
I16026
tp896
sS'IV. SON'
p897
(S'WILSON ST'
p898
I60
I17359
tp899
sS'WEYBOSSET 3RD'
p900
(g102
I90
I15992
tp901
sS'VALLEY'
p902
(S'VALLEY ST'
p903
I90
I17693
tp904
sS'POTTER4S AV'
p905
(S'POTTERS AVE'
p906
I92
I16786
tp907
sS'-908 BROAD'
p908
(g161
I79
I15793
tp909
sS"E'DDY"
p910
(S'EAST DR'
p911
I90
I16159
tp912
sS'BAKER'
p913
(S'BAKER ST'
p914
I88
I16576
tp915
sS'MOTOR TRANSPORTATION INC REAR'
p916
(S'UNION STATION ST'
p917
I55
I15978
tp918
sS'LAFAYETTE'
p919
(S'LAFAYETTE ST'
p920
I93
I15891
tp921
sS'-62 PINE'
p922
(g683
I78
I15933
tp923
sS'. UNION'
p924
(S'UNION ST'
p925
I88
I15977
tp926
sS'ELGIN'
p927
(S'ELGIN ST'
p928
I88
I16959
tp929
sS'N COURT 1'
p930
(S'NORTH CT'
p931
I88
I15918
tp932
sS'DORRANDE 5TH FL'
p933
(g336
I78
I15829
tp934
sS'WEYBOA'
p935
(g853
I61
I15992
tp936
sS"' GLOBE"
p937
(S'GLOBE ST'
p938
I88
I15865
tp939
sS'47 CHARLES'
p940
(S'CHARLES ST'
p941
I85
I16096
tp942
sS'ELM- HURST AV'
p943
(S'ELMHURST AVE'
p944
I84
I17482
tp945
sS'DOUGLAS'
p946
(g406
I89
I16154
tp947
sS"ATWELL'S AV"
p948
(g60
I84
I15775
tp949
sS'SUTTON'
p950
(S'SUTTON ST'
p951
I90
I15966
tp952
sS'GEORGE APT 11'
p953
(S'GEORGE ST'
p954
I86
I16670
tp955
sS'INC 82 CLMORD'
p956
(S'LODGE RD'
p957
I46
I3298
tp958
sS'BENOVOLENT'
p959
(S'BENEVOLENT ST'
p960
I84
I16902
tp961
sS'W 205'
p962
(g741
I83
I15990
tp963
sS'CLEMENCE 3D FL'
p964
(S'CLEMENCE ST'
p965
I86
I15810
tp966
sS"CHESTNUT REL DEXTER 4903-FOR FURTHER INFORMA- TION SEE PAGE 105 BUYERS' GUIDE"
p967
(g78
I61
I15807
tp968
sS'EDDY 4TH N'
p969
(S'NORTH CT'
p970
I72
I15918
tp971
sS'DIAMOND'
p972
(S'DIAMOND ST'
p973
I91
I17199
tp974
sS'CO 67 BENEVOLENT'
p975
(g960
I84
I16902
tp976
sS'WOOD'
p977
(S'WOOD ST'
p978
I86
I18110
tp979
sS'MESSER'
p980
(S'MESSER ST'
p981
I90
I17961
tp982
sS'TURKS HEAD BLDG'
p983
(S'TURKS HEAD PL'
p984
I93
I15976
tp985
sS'FOUNTAIN TELS GASPEE 3757-3758-FOR FURTHER INFORMATION SEE PAGE 108 BUYERY GUIDE AND LEFT SIDE LINES'
p986
(g17
I43
I16362
tp987
sS'CLEMENCE'
p988
(g965
I92
I15810
tp989
sS'CHALK STONE AV'
p990
(S'CHALKSTONE AVE'
p991
I80
I17433
tp992
sS'REAR 589 ATWELLS AV'
p993
(S'ATWELLS AVE'
p994
I83
I15775
tp995
sS'I CHALKSTONE AV'
p996
(g887
I95
I17433
tp997
sS'COD- DING AND 498 KINSLEY AV'
p998
(S'KINSLEY AVE'
p999
I76
I15889
tp1000
sS'POT-'
p1001
(S'POST RD'
p1002
I73
I16785
tp1003
sS'JEFFERSON'
p1004
(S'JEFFERSON ST'
p1005
I93
I17548
tp1006
sS'WEYBOSSET TELAGASPEE 1391 -FOR FURTHER INFORMATION SEE PAGE'
p1007
(g176
I46
I16362
tp1008
sS'47 MATHEWSON'
p1009
(g69
I87
I15904
tp1010
sS'-80 BAKER'
p1011
(g914
I81
I16576
tp1012
sS'CARPENTER'
p1013
(S'CARPENTER ST'
p1014
I93
I15801
tp1015
sS'RAN- DALL'
p1016
(S'RANDALL RD'
p1017
I75
I16415
tp1018
sS'HAMLIN'
p1019
(S'HAMLIN ST'
p1020
I90
I16217
tp1021
sS'EDDY'
p1022
(g558
I86
I15834
tp1023
sS'-129 POST ROAD APPON- AUG'
p1024
(S'APPLETON ST'
p1025
I56
I17749
tp1026
sS'EDDV'
p1027
(g558
I65
I15834
tp1028
sS'BORDEN'
p1029
(S'BORDEN ST'
p1030
I90
I15787
tp1031
sS'MERCY'
p1032
(S'MERCY ST'
p1033
I88
I17959
tp1034
sS'CHAFFEE'
p1035
(S'CHAFFEE ST'
p1036
I91
I17798
tp1037
sS'HEATH'
p1038
(S'HEATH ST'
p1039
I88
I17891
tp1040
sS'INDIANA AV'
p1041
(S'INDIANA AVE'
p1042
I97
I16702
tp1043
sS'WESTMINSTER LOBBY 0'
p1044
(g14
I86
I15991
tp1045
sS"CHARLES TELS GASPEE 6916-6917--FOR FURTHER INFOR- MATION SEE PAGE 174 BUYERS' GUIDE"
p1046
(g196
I61
I16096
tp1047
sS'MANTO-N AV'
p1048
(S'MANTON AVE'
p1049
I83
I17947
tp1050
sS'A WEBSTER AV'
p1051
(S'WEBSTER AVE'
p1052
I93
I18098
tp1053
sS'304 PEARL'
p1054
(S'PEARL AV'
p1055
I79
I16774
tp1056
sS"BUY- ERS' GUIDE"
p1057
(S'BURNSIDE ST'
p1058
I60
I16606
tp1059
sS'RICHARDSON'
p1060
(S'RICHARDSON ST'
p1061
I93
I16795
tp1062
sS'SASSAFRAS'
p1063
(S'SASSAFRAS ST'
p1064
I93
I17317
tp1065
sS'EDDY 2D FL'
p1066
(g558
I79
I15834
tp1067
sS'DO'
p1068
(S'DON AVE'
p1069
I62
I16149
tp1070
sS'I MANTON AV'
p1071
(g452
I93
I17947
tp1072
sS"198 PRAIRIE AV'"
p1073
(g567
I90
I16787
tp1074
sS'69 SPRAGUE'
p1075
(S'SPRAGUE ST'
p1076
I85
I17327
tp1077
sS'HUNTINGTON AV'
p1078
(S'HUNTINGTON AVE'
p1079
I98
I17236
tp1080
sS'MANHASSET, CRANSTON'
p1081
(S'MANHATTAN ST'
p1082
I67
I16309
tp1083
sS'TH DB, SEVENTH DAY BAPTIST'
p1084
(S'ROOSEVELT ST'
p1085
I53
I16432
tp1086
sS'-6222'
p1087
(S'2ND ST'
p1088
I24
I16872
tp1089
sS'EUCLID'
p1090
(S'EUCLID AVE'
p1091
I87
I16964
tp1092
sS'BEACON AV'
p1093
(S'BEACON AVE'
p1094
I97
I15779
tp1095
sS'CONDUIT'
p1096
(S'CONDUIT ST'
p1097
I91
I15814
tp1098
sS'OAKLAND AV'
p1099
(S'OAKLAND AVE'
p1100
I97
I17609
tp1101
sS'CANTON'
p1102
(S'CANTON ST'
p1103
I90
I17424
tp1104
sS'FOUN- TAIN'
p1105
(g427
I73
I15853
tp1106
sS'PLAIN'
p1107
(S'PLAIN ST'
p1108
I88
I15934
tp1109
sS'CRANSTON, CRANSTON TELS'
p1110
(g297
I83
I15817
tp1111
sS'& ELMWOOD AV'
p1112
(g258
I97
I17207
tp1113
sS'CRAN- STON, ARLINGTON TELS WEST 2457-2458 -FO-R FURTHER INFORMATION SEE PAGE X AND LEFT BOTTOM LINES'
p1114
(g176
I43
I16362
tp1115
sS'-101 BROWN'
p1116
(S'BROWN ST'
p1117
I79
I16073
tp1118
sS'TAFT AV'
p1119
(S'TAFT AVE'
p1120
I96
I16484
tp1121
sS'SHOW'
p1122
(S'SNOW ST'
p1123
I65
I15957
tp1124
sS"WESTMIN- STER TELS GASPEE 6582-8291-FOR FUR- THER INFORMATION SEE PAGE 124 BUY- ERS' GUIDE"
p1125
(g17
I44
I16362
tp1126
sS'49 WESTMINSTER'
p1127
(g14
I89
I15991
tp1128
sS'TROY'
p1129
(S'TROY ST'
p1130
I86
I18078
tp1131
sS'WASH.'
p1132
(g496
I60
I17712
tp1133
sS"THIRD TEIS'GASPEE 3621-3622-F0R FURTHER INFORMATION SEE PAGE 88 BUYERS, GUIDE"
p1134
(g17
I45
I16362
tp1135
sS'WASH-'
p1136
(g496
I60
I17712
tp1137
sS'57 EDDY'
p1138
(g20
I78
I15834
tp1139
sS'WILLARD AV'
p1140
(g164
I97
I16863
tp1141
sS"459 S WATER TELS . GASPEE 3569-9653-FOR FURTHER INFOR- MATION SEE PAGE 98 BUYERS' GUIDE"
p1142
(g466
I45
I16131
tp1143
sS"WEYBOSSET TELS GAS- PEE 9457-8-FOR FURTHER INFORMATION SEE PAGE 138 BUYERS' GUIDE"
p1144
(g176
I44
I16362
tp1145
sS'SARATOGA'
p1146
(S'SARATOGA ST'
p1147
I92
I16807
tp1148
sS'BUCKLIN'
p1149
(S'BUCKLIN ST'
p1150
I91
I17171
tp1151
sS'67 OCEAN'
p1152
(S'OCEAN AV'
p1153
I81
I16756
tp1154
sS'PUBLISHERS'
p1155
(g781
I63
I15942
tp1156
sS'WEST-. MINSTER'
p1157
(g90
I81
I15991
tp1158
sS'35 OXFORD'
p1159
(S'OXFORD ST'
p1160
I83
I16764
tp1161
sS'OF NEW YORK THE'
p1162
(g823
I87
I16751
tp1163
sS'WESTMINSTER 3D FLOOR'
p1164
(g14
I85
I15991
tp1165
sS'BORDEN AND ALLEN,S AV'
p1166
(S'BORDEN ST'
p1167
I76
I15787
tp1168
sS'ALLEWS AV'
p1169
(g323
I83
I15768
tp1170
sS'-76 MAWNEY'
p1171
(S'MAWNEY ST'
p1172
I83
I17261
tp1173
sS'- THAYER'
p1174
(S'THAYER ST'
p1175
I90
I17112
tp1176
sS'CUM- ERFORD'
p1177
(S'CUMERFORD ST'
p1178
I81
I17812
tp1179
sS'COMSTOCK AV'
p1180
(S'COMSTOCK AVE'
p1181
I98
I16631
tp1182
sS'ROCHAMBEAU AV'
p1183
(S'ROCHAMBEAU AVE'
p1184
I98
I17088
tp1185
sS"DORRAN'CE"
p1186
(g336
I83
I15829
tp1187
sS'EXCHANGE TELS GASPEE 1860-1861-F0R FURTHER IN- FORMATION SEE PAGE 2 BUYERS GUIDE AND RIGHT TOP LINES'
p1188
(g917
I42
I15978
tp1189
sS'WHIT- MARSH'
p1190
(S'WHITMARSH ST'
p1191
I76
I17355
tp1192
sS'HUBER AV'
p1193
(S'HUBER AVE'
p1194
I97
I17902
tp1195
sS"RANDALL TELS DEXTER 8094-F0R FURTHER INFORMA- TION SEE PAGE 102 BUYERS, GUIDE AND LEFT T'OP LINES"
p1196
(S'RANDALL RD'
p1197
I59
I16415
tp1198
sS'PINE 2D FL'
p1199
(g683
I79
I15933
tp1200
sS'65 HARRIS AV'
p1201
(S'HARRIS AVE'
p1202
I91
I15869
tp1203
sS'W EXCHANGE BRANCHES 210 AMHERST, 266 ATWELLS AV, 296 BRANCH AV, 863 AND 1487 BROAD, 321 BROADWAY, 713 AND 190 CAMP, 92 CARPENTER, 945 AND 1052 CHALKSTONE AV, 624 CRANSTON, 980 ED- DY, 185 ELMWOOD AV, 515 AND 577 HARTFORD AV, 727 HOPE, 424 AND 917 MANTON AV. 843 N MAIN, 47 OCEAN,'
p1204
(g991
I55
I17433
tp1205
sS"' ATWELLS AV"
p1206
(g60
I97
I15775
tp1207
sS"BUY- ' ERS' GUIDE"
p1208
(S'BURNSIDE ST'
p1209
I60
I16606
tp1210
sS'COLE AV'
p1211
(S'COLE AVE'
p1212
I96
I16928
tp1213
sS'210 WEYBOS- SET'
p1214
(g102
I74
I15992
tp1215
sS'CLAREMONT AV'
p1216
(S'CLAREMONT AVE'
p1217
I98
I17438
tp1218
sS'R M 59 CHESTNUT'
p1219
(g370
I81
I15807
tp1220
sS'PALLAS'
p1221
(S'PALLAS ST'
p1222
I90
I15924
tp1223
sS'N MAIN 1 PROMENADE, 85 RESERVOIR AV'
p1224
(S'WESTERN PROMENADE'
p1225
I72
I16858
tp1226
sS'BWAY RM2'
p1227
(g11
I71
I16580
tp1228
sS'EDDY AND 3 LOCKWOOD'
p1229
(S'LOCKWOOD ST'
p1230
I76
I15895
tp1231
sS'GARNET 3D FL'
p1232
(g717
I83
I15862
tp1233
sS'EDENDALE AV'
p1234
(S'VERNDALE AVE'
p1235
I76
I16846
tp1236
sS'EARLY'
p1237
(S'E EARLE ST'
p1238
I62
I7747
tp1239
sS'EXCHANGE PL'
p1240
(g400
I91
I15845
tp1241
sS'GEORGIA. AV'
p1242
(S'GEORGIA AVE'
p1243
I97
I16671
tp1244
sS'WASH RM'
p1245
(g416
I61
I17712
tp1246
sS'WEYBOSSET RM'
p1247
(g102
I91
I15992
tp1248
sS'4 ED- WARD'
p1249
(S'EDWARD ST'
p1250
I73
I16164
tp1251
sS', S MAIN'
p1252
(S'SOUTH MAIN ST'
p1253
I93
I15948
tp1254
sS'.334- WESTMINSTER RM'
p1255
(g14
I87
I15991
tp1256
sS'OXFORD-'
p1257
(g1160
I90
I16764
tp1258
sS'OXFORD.'
p1259
(g1160
I90
I16764
tp1260
sS'CEDAR'
p1261
(S'CEDAR ST'
p1262
I88
I15803
tp1263
sS'LEDGE 0'
p1264
(S'LEDGE ST'
p1265
I90
I16275
tp1266
sS'CHESTNUT 6TH FL'
p1267
(g370
I88
I15807
tp1268
sS"EDDY 'SAMPLE TRAYS-JEWELERS"
p1269
(S'JEWELL ST'
p1270
I52
I17911
tp1271
sS'WESTMINSTH'
p1272
(g14
I80
I15991
tp1273
sS'UNION'
p1274
(g925
I88
I15977
tp1275
sS'WESTMINSTF'
p1276
(g90
I80
I15991
tp1277
sS'ATWELLS'
p1278
(g60
I89
I15775
tp1279
sS'OCEAN'
p1280
(g1153
I88
I16756
tp1281
sS'-231 GLOBE'
p1282
(g938
I79
I15865
tp1283
sS'20 GORDON AV'
p1284
(S'GORDON AVE'
p1285
I91
I16675
tp1286
sS'WESTMINSTER PM 805'
p1287
(g14
I87
I15991
tp1288
sS'STATE OFFICE BLDG'
p1289
(S'POST OFFICE CT'
p1290
I82
I15938
tp1291
sS'TURKS HEAD'
p1292
(g984
I93
I15976
tp1293
sS'WASH- INGTON, ANTHONY RI'
p1294
(S'ANTHONY AVE'
p1295
I74
I17155
tp1296
sS'WESTMIN- TER'
p1297
(g14
I79
I15991
tp1298
sS"258-262 PINE PAWTUCKEVT R I TELS PERRY 2988- 89-FOR FURTHER INFORMATION SEE PAGE 32 BUYERS' GUIDE ,AND BACK COVER"
p1299
(g17
I43
I16362
tp1300
sS'15 WESTMINSTER'
p1301
(g14
I89
I15991
tp1302
sS'INC'
p1303
(S'FINCH AVE'
p1304
I62
I16180
tp1305
sS'WEYBOSSET'
p1306
(g102
I93
I15992
tp1307
sS'S ANGELL'
p1308
(g242
I94
I17093
tp1309
sS'S DRIVE-IN THEATRE FT WHITE ST'
p1310
(S'STATE ST'
p1311
I52
I17672
tp1312
sS'BROAD BILLIARD ROOM SUPPLIES'
p1313
(S'WILLARD ST'
p1314
I61
I16545
tp1315
sS"WARNER'S LANE"
p1316
(S'WARNERS LN'
p1317
I83
I15985
tp1318
sS'REAR 825 HOPE'
p1319
(S'PEARL AVE'
p1320
I56
I16394
tp1321
sS'W EX- CHANGE'
p1322
(g317
I86
I15982
tp1323
sS'WEST- MINSTER 3D FL'
p1324
(g14
I76
I15991
tp1325
sS'7TH'
p1326
(S'7TH ST'
p1327
I83
I16877
tp1328
sS'BURNSIDE'
p1329
(g1058
I92
I16606
tp1330
sS'WINTHROP'
p1331
(S'WINTHROP AVE'
p1332
I90
I17720
tp1333
sS'SILVER SPRING TELS GASPEE 2887 AND DEXTER 7724-FOR FURTHER INFBRMATION SEE PAGE 44 BUYERS1 GUIDE WATERPROOFING'
p1334
(S'WARRINGTON ST'
p1335
I39
I17350
tp1336
sS'AMERICA 2D FL'
p1337
(S'AMERICA ST'
p1338
I85
I15770
tp1339
sS'ARNOLD'
p1340
(g890
I90
I16028
tp1341
sS'OHIO AV'
p1342
(S'OHIO AVE'
p1343
I96
I16762
tp1344
sS'MTPLEASANT AV'
p1345
(g206
I90
I16399
tp1346
sS'ORANGE'
p1347
(S'ORANGE ST'
p1348
I90
I15921
tp1349
sS'ROCHAM- BEAU AV'
p1350
(g1184
I84
I17088
tp1351
sS'AMERICA'
p1352
(g1338
I91
I15770
tp1353
sS'PRINTERY'
p1354
(S'PRINTERY ST'
p1355
I92
I16408
tp1356
sS'BATES'
p1357
(S'BATTEY ST'
p1358
I72
I15778
tp1359
sS'SWARTZ BLD'
p1360
(S'STEWART ST'
p1361
I68
I15963
tp1362
sS'SHARON'
p1363
(S'SHARON DR'
p1364
I90
I16447
tp1365
sS"HIGH, PAWTUCKET TELS PERRY 2400 AND GASPEE 4148-FOR FURTHER INFORMA TION SEE PAGE 94 BUYERS' GUIDE"
p1366
(S'PAWTUXET AVE'
p1367
I50
I16772
tp1368
sS'N MAIN 4TH II'
p1369
(g51
I90
I15916
tp1370
sS'WE) BOSSET'
p1371
(g853
I78
I15992
tp1372
sS'CRAN-'
p1373
(S'CRESANT DR'
p1374
I65
I16127
tp1375
sS'HARRISON'
p1376
(S'HARRISON ST'
p1377
I92
I17226
tp1378
sS'- STEWART'
p1379
(S'STEWART ST'
p1380
I91
I15963
tp1381
sS"ATWOO'DF"
p1382
(S'ATWOOD ST'
p1383
I81
I17752
tp1384
sS'CLIEORD'
p1385
(S'CLIFFORD ST'
p1386
I73
I15811
tp1387
sS'ALLEN,S AV'
p1388
(g323
I83
I15768
tp1389
sS"WASH' INGTON"
p1390
(g130
I79
I15986
tp1391
sS'-111 MEDWAY'
p1392
(S'MEDWAY ST'
p1393
I81
I17040
tp1394
sS'WESTMIN& TER'
p1395
(g14
I79
I15991
tp1396
sS'MATHEWSON'
p1397
(g69
I93
I15904
tp1398
sS'WEYBOS SET'
p1399
(g102
I81
I15992
tp1400
sS"FOUNTAIN '-"
p1401
(S'FOUNTAIN ST'
p1402
I92
I15853
tp1403
sS'CALLA'
p1404
(S'CALLA ST'
p1405
I88
I16611
tp1406
sS'51 EMPIRE'
p1407
(S'EMPIRE ST'
p1408
I83
I15840
tp1409
sS'CONGRESS AV'
p1410
(S'CONGRESS AVE'
p1411
I98
I17184
tp1412
sS'252 CANAL'
p1413
(S'CANAL ST'
p1414
I79
I15798
tp1415
sS'DYER COR WESTMINSTER TELS DEXTER 8313 AND 8314--FOR FURTHER INFORMA- TION SEE PAGE 77 BUYERS1 GUIDE AND RIGHT TOP LINES'
p1416
(g90
I60
I15991
tp1417
sS"CHAFFEE '"
p1418
(S'CHAFFEE ST'
p1419
I91
I17798
tp1420
sS'THAYER -'
p1421
(g1175
I90
I17112
tp1422
sS'EINPIRE'
p1423
(g1408
I70
I15840
tp1424
sS'BLACK- STONE BLVD'
p1425
(S'BLACKSTONE BLVD'
p1426
I82
I16904
tp1427
sS'SPRA- GUE'
p1428
(g1076
I75
I17327
tp1429
sS'ROBIN'
p1430
(S'ROBIN ST'
p1431
I88
I16427
tp1432
sS'ATWEILS AV'
p1433
(g60
I86
I15775
tp1434
sS"KNIGHT'"
p1435
(S'KNIGHT ST'
p1436
I90
I15890
tp1437
sS'SABIN'
p1438
(S'SABIN ST'
p1439
I88
I15950
tp1440
sS'1'
p1441
(S'I 195'
p1442
I41
I15880
tp1443
sS'WASHINGTON, ANTHONY RI'
p1444
(S'WASHINGTON ST'
p1445
I85
I15987
tp1446
sS'WESTMINSTER KM 408'
p1447
(g14
I87
I15991
tp1448
sS'EDDY TOP 11'
p1449
(g558
I83
I15834
tp1450
sS'MATHEWSON, RM7'
p1451
(g69
I90
I15904
tp1452
sS'SESSIONS'
p1453
(S'SESSIONS ST'
p1454
I92
I17098
tp1455
sS'-30 GREENE'
p1456
(S'GREENE ST'
p1457
I83
I15866
tp1458
sS'160 DOR- RANCE'
p1459
(g519
I72
I15829
tp1460
sS'GANO'
p1461
(S'GANO ST'
p1462
I86
I15861
tp1463
sS'-137 PARADE'
p1464
(g87
I81
I17278
tp1465
sS"262-264 WEY- BOSSET TELS GASPEE 8200-8201-FOR FURTHER INFORMATION SEE PAGE 51 BUY- ERS' GUIDE"
p1466
(g17
I43
I16362
tp1467
sS"INC 150-152 DOT RANCE 'TELS GASPEE 6682-6683-F0R FUR THER INFORMATION SEE PAGE 65 BUYERS GUIDE AND LEFT BOTTOM LINES"
p1468
(g17
I42
I16362
tp1469
sS'OLNEYVILLE SQ 1'
p1470
(g23
I96
I17978
tp1471
sS'OLNEYVILLE SQ -'
p1472
(g662
I100
I17978
tp1473
sS'GLOBE TELS GAS- PEE 0796-0797'
p1474
(S'GLOBE ST'
p1475
I69
I15865
tp1476
sS'-WESTMINSTER'
p1477
(g14
I94
I15991
tp1478
sS"116 RHODES COR ALLEN'S AV"
p1479
(S'RHODES ST'
p1480
I73
I15945
tp1481
sS'S WATER TE-LS GASPEE 3569-9653-F0R FURTHER INFOR- MATION SEE PAGE 36 BUYERY GUIDE'
p1482
(g861
I44
I16131
tp1483
sS'& MANTON AV'
p1484
(g1049
I97
I17947
tp1485
sS'LAWRENCE'
p1486
(S'LAWRENCE ST'
p1487
I92
I16274
tp1488
sS'& BROAD'
p1489
(g161
I88
I15793
tp1490
sS'ROYAL'
p1491
(S'ROYAL ST'
p1492
I88
I17091
tp1493
sS'HAYES'
p1494
(S'HAYES ST'
p1495
I88
I17522
tp1496
sS'OXFORD'
p1497
(g1160
I90
I16764
tp1498
sS'HILTON'
p1499
(S'HILTON ST'
p1500
I90
I16693
tp1501
sS'ANZELL'
p1502
(g842
I75
I16022
tp1503
sS'WATER- MAN'
p1504
(g580
I78
I15988
tp1505
sS'PIKE'
p1506
(S'PIKE ST'
p1507
I86
I15932
tp1508
sS'SHARON AND 109 WATERMAN'
p1509
(g580
I73
I15988
tp1510
sS'BOWEN'
p1511
(S'BOWEN ST'
p1512
I88
I15789
tp1513
sS'P1AIN2ELD'
p1514
(S'PLAINFIELD ST'
p1515
I69
I17994
tp1516
sS'I MANTC'
p1517
(S'MANTON CT'
p1518
I68
I17948
tp1519
sS'WARMERS 1A'
p1520
(S'WARNERS LN'
p1521
I78
I15985
tp1522
sS'MATHEWSON AND 109 WASH'
p1523
(g69
I82
I15904
tp1524
sS'PALMER'
p1525
(S'PALMER DR'
p1526
I90
I16387
tp1527
sS'COMMERCIAL PAWTUXET'
p1528
(S'COMMERCIAL ST'
p1529
I87
I16629
tp1530
sS'. PRAIRIE AV'
p1531
(S'PRAIRIE AVE'
p1532
I97
I16787
tp1533
sS'GAME'
p1534
(S'AMES ST'
p1535
I65
I15771
tp1536
sS'FOUNTAIN TELS GASPEE 4000-2728- FOR FURTHER INFORMATION SEE PAGE 33 BUYERY GUIDE AND LEFT BOTTOM LINES'
p1537
(g17
I43
I16362
tp1538
sS'N MAIN 4TH 11'
p1539
(g51
I90
I15916
tp1540
sS'CRANSTON 27 EDDY, 180 ELMWOOD AV, 43 OLNEY- VILLE SQ AND 279 THAYER'
p1541
(g297
I64
I15817
tp1542
sS"VV GJ DLUU .I.' HI. ULBUL U DHUPD ' 776 ELMWOOD AV"
p1543
(g258
I68
I17207
tp1544
sS', CRANSTON'
p1545
(g228
I92
I15817
tp1546
sS'SMITH- FIELD AV'
p1547
(S'SMITH HILL ST'
p1548
I83
I15956
tp1549
sS'EDDY 2D'
p1550
(g558
I85
I15834
tp1551
sS'BUYERY GUIDE AND RIGHT BOB TOM LINES'
p1552
(S'BUTLER DR'
p1553
I49
I16916
tp1554
sS', CANDACE'
p1555
(S'CANDACE ST'
p1556
I91
I17422
tp1557
sS'MAWNEY'
p1558
(S'MAWNEY ST'
p1559
I90
I17261
tp1560
sS'JEFFERSON BLVD HILLS- GROVE RI'
p1561
(S'JEFFERSON ST'
p1562
I77
I17548
tp1563
sS',2 WESLEYAN AV'
p1564
(S'WESLEYAN AVE'
p1565
I94
I17353
tp1566
sS'NELSON'
p1567
(S'NELSON ST'
p1568
I90
I17603
tp1569
sS'PLAIN AND 76 DORRANCE'
p1570
(g519
I75
I15829
tp1571
sS'CRARY'
p1572
(S'CRARY ST'
p1573
I88
I15818
tp1574
sS'830 WESTMINSTER AND 109 WASH'
p1575
(g90
I81
I15991
tp1576
sS'BYFIELD'
p1577
(S'BYFIELD ST'
p1578
I91
I16607
tp1579
sS'LAVAUGHN'
p1580
(S'LAVAUGHN ST'
p1581
I92
I17927
tp1582
sS"' PLAINFIELD"
p1583
(S'PLAINFIELD ST'
p1584
I93
I17994
tp1585
sS'-39-41 ONTARIO'
p1586
(S'ONTARIO ST'
p1587
I80
I17277
tp1588
sS'HOLLY'
p1589
(S'HOLLY ST'
p1590
I88
I16999
tp1591
sS"PECK TELS GASPEE 4800-4801-FOR FURTHER INFOR- MATION SEE PAGE 116 BUYERS' GUIDE AND LEFT BOTTOM LINES"
p1592
(g466
I44
I16131
tp1593
sS'71 RICHMOND'
p1594
(g455
I86
I15946
tp1595
sS"BUYERS' GUIDE AND BACK COVGI'"
p1596
(S'BURRS LN'
p1597
I53
I16076
tp1598
sS'-66 BROAD'
p1599
(g161
I81
I15793
tp1600
sS'1246 SMITH'
p1601
(S'SMITH ST'
p1602
I78
I16457
tp1603
sS'WE STER'
p1604
(S'WESTERN ST'
p1605
I72
I17127
tp1606
sS'L 271 RESERVOIR AV'
p1607
(S'RESERVOIR AVE'
p1608
I88
I17303
tp1609
sS'MORRIS AV'
p1610
(S'MORRIS AVE'
p1611
I97
I17047
tp1612
sS'PLAINIIELD'
p1613
(g1584
I84
I17994
tp1614
sS'ALGER AV'
p1615
(S'ALGER AVE'
p1616
I97
I17150
tp1617
sS'OF RI 48 CUSTOM HOUSE ST'
p1618
(S'CUSTOM HOUSE ST'
p1619
I88
I15820
tp1620
sS'WEYBOSSET RM2'
p1621
(g853
I90
I15992
tp1622
sS'WEYBOSSET RM4'
p1623
(g853
I90
I15992
tp1624
sS'WESTMINSTER 227 HOWARD BLDG'
p1625
(g14
I79
I15991
tp1626
sS'PECK 6TH A'
p1627
(g884
I85
I15928
tp1628
sS'FOX POINT BLVD'
p1629
(g856
I80
I16369
tp1630
sS'PUB- LIC'
p1631
(g781
I71
I15942
tp1632
sS'INC 157 WESTMINSTER RM'
p1633
(g14
I83
I15991
tp1634
sS'SHIP 2D 11'
p1635
(S'SHIP ST'
p1636
I79
I15955
tp1637
sS'-359 FOUNTAIN'
p1638
(g427
I85
I15853
tp1639
sS'GOULD'
p1640
(S'GOULDING ST'
p1641
I70
I16982
tp1642
sS'DE- SOTO'
p1643
(S'DESOTO ST'
p1644
I77
I17823
tp1645
sS'BURLINGTON'
p1646
(S'BURLINGTON ST'
p1647
I93
I16914
tp1648
sS'-9 ADMIRAL'
p1649
(g690
I87
I16005
tp1650
sS'TH FLOOR TURKS HEAD BLDG'
p1651
(S'FLORA ST'
p1652
I59
I16182
tp1653
sS'PAVILION AV'
p1654
(S'PAVILION AVE'
p1655
I98
I16770
tp1656
sS'ALLEMS AV'
p1657
(g323
I83
I15768
tp1658
sS'BRANCH AV'
p1659
(S'BRANCH AVE'
p1660
I97
I16067
tp1661
sS'RICHMOND AND 169 PINE'
p1662
(g455
I78
I15946
tp1663
sS'2'
p1664
(S'2ND ST'
p1665
I39
I16872
tp1666
sS"WESTMG'PSTER"
p1667
(g741
I77
I15990
tp1668
sS'CHESTNUT 2D FL'
p1669
(g370
I86
I15807
tp1670
sS'10TH'
p1671
(S'10TH ST'
p1672
I86
I16868
tp1673
sS'-149 WASH'
p1674
(g496
I54
I17712
tp1675
sS"PECK TELS GASPEE 4800-4801-F'OR FURTHER IN- FORMATION SEE PAGE 116 BUYERS1 GUIDE AND LEFT BOTTOM LINES"
p1676
(g917
I42
I15978
tp1677
sS'PRAIRIE AV'
p1678
(g567
I97
I16787
tp1679
sS'FOUNTAIN AND 5 EDDY'
p1680
(g427
I80
I15853
tp1681
sS'PEARSON AV'
p1682
(S'PATERSON ST'
p1683
I73
I17069
tp1684
sS'BRAYTON AV'
p1685
(S'BRAYTON AVE'
p1686
I97
I15791
tp1687
sS'CUS- TOM HOUSE ST'
p1688
(g1619
I66
I15820
tp1689
sS"'DORRANCE"
p1690
(g519
I92
I15829
tp1691
sS'AND 250 WESTMINSTER AND 130 WASH'
p1692
(g14
I78
I15991
tp1693
sS'BUY- ERS, GUIDE'
p1694
(g1209
I60
I16606
tp1695
sS'GOIERNOR'
p1696
(g730
I81
I16983
tp1697
sS'ALBEE THEATRE 320 WESTMINSTER'
p1698
(g14
I75
I15991
tp1699
sS'CUSTOM IVIOUSE ST'
p1700
(g564
I59
I15820
tp1701
sS'AND PERRY 0860'
p1702
(S'DERRY ST'
p1703
I67
I17466
tp1704
sS'12TH FLOOR TURKS HEAD BLDG'
p1705
(g1652
I57
I16182
tp1706
sS'EMPIRE'
p1707
(g820
I90
I15840
tp1708
sS"LAURISTON'"
p1709
(g72
I93
I17020
tp1710
sS'WESTMINSTER TELS GAS- PEE 4360-619'
p1711
(g90
I77
I15991
tp1712
sS'BOURN'
p1713
(S'BOURNE AVE'
p1714
I79
I16066
tp1715
sS"POST ROAD, APPO- NAUG TELS GREENWOOD 1010-W AND 1720-F0R FURTHER INFORMATION SEE PAGE 122 BUYERS' GUIDE"
p1716
(g17
I42
I16362
tp1717
sS'.ABORN'
p1718
(g381
I88
I15763
tp1719
sS'PINE 5TH FL'
p1720
(g683
I83
I15933
tp1721
sS'BEN- EFIT'
p1722
(g150
I75
I15781
tp1723
sS'STANIFORD'
p1724
(S'STANIFORD ST'
p1725
I93
I16824
tp1726
sS'WOOLWORTH .BLDG 187 WESTMINSTER'
p1727
(g14
I75
I15991
tp1728
sS'JULIAN'
p1729
(S'JULIAN ST'
p1730
I90
I17914
tp1731
sS'PINE 4TH FL'
p1732
(g683
I83
I15933
tp1733
sS'SHAWMUT'
p1734
(S'SHAW ST'
p1735
I72
I16448
tp1736
sS'WEYBOS- SET RM1'
p1737
(g102
I78
I15992
tp1738
sS"' CHARLES"
p1739
(g196
I91
I16096
tp1740
sS'VVEYBOSSET ROOM 9'
p1741
(g853
I73
I15992
tp1742
sS"IN- DIA TELS DEXTER 0230-4940-FOR FUR- THER INFORMATION SEE PAGE 46 BUYERS' GUIDE"
p1743
(g176
I44
I16362
tp1744
sS'SABIN ELEV A'
p1745
(g1439
I80
I15950
tp1746
sS"BROOK J *G'ARBURETOR & FUEL PUMP SERVICE"
p1747
(S'ARBOR DR'
p1748
I51
I17380
tp1749
sS'FRIENDSHIP 2ND'
p1750
(g269
I90
I15858
tp1751
sS'TOP'
p1752
(S'HOPE ST'
p1753
I48
I6846
tp1754
sS'PROSPECT'
p1755
(S'PROSPECT ST'
p1756
I92
I16409
tp1757
sS'217 CHAPMAN'
p1758
(S'CHAPMAN ST'
p1759
I83
I16617
tp1760
sS'AND 12 HILTON'
p1761
(S'HILTON ST'
p1762
I77
I16693
tp1763
sS'POTTEFS AV'
p1764
(g8
I86
I16786
tp1765
sS'618-22 WESTMINSTER'
p1766
(g90
I84
I15991
tp1767
sS"258-262 PINE PAWTUCKET RI TELS PERRY 2988-89 -FOR FURTHER INFORMATION SEE PAGE 35 BUYERS' GUIDE AND BACK COVER"
p1768
(g176
I43
I16362
tp1769
sS'SOUTH'
p1770
(S'SOUTH CT'
p1771
I88
I15959
tp1772
sS'REAR 226 EDDY'
p1773
(S'RIVER RD'
p1774
I57
I16424
tp1775
sS'GLENBRIDGE AV'
p1776
(S'GLENBRIDGE AVE'
p1777
I98
I17868
tp1778
sS'STEWART AND 712 WESTMINSTER'
p1779
(g90
I77
I15991
tp1780
sS'MAGNOLIA'
p1781
(S'MAGNOLIA ST'
p1782
I92
I17944
tp1783
sS'BENE- FLT'
p1784
(g403
I71
I16163
tp1785
sS'BUSH'
p1786
(S'BRUSH HILL RD'
p1787
I68
I17786
tp1788
sS'G POLK'
p1789
(S'POLLY ST'
p1790
I55
I17996
tp1791
sS'LENNON'
p1792
(S'LENNON ST'
p1793
I90
I17563
tp1794
sS'LOUIS AV'
p1795
(S'LOUIS AVE'
p1796
I97
I17253
tp1797
sS"WEYBOS-' SET"
p1798
(g853
I81
I15992
tp1799
sS'73 EAGLE TELS GAS- PEE 1700 AND 2112-FOR FURTHER IN- FORMATION SEE PAGE 32 BUYERY GUIDE'
p1800
(S'DORMAN AVE'
p1801
I43
I16150
tp1802
sS'HAM'
p1803
(S'OLDHAM ST'
p1804
I58
I15920
tp1805
sS'TERMINAL WAY'
p1806
(S'TERMINAL RD'
p1807
I89
I16838
tp1808
sS'CAMDEN AV'
p1809
(S'CAMDEN AVE'
p1810
I97
I17421
tp1811
sS'SILVER'
p1812
(S'SILVER LAKE AVE'
p1813
I78
I18039
tp1814
sS"BUYERS' GUIDE AND FRONT COVER"
p1815
(S'BUTLER AVE'
p1816
I54
I16915
tp1817
sS"- BUYERS' GUIDE AND RIGHT SIDE LINES"
p1818
(g1597
I56
I16076
tp1819
sS'WICKENDEN'
p1820
(S'WICKENDEN ST'
p1821
I93
I15995
tp1822
sS'111 WESTMIN- STER'
p1823
(g90
I75
I15991
tp1824
sS'CHESTNUT, 123 CLIFFORD AND 64 ATWELLS AV'
p1825
(g78
I70
I15807
tp1826
sS'BELL'
p1827
(S'BELL ST'
p1828
I86
I17768
tp1829
sS'-34 DUDLEY'
p1830
(g893
I83
I15830
tp1831
sS'GLOBE AT WATER FRONT'
p1832
(g1475
I75
I15865
tp1833
sS'EAGLE'
p1834
(S'EAGLE ST'
p1835
I88
I17477
tp1836
sS"WOONASQUATUC KET AV'"
p1837
(S'WOONASQUATUCKET AV'
p1838
I93
I18113
tp1839
sS'3'
p1840
(S'3RD ST'
p1841
I39
I16873
tp1842
sS'ELMGROVE AV'
p1843
(S'ELMGROVE AVE'
p1844
I98
I16960
tp1845
sS'381 PROME-'
p1846
(S'ROME AVE'
p1847
I68
I16431
tp1848
sS'POTTER9S AV'
p1849
(g906
I92
I16786
tp1850
sS'CANAL, 26 N MAIN-TEL DEXTER 9800 AND 30 OLNEYVILLE SQ-FOR FURTHER INFORMATION SEE PAGE 14 BUYERS, GUIDE AND LEFT SIDE LINES'
p1851
(g17
I42
I16362
tp1852
sS'MEET- ING'
p1853
(S'MEETING ST'
p1854
I75
I15907
tp1855
sS'CREIGHTON'
p1856
(S'CREIGHTON ST'
p1857
I93
I16935
tp1858
sS'162 CHESTNUT'
p1859
(g370
I85
I15807
tp1860
sS'GREELEY'
p1861
(S'GREELEY ST'
p1862
I91
I16212
tp1863
sS'PITMAN'
p1864
(S'PITMAN ST'
p1865
I90
I17073
tp1866
sS'. CANAL'
p1867
(g1414
I88
I15798
tp1868
sS'DOYLE AV'
p1869
(S'DOYLE AVE'
p1870
I97
I16946
tp1871
sS'CARLE- TON'
p1872
(S'CARL ST'
p1873
I82
I17792
tp1874
sS'NEWTON'
p1875
(S'NEWTON ST'
p1876
I90
I15917
tp1877
sS', RESERVOIR AV'
p1878
(g1608
I98
I17303
tp1879
sS'BRIDG- 11AM'
p1880
(S'BRIDGE ST'
p1881
I77
I15792
tp1882
sS"POTTER'S AV"
p1883
(g8
I84
I16786
tp1884
sS'68'
p1885
(S'6TH ST'
p1886
I32
I16876
tp1887
sS"PLAINMZLD '"
p1888
(g1584
I69
I17994
tp1889
sS'260 ELMWOOD AV'
p1890
(g633
I90
I17207
tp1891
sS'5 EDDY'
p1892
(g558
I81
I15834
tp1893
sS'-12 HAY'
p1894
(S'HAY ST'
p1895
I75
I15871
tp1896
sS'- CRANSTON'
p1897
(g297
I92
I15817
tp1898
sS'TELS GASPEE 6964-6965-F0R FUR- THER INFORMATION SEE PAGE 97 BUYERS GUIDE'
p1899
(g176
I45
I16362
tp1900
sS"N MAIN 1 'ANNUITIOS"
p1901
(g586
I49
I15916
tp1902
sS'WEST-'
p1903
(g741
I86
I15990
tp1904
sS'UNIT'
p1905
(S'UNIT ST'
p1906
I86
I18082
tp1907
sS"WESTMINSTER TELS GASPEE 8666-8667-FOR FURTHER INFORMATION SEE PAGE 93 BUYERS' GUIDE"
p1908
(g14
I64
I15991
tp1909
sS'PENN'
p1910
(S'PENN ST'
p1911
I86
I17989
tp1912
sS'CRAN- STON'
p1913
(g228
I73
I15817
tp1914
sS'WESTN'
p1915
(g741
I78
I15990
tp1916
sS'WESTL'
p1917
(g741
I78
I15990
tp1918
sS'BUYERS GUIDE'
p1919
(g1553
I62
I16916
tp1920
sS'100-112 WESTMINSTER'
p1921
(g14
I83
I15991
tp1922
sS'HARRI- SOD'
p1923
(S'HARRIET ST'
p1924
I78
I16687
tp1925
sS'10 WEY- BOSSET RMS 212 AND 401'
p1926
(g853
I67
I15992
tp1927
sS'HARRI- SON'
p1928
(S'HARRIET ST'
p1929
I78
I16687
tp1930
sS'INC 19-25 TURNER'
p1931
(S'TURNER ST'
p1932
I74
I17689
tp1933
sS"THE 21 SABIN, PAWTUCKET TELS DEXTER 1124 AND PEFRRY 9512- FOR FURTHER INFORMATION SEE PAGE 115 BUYERS' GUIDE"
p1934
(g17
I42
I16362
tp1935
sS'-84 FOUNTAIN'
p1936
(g427
I86
I15853
tp1937
sS'80 EMPIRE'
p1938
(g820
I83
I15840
tp1939
sS'IROQUOIS'
p1940
(S'LOUIS AVE'
p1941
I54
I17253
tp1942
sS'PB, SIX'
p1943
(g512
I51
I15955
tp1944
sS'TELL'
p1945
(S'TELL ST'
p1946
I86
I18068
tp1947
sS'CRANSTON, CRANSTO'
p1948
(g228
I90
I15817
tp1949
sS'CUSTOM HOUSE'
p1950
(g564
I94
I15820
tp1951
sS'LARCH'
p1952
(S'LARCH ST'
p1953
I88
I17017
tp1954
sS'EX- CHANGE, 81 EXCHANGE PL, 176 MATHEW- SON, 79 WASHINGTON, 175 WESTMINSTER AND 275 MAIN PAWT'
p1955
(g14
I63
I15991
tp1956
sS'TOCKWOTTON'
p1957
(S'TOCKWOTTON ST'
p1958
I93
I15973
tp1959
sS'-WEST- MINSTER'
p1960
(g90
I81
I15991
tp1961
sS'WIL- LARD AV'
p1962
(g164
I82
I16863
tp1963
sS'; ATWELLS AV'
p1964
(S'CAPWELL AVE'
p1965
I73
I6708
tp1966
sS'BWAY F'
p1967
(g11
I76
I16580
tp1968
sS'BROADCASTING STATIONS 15 CHESTNUT'
p1969
(S'BROCKTON ST'
p1970
I52
I16070
tp1971
sS'-12 BLACK- STONE BLVD'
p1972
(g1426
I77
I16904
tp1973
sS'BROOK'
p1974
(S'BROOK ST'
p1975
I88
I15795
tp1976
sS'BWAY .'
p1977
NsS'THE 61 PINE AND 82 ORANGE TELS GASPEE 2980 AND MANNING 9077-F0R FURTHER INFOR- MATION GEE PAGE 140 BUYERS, GUIDE'
p1978
(S'E MANNING ST'
p1979
I60
I16951
tp1980
sS'IM'
p1981
(S'TIME ST'
p1982
I55
I16495
tp1983
sS'FEDERAL 7'
p1984
(S'FEDERAL ST'
p1985
I92
I15848
tp1986
sS'2D'
p1987
(g1665
I65
I16872
tp1988
sS'AND 1477 BROAD, 596 ELMWOOD AV, 415 SMITH, 259 PRAIRIE AND 195 WAYLAND AV'
p1989
(g633
I63
I17207
tp1990
sS'10-0 WEYBOSSET'
p1991
(g853
I84
I15992
tp1992
sS'AND 216 . BROAD'
p1993
(g167
I74
I15793
tp1994
sS'75 GRAHAM'
p1995
(S'GRAHAM ST'
p1996
I83
I16984
tp1997
sS'*WESTMINSTER'
p1998
(g90
I94
I15991
tp1999
sS'PARK'
p2000
(S'PARK ST'
p2001
I86
I16391
tp2002
sS"' DOUGLAS AV"
p2003
(S'DOUGLAS AVE'
p2004
I97
I16154
tp2005
sS'LOMBARDI'
p2006
(S'LOMBARDI ST'
p2007
I92
I16290
tp2008
sS'RNOA 48 SNOW'
p2009
(g161
I58
I15793
tp2010
sS'& ATWELLS AV'
p2011
(g994
I97
I15775
tp2012
sS'WILSON'
p2013
(g898
I90
I17359
tp2014
sS'WYESTMINSR TER'
p2015
(g14
I82
I15991
tp2016
sS'SILVER LAKE AV'
p2017
(S'SILVER LAKE AVE'
p2018
I98
I18039
tp2019
sS'4'
p2020
(S'4TH ST'
p2021
I39
I16874
tp2022
sS'1143-1155 WESTMINSTER'
p2023
(g90
I81
I15991
tp2024
sS'HAYMARKET'
p2025
(S'MARKET SQ'
p2026
I73
I15902
tp2027
sS'PUTNAM'
p2028
(S'PUTNAM ST'
p2029
I90
I18003
tp2030
sS"BORDEN AND ALLEN'S AV"
p2031
(g1030
I76
I15787
tp2032
sS'GROVE'
p2033
(S'GROVE ST'
p2034
I88
I17876
tp2035
sS'RATHBONE'
p2036
(S'RATHBONE ST'
p2037
I92
I17637
tp2038
sS'459 SOUTH WATER TELS GASPEE 3569-9653-F0R FURTHER INFOR- MATION SEE PAGE 36 BUYERY GUIDE'
p2039
(g861
I44
I16131
tp2040
sS'BAKER TELS WILLIAMS 5585-5586-FOR FURTHER IN- FORMATION SEE INSERT AT CLASSIFIED BUSINESS DIRECTORY'
p2041
(g1584
I46
I17994
tp2042
sS'FOUNTAIN 3D'
p2043
(g1402
I91
I15853
tp2044
sS'INDUSTRIAL TRUST BLDG'
p2045
(S'INDUSTRIAL DR'
p2046
I85
I16249
tp2047
sS'EXCHANGE PL 11 304'
p2048
(g31
I81
I15845
tp2049
sS'A S WATER'
p2050
(g472
I90
I15949
tp2051
sS'CUSTOME HOUSE ST'
p2052
(g564
I94
I15820
tp2053
sS'N MAIN RM'
p2054
(g586
I92
I15916
tp2055
sS"TAUN'TON AV"
p2056
(S'WABUN AVE'
p2057
I63
I17705
tp2058
sS'POTTER,S AV'
p2059
(g8
I84
I16786
tp2060
sS'POCASSET AV'
p2061
(g678
I98
I17995
tp2062
sS'ABORN AND 239 W EX- CHANGE'
p2063
(S'WEST EXCHANGE ST'
p2064
I72
I15982
tp2065
sS'STANI- FORD'
p2066
(g1725
I76
I16824
tp2067
sS'INC 146 WEST- MINSTER'
p2068
(g90
I71
I15991
tp2069
sS'HOUSTON'
p2070
(S'HOUSTON ST'
p2071
I91
I16696
tp2072
sS'WEEDEN, PAWTUCKET'
p2073
(g66
I67
I16771
tp2074
sS'BROWN COR ABORN'
p2075
(g1117
I76
I16073
tp2076
sS'WENDELL'
p2077
(S'WENDELL ST'
p2078
I91
I16535
tp2079
sS"BELLE'VUE AV"
p2080
(S'BELLEVUE AVE'
p2081
I84
I16051
tp2082
sS"AL'- NOLD"
p2083
(S'ARNOLD CT'
p2084
I71
I16028
tp2085
sS"HEADQUARTERS IN PROVIDENCE FOR UHARTMANN TRUNKS AND LUGGAGE' 52 WASH"
p2086
(S'HUNTERS RUN'
p2087
I44
I16244
tp2088
sS"258-262 PIN'E, PAWTUCKET R I TELS PERRY 2988-2989-FOR FURTHER INFORMATION SEE PAGE 32 BUYERS' GUIDE AND BACK COVER"
p2089
(g17
I43
I16362
tp2090
sS'REAL ESTATE AND INSURANCE SPECIALIZING IN FINE RESIDENTIAL PROPERTY 9 S ANGELL TELS PLANTATIONS 3312-3313 AFTER HOURS'
p2091
(S'STERLING AVE'
p2092
I38
I18055
tp2093
sS'MATHEWSON,'
p2094
(g69
I93
I15904
tp2095
sS'CRANS- TON'
p2096
(g228
I78
I15817
tp2097
sS'VVEYBOSSET'
p2098
(g102
I78
I15992
tp2099
sS'WESTMIN- STER AND 180 UNION'
p2100
(g14
I69
I15991
tp2101
sS'-77 WEST- MINSTER'
p2102
(g14
I77
I15991
tp2103
sS'MATTHEW- SOD'
p2104
(g209
I93
I17587
tp2105
sS"MAIN, PAWTUCKET TELS PERRY 4900 AND PLANTATIONS 49004FOR FURTHER. INFORMATION SEE PAGE 4 BUYERS' GUIDE"
p2106
(g917
I45
I15978
tp2107
sS'MOOREFIELD'
p2108
(S'MOOREFIELD ST'
p2109
I93
I17965
tp2110
sS'WEYBOSSET, EDDY, PINE AND GARNET'
p2111
(g853
I76
I15992
tp2112
sS'-185 BENE FLT'
p2113
(g150
I64
I15781
tp2114
sS"EDDY'"
p2115
(g20
I86
I15834
tp2116
sS'HAWKINS'
p2117
(S'HAWKINS ST'
p2118
I91
I16223
tp2119
sS'EDDY.'
p2120
(g20
I86
I15834
tp2121
sS'SMITH'
p2122
(g220
I88
I16457
tp2123
sS'RANKIN'
p2124
(S'RANKIN AVE'
p2125
I87
I17636
tp2126
sS'WEYBOS- SET RM.706'
p2127
(g102
I74
I15992
tp2128
sS'MINSTER'
p2129
(g367
I75
I16342
tp2130
sS'ROOMS WITH BATH, 4 FAMOUS PUBLIC ROOMS SERVING FOOD AND BEVERAGES 11 DORRANCE COR WASHINGTON'
p2131
(g1445
I60
I15987
tp2132
sS'JOHN AND 5 EDDY'
p2133
(S'JOHN ST'
p2134
I72
I16259
tp2135
sS'CHAP- MAN'
p2136
(S'CHAPMAN ST'
p2137
I75
I16617
tp2138
sS'ORMS AND 166 OAK- LAND AV'
p2139
(g2
I66
I16384
tp2140
sS'REDWOOD'
p2141
(S'REDWOOD DR'
p2142
I91
I17640
tp2143
sS'0WESTMINSTER'
p2144
(g90
I90
I15991
tp2145
sS'FARMINGTON'
p2146
(S'FARMINGTON AVE'
p2147
I91
I17853
tp2148
sS'WSTMINSTER'
p2149
(g90
I89
I15991
tp2150
sS'VI MINSTER'
p2151
(g367
I69
I16342
tp2152
sS'LOCKWOOD'
p2153
(g1230
I92
I15895
tp2154
sS'AR- CADE BLDG'
p2155
(S'ARCADE ST'
p2156
I73
I15773
tp2157
sS'BROAD EDGE; WOOD'
p2158
(g167
I76
I15793
tp2159
sS'ALLERFS AV'
p2160
(g323
I78
I15768
tp2161
sS'ELM'
p2162
(S'ELM ST'
p2163
I83
I15837
tp2164
sS'ELMWOOD AV'
p2165
(g633
I97
I17207
tp2166
sS'. EDDY'
p2167
(g20
I86
I15834
tp2168
sS'-9 ITALY'
p2169
(S'ITALY ST'
p2170
I83
I17546
tp2171
sS'IRVING AV'
p2172
(S'IRVING AVE'
p2173
I97
I17006
tp2174
sS'-1957 WESTMINSTER'
p2175
(g90
I86
I15991
tp2176
sS'WESTMINSTER AND UNION STA'
p2177
(g14
I86
I15991
tp2178
sS'SEABURY'
p2179
(S'SEABURY ST'
p2180
I91
I17320
tp2181
sS'ACADEMY'
p2182
(g39
I89
I17365
tp2183
sS'AMERICA.'
p2184
(g247
I91
I15770
tp2185
sS'354 WEYBOSSET'
p2186
(g102
I86
I15992
tp2187
sS'FRANKLIN'
p2188
(S'FRANKLIN SQ'
p2189
I92
I15856
tp2190
sS'WEST'
p2191
(S'WEST ST'
p2192
I86
I15990
tp2193
sS'FARMINGTON AV'
p2194
(g2147
I98
I17853
tp2195
sS'RICH-. MOND'
p2196
(g326
I73
I15946
tp2197
sS'BENEFIT'
p2198
(g150
I91
I15781
tp2199
sS'GILLEN'
p2200
(S'GILLEN ST'
p2201
I90
I16203
tp2202
sS'FARM- INGTON AV'
p2203
(g261
I84
I17384
tp2204
sS'ADMIRAL 1190 BROAD 48B CAMP 1093 CHALKSTONE AV'
p2205
(g887
I71
I17433
tp2206
sS'ARCADE'
p2207
(g2156
I90
I15773
tp2208
sS'CHARLES L'
p2209
(g941
I92
I16096
tp2210
sS'FOURTH AV'
p2211
(S'FORT AV'
p2212
I84
I16664
tp2213
sS'DORRANCE RMS 401-404'
p2214
(g519
I82
I15829
tp2215
sS'5'
p2216
(S'I 95'
p2217
I53
I15881
tp2218
sS'WOOD- WARD RD'
p2219
(S'WOODWARD RD'
p2220
I81
I16553
tp2221
sS'PETER'
p2222
(S'PETER ST'
p2223
I88
I16395
tp2224
sS', 40'
p2225
(g2021
I32
I16874
tp2226
sS'EVERETT AV'
p2227
(S'EVERETT AVE'
p2228
I97
I16965
tp2229
sS"DYER COR WESTMINSTER TELS DEXTER 8313 AND 8314-F0R FULTHER INFMMATION SEE PAGE 77 BUYERS' GUIDE AND RIGHT TOP LINES"
p2230
(g90
I61
I15991
tp2231
sS'P0- CASSET AV'
p2232
(g678
I84
I17995
tp2233
sS'WALDO'
p2234
(S'WALDO ST'
p2235
I88
I16526
tp2236
sS'CHARLES .'
p2237
(g941
I91
I16096
tp2238
sS'22 DEXTER, PAWTUCKET'
p2239
(g66
I64
I16771
tp2240
sS'DYER'
p2241
(S'DYER ST'
p2242
I86
I15831
tp2243
sS'THAYER'
p2244
(g1175
I90
I17112
tp2245
sS'BISHOP'
p2246
(S'BRISTOW ST'
p2247
I56
I16069
tp2248
sS'BENEVOLENT'
p2249
(g960
I93
I16902
tp2250
sS'KNIGHT'
p2251
(g329
I90
I15890
tp2252
sS'WEYBOSP SET'
p2253
(g853
I76
I15992
tp2254
sS'SNOW'
p2255
(S'SNOW ST'
p2256
I86
I15957
tp2257
sS'GEORGIA AV'
p2258
(g1243
I97
I16671
tp2259
sS'MARCELLO'
p2260
(S'MARCELLO ST'
p2261
I92
I17949
tp2262
sS'FOUNTAIN AND 393 HARRIS AV'
p2263
(g427
I77
I15853
tp2264
sS'BENEVOLENT WEN QUALITY'
p2265
(g960
I84
I16902
tp2266
sS'BRAMAN'
p2267
(S'BRAMAN ST'
p2268
I90
I16907
tp2269
sS'POPE'
p2270
(S'POPE ST'
p2271
I86
I16405
tp2272
sS'CRANSTOXF'
p2273
(g228
I76
I15817
tp2274
sS'LISBON'
p2275
(S'LISBON ST'
p2276
I90
I17569
tp2277
sS'GMMRNOR'
p2278
(g730
I61
I16983
tp2279
sS'MCGRATH HIGHWAY SOMERVILLE, MASS'
p2280
(S'HIGH SERVICE AVE'
p2281
I63
I16232
tp2282
sS'343 FOUNTAIN'
p2283
(g1402
I85
I15853
tp2284
sS'GILES PL'
p2285
(S'MILES AVE'
p2286
I69
I17044
tp2287
sS'PARKIS AV'
p2288
(S'PARKIS AVE'
p2289
I97
I17282
tp2290
sS'WEST RIVER'
p2291
(S'WEST RIVER ST'
p2292
I93
I16541
tp2293
sS'CLIF- FORD TOWER JANIES H IRON WORKS THE 50 BORDEN AND ALLEN,S AV'
p2294
(S'JANES ST'
p2295
I56
I16705
tp2296
sS'BYTIELD'
p2297
(S'BYFIELD ST'
p2298
I78
I16607
tp2299
sS'POEM AND 589 CHARLES'
p2300
(g196
I73
I16096
tp2301
sS"LAUREL HILL AV'"
p2302
(S'LAUREL HILL AVE'
p2303
I98
I17926
tp2304
sS'WISDOM AV'
p2305
(S'WISDOM AVE'
p2306
I97
I17721
tp2307
sS'ALGONQUIN'
p2308
(g592
I93
I17151
tp2309
sS'EATON'
p2310
(S'EATON ST'
p2311
I88
I17478
tp2312
sS'GALLUP'
p2313
(S'GALLUP ST'
p2314
I90
I16668
tp2315
sS'262-264 WEY- BOSSET TELS GASPEE 8200-8201-FOR FURTHER INFORMATION SEE PAGE 62 BUY- ERS, GUIDE'
p2316
(g176
I43
I16362
tp2317
sS'ABBOTT PARK D1'
p2318
(S'ABBOTT PARK PL'
p2319
I93
I15762
tp2320
sS'MAIN, PAW- TUCKET TELS PERRY 4900 AND PLANTA- TIONS 4900-FOR FURTHER INFORMATION SEE PAGE 6 BUYERS GUIDE'
p2321
(g176
I43
I16362
tp2322
sS'MAMON AV'
p2323
(S'MARION AV'
p2324
I77
I16723
tp2325
sS'-1317 PARADE'
p2326
(S'PARADE ST'
p2327
I80
I17278
tp2328
sS'RICE'
p2329
(S'RICE ST'
p2330
I86
I17304
tp2331
sS'CHESTNUT'
p2332
(g78
I92
I15807
tp2333
sS'MATHEWSON RM. 201'
p2334
(g69
I85
I15904
tp2335
sS'PAWTUCKET AV'
p2336
(g66
I84
I16771
tp2337
sS'WASH RM  23'
p2338
(g496
I62
I17712
tp2339
sS'BLAINE'
p2340
(S'BLAINE ST'
p2341
I90
I16061
tp2342
sS'INDUS-'
p2343
(S'INDIA ST'
p2344
I61
I15883
tp2345
sS'A1- 1EN1S AV'
p2346
(g504
I61
I15768
tp2347
sS'HUNT- INGTON AV'
p2348
(g1079
I84
I17236
tp2349
sS'A PRAIRIE AV'
p2350
(g567
I93
I16787
tp2351
sS'ELM- WOOD AV'
p2352
(g633
I82
I17207
tp2353
sS'W1 STER'
p2354
(g1605
I66
I17127
tp2355
sS'WATER-'
p2356
(S'WAITE ST'
p2357
I71
I17707
tp2358
sS'WEYBOSSET RM. 206'
p2359
(g853
I85
I15992
tp2360
sS'WHIPPLE'
p2361
(S'WHIPPLE ST'
p2362
I91
I17716
tp2363
sS'RUGBY'
p2364
(S'BUSBY ST'
p2365
I53
I6702
tp2366
sS'REAR 51 SORREFLTO'
p2367
(S'SORRENTO ST'
p2368
I66
I18046
tp2369
sS'PAGE 4TH FL'
p2370
(S'PAGE ST'
p2371
I83
I15923
tp2372
sS'RANDALL'
p2373
(g1017
I91
I16415
tp2374
sS'S MAIN'
p2375
(S'S MAIN ST'
p2376
I93
I15948
tp2377
sS'PLAINFXELD'
p2378
(g1584
I84
I17994
tp2379
sS'CRANSTON, CRANSTON RI'
p2380
(g228
I85
I15817
tp2381
sS'WEYQBOSSET'
p2382
(g102
I88
I15992
tp2383
sS'-814 ALLEYS AV'
p2384
(g504
I76
I15768
tp2385
sS'FRIENDSHIN'
p2386
(g269
I84
I15858
tp2387
sS'WEYBOS- SET'
p2388
(g102
I81
I15992
tp2389
sS'BENELITT'
p2390
(g150
I79
I15781
tp2391
sS'HARLAM'
p2392
(S'HARLAM ST'
p2393
I90
I17885
tp2394
sS'FRIENDSHIP'
p2395
(g269
I93
I15858
tp2396
sS'HOLDEN'
p2397
(S'HOLDEN ST'
p2398
I90
I17532
tp2399
sS'HOPKINS'
p2400
(S'HOPKINS ST'
p2401
I91
I15876
tp2402
sS"' POMONA. AV"
p2403
(S'POMONA AVE'
p2404
I97
I17628
tp2405
sS'MONTICELLO'
p2406
(S'MONTICELLO ST'
p2407
I93
I16348
tp2408
sS'ADELAIDE AV'
p2409
(S'ADELAIDE AVE'
p2410
I98
I17148
tp2411
sS'263 RICHMOND'
p2412
(g455
I85
I15946
tp2413
sS', INDIA FT HOPE'
p2414
NsS'MATHEWSON RMS 605- 606'
p2415
(g57
I83
I15904
tp2416
sS'N MAIN'
p2417
(S'NORTH VIEW TERR'
p2418
I78
I18651
tp2419
sS'9TH'
p2420
(S'9TH ST'
p2421
I83
I16879
tp2422
sS'6'
p2423
(g1886
I39
I16876
tp2424
sS'WESTMINSTER 3D FL'
p2425
(g90
I88
I15991
tp2426
sS'LAUREL AV'
p2427
(S'LAUREL AVE'
p2428
I97
I17018
tp2429
sS'144 WESTMINSTER'
p2430
(g90
I88
I15991
tp2431
sS'EMPIRE 2ND'
p2432
(g820
I87
I15840
tp2433
sS'MAUNEY'
p2434
(g1172
I75
I17261
tp2435
sS'RIDGE'
p2436
(S'RIDGE ST'
p2437
I88
I18010
tp2438
sS'NARRAGANSETT'
p2439
(S'NARRAGANSETT ST'
p2440
I94
I16747
tp2441
sS'PROMENADE -'
p2442
(g645
I93
I17630
tp2443
sS'FEDERAL'
p2444
(g1985
I91
I15848
tp2445
sS'BWAY'
p2446
(g11
I73
I16580
tp2447
sS'WESTMINSTER'
p2448
(g14
I94
I15991
tp2449
sS'CAM- DEN AV'
p2450
(g1810
I78
I17421
tp2451
sS'MATHEWSON RM'
p2452
(g69
I91
I15904
tp2453
sS'H0SPITAL TRUST'
p2454
(S'HOSPITAL ST'
p2455
I84
I15878
tp2456
sS'FOUNTAIN'
p2457
(g427
I92
I15853
tp2458
sS'COMMODORE'
p2459
(S'COMMODORE ST'
p2460
I93
I16115
tp2461
sS'MALVERN'
p2462
(S'MALVERN ST'
p2463
I91
I16307
tp2464
sS'RICH- MOND'
p2465
(g455
I73
I15946
tp2466
sS'FRIEND-'
p2467
(S'FRIENDSHIP ST'
p2468
I69
I15858
tp2469
sS'LOWELL AV'
p2470
(S'LOWELL AVE'
p2471
I97
I17938
tp2472
sS'- CHALKSTONE AV'
p2473
(g991
I98
I17433
tp2474
sS'PINEHURST AV'
p2475
(S'PINEHURST AVE'
p2476
I98
I17626
tp2477
sS'NARRAGAN- SETT AV'
p2478
(S'NARRAGANSETT AV'
p2479
I88
I17270
tp2480
sS'-147 PLAIN-'
p2481
(S'PLAIN ST'
p2482
I79
I15934
tp2483
sS'-585 HARRIS AV'
p2484
(S'HARRIS AVE'
p2485
I89
I15869
tp2486
sS"JEWEIL '"
p2487
(g1270
I75
I17911
tp2488
sS'EDDY ,'
p2489
(g20
I86
I15834
tp2490
sS'28 GORDON AV'
p2491
(S'GORDON AVE'
p2492
I91
I16675
tp2493
sS"'80 CHALKSTONE AV"
p2494
(g991
I93
I17433
tp2495
sS'WAINWRIGHT'
p2496
(S'WAINWRIGHT ST'
p2497
I93
I17706
tp2498
sS'PAYTON'
p2499
(S'PAYTON ST'
p2500
I90
I16773
tp2501
sS'-211'
p2502
(S'11TH ST'
p2503
I48
I16869
tp2504
sS'E MANNING'
p2505
(g1979
I94
I16951
tp2506
sS'WESTMINSTER AND UNION STA.'
p2507
(g90
I86
I15991
tp2508
sS'CO 304 DEAN'
p2509
(S'DEAN ST'
p2510
I72
I15825
tp2511
sS'ALLEN1S AV'
p2512
(g323
I91
I15768
tp2513
sS'RALPH'
p2514
(S'RALPH ST'
p2515
I88
I18005
tp2516
sS'DIKE'
p2517
(S'DIKE ST'
p2518
I86
I17827
tp2519
sS'PEARL'
p2520
(S'PEARL AV'
p2521
I88
I16774
tp2522
sS'LEDGE'
p2523
(g1265
I88
I16275
tp2524
sS'SAYLES'
p2525
(S'SAYLES ST'
p2526
I90
I16809
tp2527
sS"' WILLARD AV"
p2528
(g164
I97
I16863
tp2529
sS"P'OTTEFS AV"
p2530
(g8
I79
I16786
tp2531
sS'EDDY 3D 1'
p2532
(g20
I81
I15834
tp2533
sS'- N MAIN'
p2534
(g51
I93
I15916
tp2535
sS'DVER AV'
p2536
(S'DENVER AV'
p2537
I84
I16640
tp2538
sS'WESTMINSTER 4TH FL'
p2539
(g14
I90
I15991
tp2540
sS'WEYBOSSET, EDDY PINE & GARNET'
p2541
(g102
I79
I15992
tp2542
sS'WEST- MINSTER 5TH 11'
p2543
(g14
I78
I15991
tp2544
sS'MELROSE'
p2545
(S'MELROSE ST'
p2546
I91
I17263
tp2547
sS'10-12 BEACH'
p2548
(S'BEACH ST'
p2549
I76
I16050
tp2550
sS'EDDY 6TH FL'
p2551
(g20
I83
I15834
tp2552
sS"WESTMIN- STER TELS GASPEE 6582-FOR FURTHER INFORMATION SEE PAGE 158 BUYERS' GUIDE"
p2553
(g176
I44
I16362
tp2554
sS'-152 DOR-'
p2555
(g1442
I50
I15880
tp2556
sS'INC 150-152 DOR- RANCE TELS GASPEE 6682-3'
p2557
(S'GASPEE ST'
p2558
I64
I15863
tp2559
sS'EDDY 3D 11'
p2560
(g558
I79
I15834
tp2561
sS'DEXTER N'
p2562
(g723
I88
I17198
tp2563
sS'& PRAIRIE AV'
p2564
(g567
I97
I16787
tp2565
sS'BENEFIT TELE- PHONE-FOR FURTHER INFORMATION SEE'
p2566
(g917
I49
I15978
tp2567
sS'WESTMINSTER RMB'
p2568
(g14
I91
I15991
tp2569
sS'DONELSON'
p2570
(S'DONELSON ST'
p2571
I92
I17470
tp2572
sS'95 PLEAS- ANT VALLEY PKWY'
p2573
(g903
I71
I17693
tp2574
sS'-243 ,WESTMINSTER'
p2575
(g90
I88
I15991
tp2576
sS"AREZZO ANTONIO 12' ANDREW"
p2577
(g1049
I62
I17947
tp2578
sS'TORONTO AV'
p2579
(S'TORONTO AVE'
p2580
I97
I16840
tp2581
sS'BROAD'
p2582
(g161
I88
I15793
tp2583
sS"DYER COR WESTMINSTER TELS DEXTER 8313 AND 8314-FOR FURTHER INFORMATION SEE PAGE 94 BUYERS' GUIDE-AND RIGHT TOP LINES"
p2584
(g14
I61
I15991
tp2585
sS'KILLINGLY'
p2586
(S'KILLINGLY ST'
p2587
I93
I17917
tp2588
sS"WEYBOSSET RMS 525-526-FOR FURTHER INFORMA- TION SEE PAGE 94 BUYERS' GUIDE"
p2589
(g102
I64
I15992
tp2590
sS'CLIFFORD *'
p2591
(S'CLIFFORD ST'
p2592
I92
I15811
tp2593
sS'BROAD-FOR FURTHER INFORMATION SEE PAGE 142 BUYERY GUIDE'
p2594
(g176
I48
I16362
tp2595
sS'WESTMINSTER RM3'
p2596
(g14
I91
I15991
tp2597
sS'PINE 2ND FL'
p2598
(g683
I78
I15933
tp2599
sS'ROBINSON'
p2600
(S'ROBINSON ST'
p2601
I92
I16798
tp2602
sS'WESTMINSTER RM8'
p2603
(g14
I91
I15991
tp2604
sS'WASHINGTON AV'
p2605
(S'WASHINGTON AVE'
p2606
I98
I16854
tp2607
sS'BRIGHTON'
p2608
(S'BRIGHTON ST'
p2609
I92
I17781
tp2610
sS'CLIFFORD 3D FL'
p2611
(g2592
I86
I15811
tp2612
sS'INDUS- TRIAL TRUST BLDG'
p2613
(S'INDUSTRIAL DR'
p2614
I68
I16249
tp2615
sS'INC THE- 237 EDDY'
p2616
(g558
I67
I15834
tp2617
sS'KINGSLEY AV.'
p2618
(g999
I92
I15889
tp2619
sS'MATHEW- SON AND 286 WESTMINSTER'
p2620
(g14
I75
I15991
tp2621
sS'BELLEVUE AV'
p2622
(g2081
I98
I16051
tp2623
sS'ELMWOOD'
p2624
(g633
I89
I17207
tp2625
sS"W'EYBOSSET"
p2626
(g853
I83
I15992
tp2627
sS'AT- WELLS AV'
p2628
(g60
I87
I15775
tp2629
sS'BOWDOIN'
p2630
(S'BOWDOIN ST'
p2631
I91
I17778
tp2632
sS'CO 75 SABIN'
p2633
(S'SABIN ST'
p2634
I76
I15950
tp2635
sS'CLIFFORD 4TH FL'
p2636
(g1386
I88
I15811
tp2637
sS'RADCLIFFE AV'
p2638
(S'RADCLIFFE AVE'
p2639
I98
I17634
tp2640
sS'DYER COR WESTMINSTER TELS DEXTER 8313 AND 8314-F0R FURTHER INFORMATION SEE PAGE 77 BUYERY GUIDE AND RIGHT TOP LINES'
p2641
(g90
I61
I15991
tp2642
sS"258-262 PINE PAWTUCKET, RI TELS PERRY 2988- 89-FOR FURTHER INFORMATION SEE PAGE 35 BUYERS' GUIDE AND BACK COVER"
p2643
(g176
I43
I16362
tp2644
sS'EAST AV'
p2645
(S'EAST ST'
p2646
I85
I15833
tp2647
sS'STENTON AV'
p2648
(S'STENTON AVE'
p2649
I97
I17104
tp2650
sS'W RIVER'
p2651
(g2292
I93
I16541
tp2652
sS'WESTMINSTER RM-413'
p2653
(g90
I87
I15991
tp2654
sS'-81 CANAL'
p2655
(g1414
I81
I15798
tp2656
sS'WESTMINSTER 5TH FL'
p2657
(g14
I90
I15991
tp2658
sS'RESER- VOIR AV'
p2659
(g158
I81
I17303
tp2660
sS'ATWOOD TELS WEST 0141-0212-F0R FURTHER IN- FORMATION SEE PAGE 46 BUYERY GUIDE'
p2661
(g1801
I44
I16150
tp2662
sS'WESTMINSTEPTELS GASPEE 6952 AND 6956'
p2663
(g14
I62
I15991
tp2664
sS'-44-45'
p2665
(S'4TH ST'
p2666
I38
I16874
tp2667
sS'GREENE'
p2668
(g1457
I90
I15866
tp2669
sS'PINE 3DFL'
p2670
(g683
I81
I15933
tp2671
sS'7'
p2672
(S'7TH ST'
p2673
I39
I16877
tp2674
sS', WESTMINSTER'
p2675
(g90
I94
I15991
tp2676
sS'SILVER SPRING'
p2677
(S'SILVER SPRING ST'
p2678
I95
I16454
tp2679
sS'INC 93 BUCKLIN'
p2680
(g1150
I79
I17171
tp2681
sS'HOMESTEAD AV'
p2682
(S'HOMESTEAD AVE'
p2683
I98
I17234
tp2684
sS'ARMINGTON EDGEWOOD RI'
p2685
(g261
I82
I17384
tp2686
sS'THE 434 CENTRAL AV'
p2687
(S'CENTRAL AVE'
p2688
I84
I16095
tp2689
sS'WTIYBOSSET'
p2690
(g102
I78
I15992
tp2691
sS'WATER, E PROVIDENCE'
p2692
(S'PROVIDENCE ST'
p2693
I79
I17299
tp2694
sS'SERVICE STATIONS-CON'
p2695
(g917
I74
I15978
tp2696
sS'INDIA TELS DEXTER 0230-4940-F0R FURTHER INFORMATION SEE PAGE 46 BUYERY GUIDE'
p2697
(g176
I45
I16362
tp2698
sS'BRAY- TON AV'
p2699
(g1686
I82
I15791
tp2700
sS'5 MANTON AV'
p2701
(g452
I93
I17947
tp2702
sS'HANOVER'
p2703
(S'HANOVER ST'
p2704
I91
I17225
tp2705
sS'CANAL, 26 N MAIN'
p2706
(S'CANAL ST'
p2707
I76
I15798
tp2708
sS'BLACKSTONE AND 201 POCASSET AV'
p2709
(S'BLACKSTONE ST'
p2710
I80
I15785
tp2711
sS'SHIP 2D FL'
p2712
(g512
I79
I15955
tp2713
sS'ALLENS AV'
p2714
(g323
I97
I15768
tp2715
sS'HOSPITAL'
p2716
(S'HOSPITAL ST'
p2717
I92
I15878
tp2718
sS'N MAIN 4TH 2'
p2719
(g51
I91
I15916
tp2720
sS'CODDING'
p2721
(S'GOULDING ST'
p2722
I61
I16982
tp2723
sS'SOMERSET'
p2724
(S'SOMERSET ST'
p2725
I92
I17325
tp2726
sS'CENTRAL'
p2727
(S'CENTRAL ST'
p2728
I91
I16616
tp2729
sS'NIANTIC AV'
p2730
(S'NIANTIC AVE'
p2731
I97
I17274
tp2732
sS'ORMSBEE 2D FL'
p2733
(g2
I61
I16384
tp2734
sS'MORTON'
p2735
(S'MORTON ST'
p2736
I90
I16742
tp2737
sS"WAFVLAND'AV"
p2738
(S'WAYLAND AVE'
p2739
I81
I17125
tp2740
sS'CRANSTON CRANSTON'
p2741
(g228
I89
I15817
tp2742
sS'NARRAGANSET AV'
p2743
(S'NARRAGANSETT AV'
p2744
I96
I17270
tp2745
sS'WEST EXCHANGE'
p2746
(g317
I95
I15982
tp2747
sS'SLOCUM'
p2748
(S'SLOCUM ST'
p2749
I90
I18043
tp2750
sS'195 EDDY 3D FL'
p2751
(g20
I74
I15834
tp2752
sS'A PLAIN'
p2753
(g2482
I83
I15934
tp2754
sS'JUDITH'
p2755
(S'JUDITH ST'
p2756
I90
I17913
tp2757
sS'87-93 EMPIRE, 22-30 ABORN'
p2758
(g546
I72
I15839
tp2759
sS'-955 EDDY'
p2760
(g558
I76
I15834
tp2761
sS'ELMHURST AV'
p2762
(S'ELMHURST AVE'
p2763
I98
I17482
tp2764
sS"73 EAGLE TELS GASPEE 1700-2112-FOR FURTHER INFORMATION SEE PAGE 28'BUYERS' GUIDE *MAILING & ADDRESSING"
p2765
(g17
I44
I16362
tp2766
sS"THIRD TELS GASPEE 3621-3622-F01' FURTHER INFORMATION SEE PAGE 108 BUYERS, GUIDE"
p2767
(g176
I45
I16362
tp2768
sS'-673 WEST- MINSTER'
p2769
(g14
I75
I15991
tp2770
sS"WESTMINSTER'RM 16"
p2771
(g14
I88
I15991
tp2772
sS'EMNIRE'
p2773
(g820
I75
I15840
tp2774
sS"'N MAIN"
p2775
(g51
I93
I15916
tp2776
sS'NARRAGANSETT BLVD -'
p2777
(S'NARRAGANSETT BLVD'
p2778
I100
I16745
tp2779
sS'AND 557 CHARLES'
p2780
(g196
I78
I16096
tp2781
sS'POT- TEFS AV'
p2782
(g8
I68
I16786
tp2783
sS'144 SABIN'
p2784
(g1439
I79
I15950
tp2785
sS'HOWELL'
p2786
(S'HOWELL ST'
p2787
I90
I17002
tp2788
sS'I RIDGE'
p2789
(S'RIDGE ST'
p2790
I83
I18010
tp2791
sS"'BENEFIT"
p2792
(g150
I91
I15781
tp2793
sS'BERKSHIRE'
p2794
(S'BERKSHIRE ST'
p2795
I93
I17402
tp2796
sS"PLAIN- FIELD - '"
p2797
(g2482
I81
I15934
tp2798
sS"BRANCH 485'ANGE11"
p2799
(g1660
I83
I16067
tp2800
sS'4664 BRANCL AV'
p2801
(g749
I75
I16067
tp2802
sS"WEST- MINSTER 4TH FLOOR TELS GASPEE 5746- 8432-FOR FURTHER INFORMATION SEE PAGE 88 BUYERY GUIDE AND FRONT COVEI'"
p2803
(g176
I43
I16362
tp2804
sS'1153-1155 WESTMINSTER'
p2805
(g14
I81
I15991
tp2806
sS'POTTERS AV'
p2807
(g8
I97
I16786
tp2808
sS'WA- TERMAN'
p2809
(S'WATERMAN ST'
p2810
I83
I15988
tp2811
sS'WATERMAN,'
p2812
(g2810
I92
I15988
tp2813
sS"WESTMINSTER I'IIL 305"
p2814
(g14
I84
I15991
tp2815
sS'EXCHANGE TELS GASPEE 1860-1861-F0R FURTHER INFOR- MATION SEE PAGE 2 BUYERS1 GUIDE AND RIGHT TOP LINES'
p2816
(g31
I60
I15845
tp2817
sS'UDELL'
p2818
(S'UDELL ST'
p2819
I88
I16506
tp2820
sS'1143-1155 WESTMINSTER TELS GASPEE 1141-1142-1143-FOR FUR- THER INFORMATION SEE PAGE 30 BUY- ERG GUIDE'
p2821
(g90
I62
I15991
tp2822
sS"PINE '"
p2823
(g555
I86
I15933
tp2824
sS'ARCADE BLDG'
p2825
(g2156
I85
I15773
tp2826
sS'EXCHANGE RMS 121-127'
p2827
(g31
I82
I15845
tp2828
sS'-814 ALLENS AV'
p2829
(g323
I89
I15768
tp2830
sS'A SMITH'
p2831
(g220
I83
I16457
tp2832
sS'-10-12 ARCADE BLDZ'
p2833
(g2156
I77
I15773
tp2834
sS'ARCADE BLDS'
p2835
(g2156
I90
I15773
tp2836
sS'LTD BEVERAGE HILL AV AND BERRY 1 SORINZ ST'
p2837
(S'EVERGREEN ST'
p2838
I56
I16966
tp2839
sS'ARCADE BLDZ'
p2840
(S'ARCADE ST'
p2841
I85
I15773
tp2842
sS'CUSTONI'
p2843
(g2071
I65
I16696
tp2844
sS'186 BWAY'
p2845
(g11
I64
I16580
tp2846
sS'CHARLES'
p2847
(g196
I91
I16096
tp2848
sS'LANGDON'
p2849
(S'LANGDON ST'
p2850
I91
I16272
tp2851
sS'CHARLES, 771 N MAIN AND 1055 SMITH'
p2852
(g196
I71
I16096
tp2853
sS'8'
p2854
(S'8TH ST'
p2855
I39
I16878
tp2856
sS'; GORDON AV'
p2857
(g2492
I97
I16675
tp2858
sS'CRANSTON AT FIELD CRANSTON'
p2859
(g228
I79
I15817
tp2860
sS"258-262 PINE PAWTUCKET RI TELS PERRY 2988- 89-FOR FURTHER INFORMATION SEE PAGE 32 BUYERY GUIDE AND BACK COVQI'"
p2861
(g17
I42
I16362
tp2862
sS"' PROVIDENCE ARCTIC"
p2863
(S'PROVIDENCE ST'
p2864
I90
I14662
tp2865
sS'HAMILTON'
p2866
(S'HAMILTON ST'
p2867
I92
I17223
tp2868
sS'HAWK- INS'
p2869
(g2118
I75
I16223
tp2870
sS'SEEKONK'
p2871
(S'SEEKONK ST'
p2872
I91
I17097
tp2873
sS'-61 CANAL'
p2874
(g2707
I81
I15798
tp2875
sS'PONTIAC'
p2876
(S'PONTIAC AVE'
p2877
I89
I17292
tp2878
sS'GROTTO AV'
p2879
(S'GROTTO AVE'
p2880
I97
I16987
tp2881
sS"WEY' BOSSET"
p2882
(g853
I81
I15992
tp2883
sS'N MAIN RM14'
p2884
(g586
I89
I15916
tp2885
sS'; SMITH'
p2886
(g220
I88
I16457
tp2887
sS'FRIEND- SHIP 3D FL'
p2888
(g269
I74
I15858
tp2889
sS'GILES 61'
p2890
(S'MILES AVE'
p2891
I69
I17044
tp2892
sS'TRAVERSE'
p2893
(S'TRAVERSE ST'
p2894
I92
I17117
tp2895
sS'S PACKAGE STORE 19311; ELMWOOD AV'
p2896
(S'PACKET ST'
p2897
I56
I15922
tp2898
sS"W'ESTMINSTER"
p2899
(g14
I85
I15991
tp2900
sS'WASH AND 109-111 MATHEWSON'
p2901
(g69
I73
I15904
tp2902
sS'& M W INC 91 SABIN TELS DEXTER 33250-5381'
p2903
(g723
I63
I17198
tp2904
sS'ARMISTICE BLVD PAWTUCKET'
p2905
(S'KRISTEN CT'
p2906
I55
I16269
tp2907
sS'ATWELL GASPEE 3358'
p2908
(g60
I77
I15775
tp2909
sS'FOUNTAIN COR ABORN'
p2910
(g427
I81
I15853
tp2911
sS'CHALKSTONE A1 AND 821 POTTEFS AV'
p2912
(g991
I78
I17433
tp2913
sS'792 WESTMINSTER'
p2914
(g14
I88
I15991
tp2915
sS"' LLOYD AV"
p2916
(S'LLOYD AVE'
p2917
I97
I17025
tp2918
sS'EDDY M 508'
p2919
(g558
I79
I15834
tp2920
sS'KEN- YON'
p2921
(S'KENYON ST'
p2922
I71
I15888
tp2923
sS'A N MAIN'
p2924
(g51
I90
I15916
tp2925
sS'WI11ARD AV'
p2926
(g387
I75
I16530
tp2927
sS'AND'
p2928
(S'ANDY ST'
p2929
I73
I16020
tp2930
sS'CEN- TRAL AV'
p2931
(g2688
I82
I16095
tp2932
sS"WESTMIN' STER"
p2933
(g90
I81
I15991
tp2934
sS'NORTH BROADWAY'
p2935
(S'GRAND BROADWAY'
p2936
I85
I16209
tp2937
sS'BUY- ERS  GUIDE'
p2938
(g1058
I60
I16606
tp2939
sS'PETTEYS AV'
p2940
(S'PETTEYS AVE'
p2941
I97
I17990
tp2942
sS"EXCHANGE PL 'RM 509"
p2943
(g875
I83
I15846
tp2944
sS'ALTHEA .'
p2945
(g543
I90
I17152
tp2946
sS"CANAL'"
p2947
(g1414
I88
I15798
tp2948
sS'263 S MAIN'
p2949
(g1253
I87
I15948
tp2950
sS'MEDWAY'
p2951
(g1393
I90
I17040
tp2952
sS'ORMSBEE LST FL'
p2953
(g2
I70
I16384
tp2954
sS'FED- ERAL'
p2955
(g1985
I75
I15848
tp2956
sS'NICHOLS AND 137 CANAL'
p2957
(S'NICHOLAS BROWN YARD ST'
p2958
I72
I17054
tp2959
sS'SUMMER'
p2960
(S'SUMMER ST'
p2961
I90
I15965
tp2962
sS'WEYL'
p2963
(S'DEWEY ST'
p2964
I58
I17197
tp2965
sS'FARRAGUT AV'
p2966
(S'FARRAGUT AVE'
p2967
I98
I16659
tp2968
sS'S MAIN -'
p2969
(g2376
I93
I15948
tp2970
sS'CHALKSTONE AV'
p2971
(g887
I98
I17433
tp2972
sS'PUBLIC TELS DEXTER 0051 AND WII- LIAMS 3134-FOR FURTHER INFORMATION'
p2973
(g17
I43
I16362
tp2974
sS"AND HOPKINS 6834-*FOR FURTHER IN- FORMATION SEE PAGE 4 BUYERS' GUIDE WHEN QUALITY"
p2975
(g917
I45
I15978
tp2976
sS"C'RANDALL"
p2977
(g1017
I87
I16415
tp2978
sS'ATWELLS AV,'
p2979
(g994
I97
I15775
tp2980
sS'ADMIRAL, 127 CANTON AND 563 CHARLES'
p2981
(g690
I70
I16005
tp2982
sS'LEXINGTON AV'
p2983
(S'LEXINGTON AVE'
p2984
I98
I16281
tp2985
sS'-1444 OCEAN'
p2986
(g1153
I78
I16756
tp2987
sS"ATWELLS AV'"
p2988
(g994
I97
I15775
tp2989
sS'A11E1FS AV'
p2990
(g323
I53
I15768
tp2991
sS'BUYERS4 GUIDE AND RIGHT TOP CORNER CARDS'
p2992
(S'BURNS ST'
p2993
I46
I16075
tp2994
sS"DARTMO'UTH AV"
p2995
(S'DARTMOUTH AVE'
p2996
I86
I17192
tp2997
sS'PINE74TH FL'
p2998
(g555
I61
I15933
tp2999
sS'PRATT'
p3000
(S'PRATT ST'
p3001
I88
I16406
tp3002
sS'VINTON'
p3003
(S'VINTON ST'
p3004
I90
I15981
tp3005
sS'418 BROAD'
p3006
(g161
I79
I15793
tp3007
sS'N'
p3008
(g970
I88
I15918
tp3009
sS'THOMAS S AND VINCENT LUONGO MEMORIAL SQ'
p3010
(S'LUONGO MEMORIAL SQ'
p3011
I79
I15896
tp3012
sS'42 PINE'
p3013
(g683
I78
I15933
tp3014
sS'-1145 WESTMINSTER'
p3015
(g90
I86
I15991
tp3016
sS'; BRANCH AV'
p3017
(g749
I97
I16067
tp3018
sS'EARL'
p3019
(S'EARLY ST'
p3020
I78
I16646
tp3021
sS'GORDON AV'
p3022
(g2492
I97
I16675
tp3023
sS'MRS 139 MATHEWSON'
p3024
(g69
I81
I15904
tp3025
sS'W ESTMINSTER'
p3026
(g14
I85
I15991
tp3027
sS'WINTER'
p3028
(g118
I90
I15999
tp3029
sS'210-'
p3030
(g1672
I48
I16868
tp3031
sS'BYRON'
p3032
(g1117
I71
I16073
tp3033
sS'WASH, 358 WESTMINSTER AND 147 WEYBOSSET'
p3034
(g14
I77
I15991
tp3035
sS'N MAIN 4TH FL AND 720 MTPLEASANT AV'
p3036
(S'MOUNT PLEASANT AVE'
p3037
I71
I17599
tp3038
sS'PINE AND 236 FRIENDSHIP'
p3039
(g836
I79
I17345
tp3040
sS'REAL ES- TATE AND INSURANCE, SPECIALIZING IN FINE RESIDENTIAL PROPERTY 9 S ANGELL'
p3041
(g214
I41
I18055
tp3042
sS'WESTMIN- STER 7TH FL'
p3043
(g90
I78
I15991
tp3044
sS"N 'MAIN 4TH I1"
p3045
(g51
I90
I15916
tp3046
sS'PETTIS'
p3047
(S'PETTIS ST'
p3048
I90
I16396
tp3049
sS"LOMBARDI TELS DEXTER 9850 AND 9851 --FOR FURTHER INFORMATION SEE PAGE 117 BUYERS' GUIDE"
p3050
(g176
I44
I16362
tp3051
sS'SWISS'
p3052
(S'SWISS ST'
p3053
I88
I18061
tp3054
sS'222 SMITH'
p3055
(g1602
I79
I16457
tp3056
sS'PLAINFIELD'
p3057
(g1584
I93
I17994
tp3058
sS"INC 251 FOX POINT BLVD TELS GASPEE 8466-8467- FOR FURTHER INFORMATION SEE PAGE 34 BUYERS' GUIDE"
p3059
(g17
I43
I16362
tp3060
sS'9'
p3061
(g2217
I53
I15881
tp3062
sS'BEVERLY ROOM 7 AND 118 SPRING PAW- TUCKET TELS GASPEE 3935 AND PERRY 7447-F0R FURTHER INFORMATION SEE PAGE 162 BUYERS5 GUIDE'
p3063
(g176
I41
I16362
tp3064
sS'TABER AV'
p3065
(S'TABER AVE'
p3066
I97
I17107
tp3067
sS'WESTMINSTER 303'
p3068
(g90
I91
I15991
tp3069
sS'HUMBOLDT AV'
p3070
(S'HUMBOLDT AVE'
p3071
I98
I17003
tp3072
sS'HIGH, PAWTUCKET TELS PERRY 7900 AND- GASPEE 3392-FOR FURTHER INFORMA- TION SEE PAGE 118 BUYERS, GUIDE'
p3073
(g361
I50
I16772
tp3074
sS'PINE'
p3075
(g683
I86
I15933
tp3076
sS'ANGELL, 72 DORRANCE OFFICE AND PLANT 42 CYR'
p3077
(S'DORRANCE PLZ'
p3078
I70
I15828
tp3079
sS'MARILEW. SOD'
p3080
(S'MARIE CT'
p3081
I73
I16313
tp3082
sS'73 EAGLE TELS GAS- PEE 1700 AND 2112-FOR FURTHER IN- FORMATION SEE PAGE 28 BUYERS2 GUIDE'
p3083
(S'DORMAN AVE'
p3084
I43
I16150
tp3085
sS'I ATWELLS AV'
p3086
(g60
I93
I15775
tp3087
sS'MILES AV'
p3088
(g2891
I97
I17044
tp3089
sS'OAK'
p3090
(S'OAK ST'
p3091
I83
I17974
tp3092
sS"-943 BROAD'"
p3093
(g167
I79
I15793
tp3094
sS'BUYERS9 GUIDE'
p3095
(g1553
I58
I16916
tp3096
sS'BUYERS2 GUIDE'
p3097
(g1553
I58
I16916
tp3098
sS'BALMORAL AV'
p3099
(S'BALMORAL AVE'
p3100
I98
I17394
tp3101
sS'WESTMINSTER RM'
p3102
(g14
I93
I15991
tp3103
sS"MEET' ING"
p3104
(S'MEETING ST'
p3105
I75
I15907
tp3106
sS'WEALTH AV'
p3107
(S'WEALTH AVE'
p3108
I97
I17714
tp3109
sS'WALLING'
p3110
(g493
I64
I17352
tp3111
sS"NORTH BROADWAY E PROV '"
p3112
(S'BROADWAY ST'
p3113
I81
I15794
tp3114
sS'HAR- RIS AV'
p3115
(g2485
I78
I15869
tp3116
sS'EDDY 2ND FL'
p3117
(g558
I78
I15834
tp3118
sS'57 PLAINFIELD'
p3119
(g1515
I88
I17994
tp3120
sS'EXCHANGE PL RM ,18'
p3121
(g875
I84
I15846
tp3122
sS'N MAIN RMM50'
p3123
(g51
I88
I15916
tp3124
sS'LINCOLN AV'
p3125
(S'LINCOLN AVE'
p3126
I97
I16283
tp3127
sS'MAIN'
p3128
(S'MAIDEN LN'
p3129
I71
I15899
tp3130
sS'BWAY AND 64 KENYON'
p3131
(g2922
I72
I15888
tp3132
sS'; BROAD'
p3133
(g161
I88
I15793
tp3134
sS'6 GLOBE AT WATER FRONT'
p3135
(g1475
I73
I15865
tp3136
sS'HO;'
p3137
(S'HOOD ST'
p3138
I55
I15874
tp3139
sS'CHALK-'
p3140
(S'CHAPEL ST'
p3141
I65
I15805
tp3142
sS'MEADER'
p3143
(S'MEADER ST'
p3144
I90
I17957
tp3145
sS"BROAD TELS DEXTER 0442-0443-F0R FURTHER INFORMATION SEE PAGE 59 BUY- ERS' GUIDE AND RIGHT SIDE LINES"
p3146
(g17
I44
I16362
tp3147
sS', GOVERNOR'
p3148
(g730
I92
I16983
tp3149
sS'166 WHITMARSH'
p3150
(S'WHITMARSH ST'
p3151
I86
I17355
tp3152
sS'HEATH AV'
p3153
(g320
I90
I17524
tp3154
sS'; WASH'
p3155
(g416
I60
I17712
tp3156
sS'KINSLEY AV'
p3157
(g999
I97
I15889
tp3158
sS'6 WATERMAN'
p3159
(g580
I88
I15988
tp3160
sS'REAL ES- TATE AND INSURANCE, SPECIALIZING IN IINE RESIDENTIAL PROPERTY 9 S ANGELL TELS PLANTATIONS 3312-3313 AFTER HOURS'
p3161
(g2092
I38
I18055
tp3162
sS'AND 313 HOPE'
p3163
(g603
I71
I15875
tp3164
sS'RICHMAND 3D FL'
p3165
(g455
I76
I15946
tp3166
sS'EMPIRE 2ND FL'
p3167
(g546
I82
I15839
tp3168
sS'CHARLES FIELD'
p3169
(g196
I85
I16096
tp3170
sS'H TOOL SUPPLY CO 190 S WATER'
p3171
(g1790
I45
I17996
tp3172
sS'WEBSTER AV'
p3173
(g1052
I97
I18098
tp3174
sS'CLAVERICK'
p3175
(S'CLAVERICK ST'
p3176
I93
I15809
tp3177
sS'BENEFLT'
p3178
(g150
I78
I15781
tp3179
sS'GUIDE'
p3180
(S'GRIDLEY ST'
p3181
I60
I16213
tp3182
sS'-110-119-138 BENE- FIT'
p3183
(g150
I60
I15781
tp3184
sS'59 PRINTERY'
p3185
(S'PRINTERY ST'
p3186
I86
I16408
tp3187
sS'AMHERST'
p3188
(g772
I91
I17744
tp3189
sS'WESTMINSTER TEL'
p3190
(g90
I95
I15991
tp3191
sS'HOPE'
p3192
(g1753
I86
I15875
tp3193
sS'SORRENTO'
p3194
(S'SORRENTO ST'
p3195
I92
I18046
tp3196
sS'LONGFELLOW'
p3197
(S'LONGFELLOW ST'
p3198
I93
I17251
tp3199
sS'INC 29 WEYBOSSET'
p3200
(g102
I82
I15992
tp3201
sS'73 EAGLE TELS GASPEE'
p3202
(g2558
I70
I15863
tp3203
sS"ALLEN'S AV"
p3204
(g323
I83
I15768
tp3205
sS'BOSTON MASS-FOR FURTHER INFORMATION SEE PAGE 132 BUYERS, GUIDE'
p3206
(g17
I47
I16362
tp3207
sS'HILLTOP'
p3208
(S'HILLTOP DR'
p3209
I91
I16236
tp3210
sS'RING'
p3211
(S'RING ST'
p3212
I86
I18012
tp3213
sS'WESTMINCTER'
p3214
(g14
I85
I15991
tp3215
sS'LAWN'
p3216
(S'LAWN ST'
p3217
I86
I17560
tp3218
sS'WEST MINSTER'
p3219
(g14
I81
I15991
tp3220
sS'FREMONT'
p3221
(S'FREMONT ST'
p3222
I91
I16975
tp3223
sS'MATHEWSON RML'
p3224
(g69
I90
I15904
tp3225
sS'LIVINGSTON'
p3226
(S'LIVINGSTON ST'
p3227
I93
I16287
tp3228
sS'EXCHALIEE PL RM'
p3229
(g875
I65
I15846
tp3230
sS'EAST'
p3231
(g2646
I86
I15833
tp3232
sS'CLIFFORD RETAIL STORE 105 WEST- MINSTERTEL GASPEE 7350'
p3233
(g14
I53
I15991
tp3234
sS'THDMAS'
p3235
(S'THOMAS ST'
p3236
I75
I15969
tp3237
sS'I BROOK'
p3238
(g1975
I83
I15795
tp3239
sS'WESTMINSTER 4TH 11'
p3240
(g14
I90
I15991
tp3241
sS'37 CLEM-'
p3242
(S'CLEMENT ST'
p3243
I60
I16105
tp3244
sS'WEYBOSSET LOCAL 285'
p3245
(g102
I82
I15992
tp3246
sS'ALLELFS AV'
p3247
(g323
I78
I15768
tp3248
sS'COURT- LAND'
p3249
(S'COURTLAND ST'
p3250
I76
I17806
tp3251
sS'- EAGLE'
p3252
(g1835
I88
I17477
tp3253
sS'-232 WEYBOSSET'
p3254
(g102
I86
I15992
tp3255
sS'12-34 DUDLEY'
p3256
(g893
I78
I15830
tp3257
sS'OF R I 109 WATERMAN'
p3258
(g580
I76
I15988
tp3259
sS'58 WENDELL'
p3260
(S'WENDELL ST'
p3261
I85
I16535
tp3262
sS'BOND'
p3263
(S'BOND ST'
p3264
I86
I15786
tp3265
sS"SOUTH MAIN TELS GASPEE 1322-1323- FOR FURTHER INFORMATION SEE PAGE 80 BUYERS' GUIDE"
p3266
(g176
I44
I16362
tp3267
sS"WESTMINSTER RM' 1002"
p3268
(g90
I86
I15991
tp3269
sS'Y010 WEY- BOSSET'
p3270
(g102
I73
I15992
tp3271
sS'S WA-'
p3272
(g1771
I87
I15959
tp3273
sS"BROAD- WAY TELS GASPEE 0289 AND 4120-FOR FURTHER INFORMATION SEE PAGE 73 BUY- ERS' GUIDE"
p3274
(g176
I44
I16362
tp3275
sS'DEXTER'
p3276
(g723
I90
I17198
tp3277
sS'ROGER WILLIAMS AV'
p3278
(S'ROGER WILLIAMS AVE'
p3279
I98
I17306
tp3280
sS'GARNET 1ST FL'
p3281
(g717
I91
I15862
tp3282
sS'NATIONAL BANK OF COMMERCE BLDG'
p3283
(S'NATURAL HISTORY WY'
p3284
I52
I16748
tp3285
sS'INC 728 VALLEY'
p3286
(g903
I76
I17693
tp3287
sS'247 ACADEMY AV'
p3288
(g39
I90
I17365
tp3289
sS'MATHEW- SOIL'
p3290
(g209
I84
I17587
tp3291
sS'A1-'
p3292
(S'RAY'
p3293
I40
I17083
tp3294
sS"DYER CBR WESTMINSTER TELS DEXTER 9313 AND 8314-FOR FURTHER INFORMATION SEE PAGE 94 BUYERS' GUIDE AND RIGHT TOP LINES"
p3295
(g14
I61
I15991
tp3296
sS"WEST- MINST'ER"
p3297
(g14
I72
I15991
tp3298
sS'SHERBURNE'
p3299
(S'SHERBURNE ST'
p3300
I93
I16819
tp3301
sS'PROV COUNTY COURT HOUSE'
p3302
(S'COUNTY ST'
p3303
I75
I16126
tp3304
sS"RHODES CORNER ALLEN'S AV"
p3305
(S'RHODES ST'
p3306
I74
I15945
tp3307
sS'KIMBALL'
p3308
(S'KIMBALL ST'
p3309
I91
I17556
tp3310
sS'JACK- SOD'
p3311
(S'JACKSON ST'
p3312
I70
I16253
tp3313
sS'BENEDICT'
p3314
(S'BENEDICT ST'
p3315
I92
I16053
tp3316
sS'W EXCHANGE'
p3317
(g317
I95
I15982
tp3318
sS"BUYERS' GUIDE AND LEFT TOP LINES"
p3319
(g1597
I54
I16076
tp3320
sS'353 WEYBOSSET'
p3321
(g102
I86
I15992
tp3322
sS'WEYBOSSET RMS 212 AND 401'
p3323
(g102
I79
I15992
tp3324
sS'HARRIS AV'
p3325
(g2485
I97
I15869
tp3326
sS'NORTH MAIN'
p3327
(g51
I93
I15916
tp3328
sS'COURTLAND'
p3329
(g3250
I93
I17806
tp3330
sS'I RESERVOIR AV'
p3331
(g158
I94
I17303
tp3332
sS'I CRANSTON'
p3333
(g297
I88
I15817
tp3334
sS'BLOUNT'
p3335
(S'BELMONT AVE'
p3336
I68
I17398
tp3337
sS'-BATES'
p3338
(g1358
I72
I15778
tp3339
sS"REGENT AV'"
p3340
(g84
I97
I17642
tp3341
sS'262-264 WEY- BOSSET TELS GASPEE 8200-8201-F0R- FURTHER INFORMATION SEE PAGE 51 BUY- ERS, GUIDE'
p3342
(g17
I43
I16362
tp3343
sS'A POCASSET AV'
p3344
(g678
I94
I17995
tp3345
sS'ATLANTIC AV'
p3346
(g341
I98
I16035
tp3347
sS'PEACE'
p3348
(S'PEACE ST'
p3349
I88
I17286
tp3350
sS'P'
p3351
(g561
I39
I16783
tp3352
sS'DORA'
p3353
(S'DORA ST'
p3354
I86
I17830
tp3355
sS'PRESIDENT AV'
p3356
(S'PRESIDENT AVE'
p3357
I98
I17079
tp3358
sS'POT TEFS AV'
p3359
(g906
I68
I16786
tp3360
sS"W'ESTMIN-"
p3361
(g741
I69
I15990
tp3362
sS'86 WEYBOSSET'
p3363
(g102
I87
I15992
tp3364
sS'BASSETT TE GASPEE 5170'
p3365
(S'BASSETT ST'
p3366
I78
I15777
tp3367
sS'RNAMENTAL IRON WORK'
p3368
(S'ORIENTAL ST'
p3369
I59
I17613
tp3370
sS'WASH LST 11'
p3371
(g496
I65
I17712
tp3372
sS"WESTMINSTER' RM"
p3373
(g14
I93
I15991
tp3374
sS'AN- THONY AV'
p3375
(g1295
I87
I17155
tp3376
sS'CANAL'
p3377
(g2707
I88
I15798
tp3378
sS'BROADCASTING STATION 15 CHESTNUT'
p3379
(g1970
I53
I16070
tp3380
sS'WESTMINSTER RM, 601'
p3381
(g90
I87
I15991
tp3382
sS'BROBK'
p3383
(S'BROOK ST'
p3384
I71
I15795
tp3385
sS'BROOLI'
p3386
(g1975
I65
I15795
tp3387
sS'RICHMOND'
p3388
(g455
I92
I15946
tp3389
sS'BRAYTON'
p3390
(g1686
I89
I15791
tp3391
sS'CANAL 7'
p3392
(g2707
I90
I15798
tp3393
sS'MA- THEWSON AND 26 SNOW'
p3394
(g57
I76
I15904
tp3395
sS'365 ATWELLS AV'
p3396
(g60
I90
I15775
tp3397
sS'573 EDDY'
p3398
(g20
I76
I15834
tp3399
sS'BENEFIT TELE- PHONE-FOR FURTHER INFORMATION SEE PAGE 58 BUYERS  GUIDE'
p3400
(g17
I46
I16362
tp3401
sS'MIL- TON'
p3402
(S'MILL ST'
p3403
I78
I15911
tp3404
sS'THE 236 ABORNTTET DEXTER'
p3405
(g381
I57
I15763
tp3406
sS'MATHEWSON TELS GASPEE 2300 AND GASPEE 5592'
p3407
(g69
I70
I15904
tp3408
sS', 754-756 BROAD'
p3409
(g161
I74
I15793
tp3410
sS"'9B ATWELLS AV"
p3411
(g994
I91
I15775
tp3412
sS'FOUNTAIN 2D FL'
p3413
(g427
I86
I15853
tp3414
sS'-24-26 BLACK- STONE BLVD'
p3415
(g1426
I74
I16904
tp3416
sS'PAGE'
p3417
(g252
I86
I15923
tp3418
sS'RHODES COR ALLEWS AV'
p3419
(S'RHODES AV'
p3420
I81
I16792
tp3421
sS'-12 BEACH'
p3422
(S'BEACH ST'
p3423
I81
I16050
tp3424
sS'OGDEN'
p3425
(S'OGDEN ST'
p3426
I88
I17059
tp3427
sS'WESTMINS- TER'
p3428
(g14
I84
I15991
tp3429
sS'HOME'
p3430
(S'HOME AVE'
p3431
I83
I17534
tp3432
sS'MEETING'
p3433
(g3105
I91
I15907
tp3434
sS'POINT'
p3435
(S'POINT ST'
p3436
I88
I15936
tp3437
sS'EM- PIRE'
p3438
(g1408
I77
I15840
tp3439
sS'DORRANCE 3D FL'
p3440
(S'DORRANCE PLZ'
p3441
I88
I15828
tp3442
sS'U MON'
p3443
(S'AUMOND ST'
p3444
I62
I16569
tp3445
sS'BOWLETT'
p3446
(S'BOWLET ST'
p3447
I90
I17779
tp3448
sS'BRO&'
p3449
(g839
I65
I15767
tp3450
sS'RUSSO'
p3451
(S'RUSSO ST'
p3452
I88
I16439
tp3453
sS'V CHARLES'
p3454
(g196
I87
I16096
tp3455
sS'AFL 204 KINSLEY AV'
p3456
(S'KINSLEY AVE'
p3457
I84
I15889
tp3458
sS'ROGER WIL LIAMS AV'
p3459
(S'ROGER ST'
p3460
I77
I17089
tp3461
sS"PUB'LI"
p3462
(g781
I67
I15942
tp3463
sS'N MAIN RM4'
p3464
(g51
I90
I15916
tp3465
sS"INC 150-152 DOR- RANCE TELS GASPEE 6682-6683-FOR FUR- THER INFORMATION SEE PAGE 79 BUYERS' GUIDE AND LEFT BOTTOM LINES"
p3466
(g176
I42
I16362
tp3467
sS'ORCHARD. E PROVIDENCE'
p3468
(S'PROVIDENCE ST'
p3469
I78
I17299
tp3470
sS'WEST. MINSTER'
p3471
(g14
I81
I15991
tp3472
sS'MARI'
p3473
(S'MARIE CT'
p3474
I78
I16313
tp3475
sS'DE- , SOTO'
p3476
(g1644
I77
I17823
tp3477
sS'CRANSTON'
p3478
(g228
I92
I15817
tp3479
sS'48-50 WEY-'
p3480
(g2964
I55
I17197
tp3481
sS"AL- LEN'S AV"
p3482
(g702
I76
I15959
tp3483
sS'HARTFORD AV'
p3484
(S'WHITFORD AVE'
p3485
I76
I7109
tp3486
sS'PINE TELS GASPEE 4925-4926'
p3487
(g2558
I70
I15863
tp3488
sS'BRIDGHAM'
p3489
(S'BRIDGHAM ST'
p3490
I92
I17169
tp3491
sS'HUGO'
p3492
(S'HUGO ST'
p3493
I86
I16242
tp3494
sS'VIRGINIA AV'
p3495
(S'VIRGINIA AVE'
p3496
I98
I16849
tp3497
sS'EASTWOOD AV'
p3498
(S'EASTWOOD AVE'
p3499
I98
I17839
tp3500
sS'BRADFORD'
p3501
(S'BRADFORD ST'
p3502
I92
I15790
tp3503
sS'BLACKSTONE'
p3504
(S'BLACKSTONE PL'
p3505
I93
I15784
tp3506
sS'DORRANCE COR WASH- INGTON'
p3507
(g519
I81
I15829
tp3508
sS'WESTMINGTER'
p3509
(g90
I85
I15991
tp3510
sS"CRANSTON '"
p3511
(g297
I92
I15817
tp3512
sS'211 BROAD'
p3513
(g161
I79
I15793
tp3514
sS'SHELDON ,'
p3515
(S'SHELDON ST'
p3516
I91
I16818
tp3517
sS'145 CRARY'
p3518
(g1573
I79
I15818
tp3519
sS'UNIVERSITY AV'
p3520
(S'UNIVERSITY AVE'
p3521
I98
I17119
tp3522
sS'TOBEY'
p3523
(S'TOBEY ST'
p3524
I88
I18076
tp3525
sS'BROAD PAWTUCKET'
p3526
(g66
I68
I16771
tp3527
sS'SABIN PAWTUCKET TELS PERRY 0410 AND 0411 -FOR FURTHER INFORMATION SEE DAZE 28 BUYERS0 GUIDE'
p3528
(g17
I44
I16362
tp3529
sS'VEAZIE'
p3530
(S'VEAZIE ST'
p3531
I90
I16515
tp3532
sS'WESTMINSTER 16TH'
p3533
(g14
I93
I15991
tp3534
sS'J CO THE 236 ABORN TE-L DEXTER LOOO-FOR FURTHER INFORMATION SEE PAGE 31 BUYERS GUIDE'
p3535
(g176
I44
I16362
tp3536
sS'36 EXCHANGE PL'
p3537
(g31
I86
I15845
tp3538
sS'CARLETON'
p3539
(S'CARLETON ST'
p3540
I92
I17427
tp3541
sS'36 BARNES'
p3542
(S'BARNES ST'
p3543
I83
I16898
tp3544
sS'N MAIN 2D 1'
p3545
(g51
I89
I15916
tp3546
sS"THIRD TELS GASPEE 3621-3622-F0R FURTHER INFORMATION SEE PAGE 108 BUY- ERS' GUIDE"
p3547
(g176
I44
I16362
tp3548
sS'GROOM'
p3549
(S'BROOM ST'
p3550
I71
I16605
tp3551
sS'LESTER'
p3552
(S'LESTER ST'
p3553
I90
I17245
tp3554
sS'OLNEY'
p3555
(g463
I88
I16377
tp3556
sS'LESTEF'
p3557
(S'LESTER ST'
p3558
I75
I17245
tp3559
sS'-1086 WESTMINSTER'
p3560
(g14
I86
I15991
tp3561
sS'115 EMPIRE'
p3562
(g1408
I81
I15840
tp3563
sS'LAURA'
p3564
(S'LAUDER AVE'
p3565
I70
I6877
tp3566
sS"AND PERRY 0190-FOR FURTHER INFORMATION SEE PAGE 35 BUY- ERS' GUIDE"
p3567
(g17
I46
I16362
tp3568
sS'ABBOTT PARK-PL'
p3569
(S'ABBOTT PARK PL'
p3570
I100
I15762
tp3571
sS'18-24 CLIFF'
p3572
(S'CLIFF ST'
p3573
I76
I17441
tp3574
sS'ABBOTT PARK 01 AND 46 CHESTNUT'
p3575
(g78
I69
I15807
tp3576
sS'WESTMIN- STER'
p3577
(g14
I81
I15991
tp3578
sS'DERRY'
p3579
(g1703
I88
I17466
tp3580
sS'69 RICHMOND'
p3581
(g455
I86
I15946
tp3582
sS"RICHMOND' 1"
p3583
(g326
I93
I15946
tp3584
sS'WAYLAND AW'
p3585
(S'WAYLAND AVE'
p3586
I93
I17125
tp3587
sS'WAYLAND AV'
p3588
(g2739
I97
I17125
tp3589
sS'ROGER WIL- LIAMS AV'
p3590
(S'ROGER ST'
p3591
I77
I17089
tp3592
sS'WASHINGTON'
p3593
(g130
I93
I15986
tp3594
sS'AND 75 PLAINFIELD'
p3595
(g1515
I83
I17994
tp3596
sS'EDDY 4TH FL'
p3597
(g20
I83
I15834
tp3598
sS'STAMFORD'
p3599
(S'STAMFORD AVE'
p3600
I90
I17330
tp3601
sS'N MAIN 4TH 11 AND 991 RUSSO'
p3602
(g586
I77
I15916
tp3603
sS"CLEM- EN'CE"
p3604
(S'CLEMENCE ST'
p3605
I71
I15810
tp3606
sS'INC 287 OAK'
p3607
(S'FINCH AVE'
p3608
I62
I16180
tp3609
sS'WHITMARSH'
p3610
(g1191
I93
I17355
tp3611
sS'-197 WESTMINSTER'
p3612
(g14
I88
I15991
tp3613
sS"WESTMINSTER'RM 413"
p3614
(g14
I87
I15991
tp3615
sS'SABIN RMS 9-10'
p3616
(g1439
I82
I15950
tp3617
sS'WESTMINSTER AT DORRANCE'
p3618
(g14
I85
I15991
tp3619
sS'CRAWFORD'
p3620
(g3502
I69
I15790
tp3621
sS'; POCASSET AV'
p3622
(g678
I98
I17995
tp3623
sS'GREENWICH'
p3624
(S'GREENWICH ST'
p3625
I93
I17220
tp3626
sS'OLNEYVILLE SQ RM3'
p3627
(g662
I93
I17978
tp3628
sS'SPRING'
p3629
(S'SPRING ST'
p3630
I90
I16465
tp3631
sS'THURBERS AV'
p3632
(S'THURBERS AVE'
p3633
I98
I16839
tp3634
sS"POT- TER'S AV"
p3635
(S'SOUTH WATER ST'
p3636
I80
I15949
tp3637
sS'-1 ORMS'
p3638
(g2
I81
I16384
tp3639
sS'SACKETT'
p3640
(S'SACKETT ST'
p3641
I91
I17314
tp3642
sS'STEWART'
p3643
(g1380
I91
I15963
tp3644
sS'BROWN'
p3645
(g1117
I88
I16073
tp3646
sS'GESLER'
p3647
(S'GESLER ST'
p3648
I90
I17864
tp3649
sS'SMITH MOFFITT WM A 278 PUBLIC MOORE ANGUS M 910 MANTON AV'
p3650
(S'MOTT ST'
p3651
I47
I17966
tp3652
sS'LORIMER AV'
p3653
(S'LORIMER AVE'
p3654
I97
I17028
tp3655
sS'MAURICE H STEARNS GENL AGENT 170 WESTMINSTER'
p3656
(g90
I69
I15991
tp3657
sS'PENNSYLVANIA AV'
p3658
(S'PENNSYLVANIA AVE'
p3659
I98
I16776
tp3660
sS'ASH'
p3661
(g424
I58
I16031
tp3662
sS'LINDEN'
p3663
(S'LINDEN DR'
p3664
I90
I17023
tp3665
sS'CHALKSTONE AV. .'
p3666
(g887
I98
I17433
tp3667
sS'LEDGE AND 60341; CHARLES'
p3668
(g941
I71
I16096
tp3669
sS'WESTMINSTER COR DORRANCE'
p3670
(g14
I81
I15991
tp3671
sS'DIA- MOND'
p3672
(g973
I75
I17199
tp3673
sS'PROMEN- ADE'
p3674
(g645
I81
I17630
tp3675
sS'PECK GA 8632'
p3676
(S'PECK ST'
p3677
I76
I15928
tp3678
sS'EXDHANGE'
p3679
(g400
I81
I15845
tp3680
sS'APPLETON'
p3681
(g1025
I92
I17749
tp3682
sS'CHAPIN AV'
p3683
(g5
I97
I17800
tp3684
sS'.BROAD'
p3685
(g161
I88
I15793
tp3686
sS'WESTFXELD'
p3687
(S'WESTFIELD ST'
p3688
I82
I17354
tp3689
sS'CUM- BERLAND'
p3690
(S'CUMBERLAND ST'
p3691
I82
I17457
tp3692
sS'WATERMAN'
p3693
(g580
I92
I15988
tp3694
sS'EL- BOW'
p3695
(S'BOW ST'
p3696
I75
I16599
tp3697
sS'20 JACKSON'
p3698
(g3312
I85
I16253
tp3699
sS"375 ALLEN'S AV0TEL WILLIAMS 0050- FOR FURTHER INFORMATION SEE PAGE 105 BUYERS' GUIDE"
p3700
(g17
I44
I16362
tp3701
sS'-14 SMITH'
p3702
(g220
I81
I16457
tp3703
sS'ITALY TELS MANNING 0112 AND WEBW 4685'
p3704
(S'EAST MANNING ST'
p3705
I71
I16951
tp3706
sS'171 ANGELL'
p3707
(g842
I81
I16022
tp3708
sS'DORCHESTER AV'
p3709
(S'DORCHESTER AVE'
p3710
I98
I17831
tp3711
sS'010 6 BILL'
p3712
(S'TOP HILL RD'
p3713
I56
I16497
tp3714
sS'20 MARKET SQ'
p3715
(g2026
I93
I15902
tp3716
sS'WEYBOSSE'
p3717
(g853
I87
I15992
tp3718
sS'BURRILL'
p3719
(g311
I67
I16076
tp3720
sS'CONGDON'
p3721
(S'CONGDON ST'
p3722
I91
I16932
tp3723
sS"O'RMS"
p3724
(S'ORMS ST'
p3725
I76
I16384
tp3726
sS'BAINBRIDGE AV'
p3727
(S'BAINBRIDGE AVE'
p3728
I98
I17757
tp3729
sS'INC KILVERT ST'
p3730
(S'GILBERT ST'
p3731
I69
I17867
tp3732
sS'OSBORN'
p3733
(S'OSBORN ST'
p3734
I90
I17616
tp3735
sS'MATHEWSON RMS 605-606'
p3736
(g69
I83
I15904
tp3737
sS'SISSON'
p3738
(S'SISSON ST'
p3739
I90
I18042
tp3740
sS'W CLIFFORD'
p3741
(S'W CLIFFORD ST'
p3742
I95
I17344
tp3743
sS"BROAD-FOR FURTHER INFORMATION SEE PAGE 142 BUYERS' GUIDE"
p3744
(g176
I48
I16362
tp3745
sS'LAUREL HILL AV'
p3746
(S'LAUREL ST'
p3747
I80
I6878
tp3748
sS'& THAYER'
p3749
(g1175
I90
I17112
tp3750
sS'RICHMOND 5TH FL'
p3751
(S'RICHLAND RD'
p3752
I64
I18382
tp3753
sS'" CALVERLEY'
p3754
(S'CALVERLY ST'
p3755
I87
I17419
tp3756
sS'GLOBE'
p3757
(g1475
I88
I15865
tp3758
sS'LLOYD AV'
p3759
(S'LLOYD AVE'
p3760
I97
I17025
tp3761
sS'ALDRICH'
p3762
(S'ALDRICH ST'
p3763
I91
I16559
tp3764
sS'FARMING- TON AV'
p3765
(S'FARMINGTON AVE'
p3766
I87
I17853
tp3767
sS'POWER RD FACTORY 310 OWEN AV'
p3768
(g105
I53
I17058
tp3769
sS'EDDY AND 120 UNION'
p3770
(g925
I69
I15977
tp3771
sS'WESTMINSTER AM 201'
p3772
(g14
I87
I15991
tp3773
sS'PUBLIC TELS DEXTER 0051 AND'
p3774
(S'PUBLIC ST'
p3775
I75
I15942
tp3776
sS'TAPPAN'
p3777
(S'TAPPAN ST'
p3778
I90
I17680
tp3779
sS"INC 150-152 DOR- RANCE TELS GASPEE 6682-3-FOR FUR- THER INFORMATION SEE PAGE 65 BUYERS' GUIDE AND LEFT BOTTOM LINES"
p3780
(g17
I42
I16362
tp3781
sS'A1- LEN,S AV'
p3782
(g702
I76
I15959
tp3783
sS'1183 EDDY'
p3784
(S'11TH ST'
p3785
I44
I16869
tp3786
sS"FOUNTAIN TELS GASPEE 4000 AND 2728 -FOR FURTHER INFORMATION SEE PAGE 39 BUYERS' GUIDE AND LEFT BOTTOM LINES"
p3787
(g176
I42
I16362
tp3788
sS'-BEVERLY'
p3789
(S'BEVERLY ST'
p3790
I91
I15783
tp3791
sS'GEORGE'
p3792
(g954
I90
I16670
tp3793
sS'202 NATIONAL . BANK OF COMMERCE BLDG'
p3794
(g3284
I51
I16748
tp3795
sS'ELM-A WOOD AV'
p3796
(g258
I78
I17207
tp3797
sS'AND 472 SMITH 291'
p3798
(g220
I74
I16457
tp3799
sS'I POCASSET-AV'
p3800
(g678
I94
I17995
tp3801
sS'SPOONER'
p3802
(S'SPOONER ST'
p3803
I91
I17326
tp3804
sS"'36 WESTMINSTER"
p3805
(g90
I89
I15991
tp3806
sS'NARRAGANSETT BLE'
p3807
(g2778
I95
I16745
tp3808
sS'ANGELL, 72 DOR RANCE OFFICE AND PLANT 42 CYR'
p3809
(g788
I67
I16022
tp3810
sS'AWEST- MINSTER'
p3811
(g90
I79
I15991
tp3812
sS'JACKSON AND 242 BROAD'
p3813
(S'JACKSON WALKWAY'
p3814
I78
I15884
tp3815
sS'BROADWAY'
p3816
(g3113
I92
I15794
tp3817
sS'STANWOOD'
p3818
(S'STANWOOD ST'
p3819
I92
I17331
tp3820
sS'WINTHROP AV'
p3821
(S'WINTHROP AVE'
p3822
I98
I17720
tp3823
sS'WES MINSTER'
p3824
(g14
I79
I15991
tp3825
sS'MATHEW 504'
p3826
(g209
I81
I17587
tp3827
sS"EXCHANGE TELS GASPEE 1860-1861-FOR FURTHER INFORMATION SEE PAGE 2 BUYERS' GUIDE AND RIGHT TOP LINES"
p3828
(g176
I44
I16362
tp3829
sS'THOS S & VINCENT LU- ONGO MEM SQ'
p3830
(S'VINCENT ST'
p3831
I71
I17701
tp3832
sS'VIR-V GINIA AV'
p3833
(g3496
I81
I16849
tp3834
sS"W'ASH"
p3835
(g2192
I90
I15990
tp3836
sS'P0'
p3837
(g561
I32
I16783
tp3838
sS'BWAY, 68 DORRANDE, 191 WASH AND 785 WESTMINSTER'
p3839
(g14
I68
I15991
tp3840
sS'; DEXTER'
p3841
(S'DEXTER CT'
p3842
I90
I6756
tp3843
sS'PARK AND 176 SMITH'
p3844
(g220
I69
I16457
tp3845
sS'WESTMINSTER AND 11 WEYBOSSET'
p3846
(g14
I83
I15991
tp3847
sS'DORA,'
p3848
(S'DORA ST'
p3849
I86
I17830
tp3850
sS'N MAIN 4TH,TL'
p3851
(g51
I90
I15916
tp3852
sS'CLIFFORD'
p3853
(g2592
I92
I15811
tp3854
sS'ACAD- EMY AV'
p3855
(g39
I82
I17365
tp3856
sS"2'43 WEYBOS- SET"
p3857
(g853
I73
I15992
tp3858
sS'A BROAD'
p3859
(g161
I83
I15793
tp3860
sS'MOORE'
p3861
(S'MOORE ST'
p3862
I88
I17265
tp3863
sS'-5 ATWELLS AV'
p3864
(g994
I93
I15775
tp3865
sS'392 ORMS'
p3866
(g2
I76
I16384
tp3867
sS"CRANS- TON ARLINGTON TELS WEST 2457-2458- FOR FURTHER INFORMATION SEE PAGE X AND LEFT 'BOTTOM LINES"
p3868
(g17
I43
I16362
tp3869
sS'MTPLEASANT M'
p3870
(g206
I83
I16399
tp3871
sS'46 CLIFFORD TOP FL'
p3872
(g1386
I84
I15811
tp3873
sS'; EDDY'
p3874
(g558
I86
I15834
tp3875
sS'WESTMINSTER MM 1706'
p3876
(g14
I86
I15991
tp3877
sS'DEVONSHIRE'
p3878
(S'DEVONSHIRE ST'
p3879
I93
I17467
tp3880
sS'A MANTON AV'
p3881
(g452
I93
I17947
tp3882
sS'CHURCH'
p3883
(S'CHURCH ST'
p3884
I90
I16103
tp3885
sS'WESTMIN TER'
p3886
(g90
I79
I15991
tp3887
sS'POCAS- SET AV'
p3888
(g678
I84
I17995
tp3889
sS'INC THE CHANGE PL'
p3890
(g31
I71
I15845
tp3891
sS'WESTMINSTER TELS GASPEE 8356-8357'
p3892
(g90
I77
I15991
tp3893
sS'CHERRY'
p3894
(S'CHERRY ST'
p3895
I90
I16100
tp3896
sS'AND 425 ATWELLS AV'
p3897
(g60
I84
I15775
tp3898
sS"WESTMINSTER RM' 615"
p3899
(g90
I87
I15991
tp3900
sS'AURORA'
p3901
(S'AURORA AV'
p3902
I90
I16570
tp3903
sS'TRUCK OWNERS ASSOCIATION INC 85'
p3904
(g917
I57
I15978
tp3905
sS'WALLACE'
p3906
(S'WALLACE ST'
p3907
I91
I18095
tp3908
sS'EXCHANGE'
p3909
(g400
I92
I15845
tp3910
sS'WEB- STER AV'
p3911
(S'WEBSTER AVE'
p3912
I82
I18098
tp3913
sS"SLATER'AV"
p3914
(S'SLATER AVE'
p3915
I97
I17100
tp3916
sS"WEYBOSSET-RM 34'"
p3917
(g853
I87
I15992
tp3918
sS'STEEPLE'
p3919
(S'STEEPLE ST'
p3920
I91
I15962
tp3921
sS'A THAYER'
p3922
(g1175
I85
I17112
tp3923
sS'DOUG- LAS AV'
p3924
(g406
I82
I16154
tp3925
sS'MURRAY AND 56 TOURO'
p3926
(S'MURRAY ST'
p3927
I78
I17968
tp3928
sS"TELS GASPEE 6964-6965-F0R FUR- THER INFORMATION SEE PAGE 97 BUYERS' GUIDE"
p3929
(g176
I45
I16362
tp3930
sS'- EDDY'
p3931
(g20
I86
I15834
tp3932
sS'IVES AND 355 AN-'
p3933
(g223
I72
I17007
tp3934
sS'375 ALLEXFS AV'
p3935
(g504
I72
I15768
tp3936
sS'2 FREIGHT HOUSE'
p3937
(S'CREIGHTON ST'
p3938
I67
I16935
tp3939
sS',143 SUMMER'
p3940
(g2961
I81
I15965
tp3941
sS'-33 ABORN'
p3942
(g381
I81
I15763
tp3943
sS'BORDEN TELS DEXTER 0243-0244'
p3944
(g1167
I74
I15787
tp3945
sS'-44 COLLEGE'
p3946
(S'COLLEGE ST'
p3947
I85
I15812
tp3948
sS'WASH'
p3949
(g496
I60
I17712
tp3950
sS'EDDY 4TH 1T'
p3951
(g558
I83
I15834
tp3952
sS'ETHAN'
p3953
(S'ETHAN ST'
p3954
I88
I17847
tp3955
sS'RANKIN AV'
p3956
(S'RANKIN AVE'
p3957
I97
I17636
tp3958
sS'POND'
p3959
(S'POND ST'
p3960
I86
I15937
tp3961
sS'AR-'
p3962
(S'ARK CT'
p3963
I65
I17382
tp3964
sS'BROAD RM'
p3965
(g161
I87
I15793
tp3966
sS'GAY'
p3967
(S'GAY ST'
p3968
I83
I16669
tp3969
sS'.110 RLGNT BOTTOM NNES'
p3970
(S'BLOOM ST'
p3971
I57
I16062
tp3972
sS'INDIA'
p3973
(g2344
I88
I15883
tp3974
sS'BROAD, EDGEWOOD'
p3975
(S'EDGEWOOD AV'
p3976
I82
I16650
tp3977
sS'THE 159 WEYBOS- SET'
p3978
(g853
I70
I15992
tp3979
sS'CENTRAL AV'
p3980
(g2688
I97
I16095
tp3981
sS"WESTMINSTER TE'L GASPEE 8300, 244 WEYBOSSET, 176 ANGELL, 434 SMITH AND 1 OLNEYVILLE SQ-FOR FURTHER IN- FORMATION SEE PAGE 25 BUYERS1 GUIDE AND LEFT BOTTOM LINES"
p3982
(g14
I58
I15991
tp3983
sS'MFPLEASANT AV'
p3984
(S'PLEASANT AV'
p3985
I90
I16399
tp3986
sS'INC 86 WEYBOSSET'
p3987
(g853
I82
I15992
tp3988
sS"CHALK'STONE AV"
p3989
(g887
I80
I17433
tp3990
sS'AND 370 WEY- BOSSET'
p3991
(g853
I70
I15992
tp3992
sS"THE 61 PINE AND 82 ORANGE TELS GASPEE 2980 AND MANNING 9077-FOR FURTHER INFORMA- TION SEE PAGE 140 BUYERS' GUIDE"
p3993
(g1979
I60
I16951
tp3994
sS'N MAIN 4TH FL'
p3995
(g51
I90
I15916
tp3996
sS'CRANSTON, CR TELS'
p3997
(g297
I87
I15817
tp3998
sS'JACK- S011'
p3999
(g124
I68
I16253
tp4000
sS'SALINA.'
p4001
(S'SALINA ST'
p4002
I90
I17658
tp4003
sS'-130 W EXCHANGE 4TH FL'
p4004
(g317
I87
I15982
tp4005
sS'SPRUCE9'
p4006
(S'SPRUCE ST'
p4007
I83
I15961
tp4008
sS'PLAIN- FIELD'
p4009
(g1108
I81
I15934
tp4010
sS"ELMWOOD AV'"
p4011
(g633
I97
I17207
tp4012
sS'ANGIEN'
p4013
(S'ANNIE ST'
p4014
I65
I17377
tp4015
sS'; PRAIRIE AV'
p4016
(g1532
I97
I16787
tp4017
sS'EDDY 4TH 11'
p4018
(g20
I83
I15834
tp4019
sS'DEAN'
p4020
(S'DEAN ST'
p4021
I86
I15825
tp4022
sS'CLUB 143 WASH'
p4023
(S'COLUMBIA AV'
p4024
I58
I16627
tp4025
sS"S MAIN '"
p4026
(g2376
I93
I15948
tp4027
sS'SUMTER'
p4028
(S'SUMTER ST'
p4029
I90
I17333
tp4030
sS'FLORA'
p4031
(g1652
I88
I16182
tp4032
sS'BR'
p4033
(g381
I48
I15763
tp4034
sS'SPRUCE'
p4035
(S'SPRUCE ST'
p4036
I90
I15961
tp4037
sS'FAIRLIELD AV'
p4038
(S'FAIRFIELD AVE'
p4039
I88
I17851
tp4040
sS'WEY- BOSSET TELS GASPEE 3817 AND 6375- FOR FURTHER INFORMATION SEE PAGE 104 BUYERS0 GUIDE'
p4041
(g17
I44
I16362
tp4042
sS'ABBOTT PARK PL 3D'
p4043
(g2319
I95
I15762
tp4044
sS'MATHEWSON DEXTER 7912'
p4045
(g57
I83
I15904
tp4046
sS'ARLINGTON AV'
p4047
(S'ARLINGTON AVE'
p4048
I98
I16892
tp4049
sS'BUYERS, GUIDE'
p4050
(g1553
I62
I16916
tp4051
sS'PINE 2D FLOOR'
p4052
(S'FLORA ST'
p4053
I59
I16182
tp4054
sS'UXBRIDGE CRANSTON, RI FTEL UNION OLOO-FOR FURTHER INFORMA- TIN SEE PAGE 101 BUYERS, GUIDE'
p4055
(g532
I52
I15792
tp4056
sS'; WEYBOSSET'
p4057
(g102
I93
I15992
tp4058
sS'WESTMIN'
p4059
(g14
I72
I15991
tp4060
sS'WESTMIL'
p4061
(g881
I69
I17354
tp4062
sS'JOHN'
p4063
(g2134
I86
I16259
tp4064
sS'CLEM- 81106'
p4065
(g1672
I34
I16868
tp4066
sS'WESTMINSTER ARCADE BUILDING'
p4067
(g14
I79
I15991
tp4068
sS'MURRAY'
p4069
(g3927
I90
I17968
tp4070
sS'STOKER'
p4071
(S'STOKES ST'
p4072
I75
I18058
tp4073
sS'STOKES'
p4074
(g4072
I90
I18058
tp4075
sS'287-289 PEARL'
p4076
(g2521
I74
I16774
tp4077
sS"BROAD '"
p4078
(g161
I88
I15793
tp4079
sS'ATWELH AV'
p4080
(g994
I78
I15775
tp4081
sS'PRAI'
p4082
(g567
I63
I16787
tp4083
sS'AND 37C BOSSET'
p4084
(g102
I63
I15992
tp4085
sS'PLAINTIELD'
p4086
(g1515
I84
I17994
tp4087
sS'E TRANSIT'
p4088
(S'E TRANSIT ST'
p4089
I94
I16954
tp4090
sS'CUSTOMV HOUSE ST'
p4091
(g1619
I94
I15820
tp4092
sS'BATH'
p4093
(S'BATH ST'
p4094
I86
I17396
tp4095
sS'KING'
p4096
(S'KING AV'
p4097
I86
I16711
tp4098
sS'FRIENDSHIP 2D FL'
p4099
(g2468
I88
I15858
tp4100
sS'DANIEL AV'
p4101
(S'DANIEL AVE'
p4102
I97
I17817
tp4103
sS'CRANSTONW'
p4104
(g297
I87
I15817
tp4105
sS'WESTMINSTER AND 572 ELMWOOD AV'
p4106
(g14
I77
I15991
tp4107
sS'72 WEYBOSSET'
p4108
(g102
I87
I15992
tp4109
sS'WESTMIN- STER RMS 301 AND 914'
p4110
(g90
I70
I15991
tp4111
sS'CHAPMAN'
p4112
(g1759
I91
I16617
tp4113
sS"BUYERS' GUIDE"
p4114
(g99
I62
I16916
tp4115
sS'RANDALL TELS DEXTER 8094-8095-F0R FURTHER INFOR- MATION SEE PAGE 102 BUYERY GUIDE AND LEFT TOP LINES'
p4116
(g1197
I59
I16415
tp4117
sS'WESTMINSTER RMS 604-605'
p4118
(g14
I85
I15991
tp4119
sS'-15 POM- FRET TELS GASPEE 0414-0415'
p4120
(g2558
I66
I15863
tp4121
sS"E MARKET 'CANVAS PRODUCTS"
p4122
(S'EAST APPROACH'
p4123
I50
I15832
tp4124
sS'CHALKSTON'
p4125
(g887
I86
I17433
tp4126
sS'CLIT- FORD'
p4127
(g2592
I60
I15811
tp4128
sS'GRAMS- TON'
p4129
(S'GRAHAM ST'
p4130
I70
I16984
tp4131
sS'SEEBELL'
p4132
(g1828
I65
I17768
tp4133
sS'WEST- MINSTER'
p4134
(g14
I81
I15991
tp4135
sS'SPRAGUE'
p4136
(g1076
I91
I17327
tp4137
sS'CROSS'
p4138
(S'CROSS ST'
p4139
I88
I16129
tp4140
sS'-60 TAFT AV'
p4141
(g1120
I89
I16484
tp4142
sS'CUSTOM HOME ST'
p4143
(g564
I95
I15820
tp4144
sS'184 BROAD'
p4145
(g161
I79
I15793
tp4146
sS'MOOREFLELD'
p4147
(S'MOOREFIELD ST'
p4148
I84
I17965
tp4149
sS'AND 36 CARPENTER'
p4150
(S'CARPENTER ST'
p4151
I82
I15801
tp4152
sS'WESTMINSTER 1M 55'
p4153
(g14
I88
I15991
tp4154
sS'ATWELLS AW'
p4155
(g994
I93
I15775
tp4156
sS'ATWELLS AV'
p4157
(g60
I97
I15775
tp4158
sS'; CRANSTON'
p4159
(g228
I92
I15817
tp4160
sS'EDDY AND 71 WILLARD'
p4161
(S'WILLARD ST'
p4162
I74
I16545
tp4163
sS'GRAN'
p4164
(S'GRANDVIEW DR'
p4165
I56
I1333
tp4166
sS'THOMAS'
p4167
(S'HOLMAN ST'
p4168
I67
I8950
tp4169
sS'EDDY 5TH FL'
p4170
(g558
I83
I15834
tp4171
sS"SABIN, PAWTUCKET TELS DEXTER 1124 AND PERRY 9512- FOR FURTHER INFORMATION SEE PAGE 146 BUYERS' GUIDE"
p4172
(g176
I43
I16362
tp4173
sS"WEYBOS- SET-TEL GASPEE 7000-FOR FURTHER IN FORMATION SEE PAGE 57 BUYERS' GUIDE AND LEFT SIDE LINES"
p4174
(S'W FOUNTAIN ST'
p4175
I43
I15983
tp4176
sS'WESTMINSTEFTEL GASPEE 9495'
p4177
(g90
I70
I15991
tp4178
sS'ACADEMY AV'
p4179
(g39
I97
I17365
tp4180
sS'CLIFFORD 3RD FL'
p4181
(g2592
I84
I15811
tp4182
sS'LOCUST'
p4183
(S'LOCUST ST'
p4184
I90
I17027
tp4185
sS'G MESSENGER'
p4186
(S'MESSENGER ST'
p4187
I89
I15909
tp4188
sS'48-50 WGY- BOSSET'
p4189
(g102
I68
I15992
tp4190
sS'MA.-'
p4191
(S'MAY ST'
p4192
I65
I16325
tp4193
sS'TELS DEXTER 9576 AND HOP- KINS 6834AF0R FURTHER INFORMATION SEE PAGE 4 BUYERSH GUIDE'
p4194
(g17
I44
I16362
tp4195
sS'N MAIN 4TL'
p4196
(g51
I94
I15916
tp4197
sS'N MAIN 4TH'
p4198
(g51
I94
I15916
tp4199
sS"258-262 PINE PAWTUCKET RI TELS PERRY 2988-89 FOR FURTHER INFORMATION SEE PAGE 35 BUYERS' GUIDE AND BACK COVER"
p4200
(g176
I43
I16362
tp4201
sS'S LIQUOR STORE.140 THAYER'
p4202
(S'CLIFFORD ST'
p4203
I46
I6725
tp4204
sS'DORRANCE'
p4205
(g519
I92
I15829
tp4206
sS'-21 MAGNOLIA'
p4207
(g1782
I86
I17944
tp4208
sS'CRANSTON, CRANSTON'
p4209
(g228
I89
I15817
tp4210
sS'WESTMINSTER SUITE 313'
p4211
(g90
I90
I15991
tp4212
sS"CLIFFORD  *PURNITM'E STORAGE"
p4213
(g1386
I77
I15811
tp4214
sS'561 S MAIN'
p4215
(g1253
I87
I15948
tp4216
sS'ALABAMA AV'
p4217
(S'ALABAMA AVE'
p4218
I97
I16556
tp4219
sS'FOREST'
p4220
(S'FOURTH ST'
p4221
I67
I1322
tp4222
sS'WEST- MINSTER 3D 11'
p4223
(g90
I76
I15991
tp4224
sS'A HOPE'
p4225
(g1753
I81
I15875
tp4226
sS'WADSWORTH'
p4227
(S'WADSWORTH ST'
p4228
I93
I17346
tp4229
sS'THE WHITE TRUCK DISTRIBUTORS 1128 NORTH MAIN'
p4230
(S'STRATFORD RD'
p4231
I43
I16825
tp4232
sS'LOCK- WOOD'
p4233
(g1230
I73
I15895
tp4234
sS'EDDY 3RD FL'
p4235
(g558
I78
I15834
tp4236
sS'; ELMWOOD AV'
p4237
(g633
I97
I17207
tp4238
sS'165 DEXTER'
p4239
(g723
I81
I17198
tp4240
sS'J EWETT'
p4241
(S'JEWETT ST'
p4242
I83
I17549
tp4243
sS'54 CUSTOM HOUSE ST'
p4244
(g1619
I95
I15820
tp4245
sS'SLATER AV'
p4246
(S'SLATER AVE'
p4247
I97
I17100
tp4248
sS'LIPPITT'
p4249
(S'LIPPITT ST'
p4250
I91
I17024
tp4251
sS'EDDY 4TH FL & 552 WESTMINSTER'
p4252
(g14
I77
I15991
tp4253
sS"THURBER'S AV"
p4254
(S'THURBER ST'
p4255
I88
I16492
tp4256
sS"TELS GASPEE 8666-8667-FOR FUR- THER INFORMATION SEE PAGE 93 BUYERS' GUIDE"
p4257
(g176
I45
I16362
tp4258
s.