(dp0
S'ORMS'
p1
(S'ORMS ST'
p2
I100
I16384
tp3
sS'FEDERAL BLDG'
p4
(S'FEDERAL ST'
p5
I87
I15848
tp6
sS"-261 ALLEN'S AV"
p7
(S'ALLENS AVE'
p8
I74
I15768
tp9
sS'PITMAN,'
p10
(S'PITMAN ST'
p11
I100
I17073
tp12
sS'WEYBOSSET R109'
p13
(S'WEYBOSSET ST'
p14
I89
I15992
tp15
sS'CRANSTON. 1ARLINGTON, TEIS ELMHURST 1-2107, 1-2108'
p16
(S'ARLINGTON AVE'
p17
I63
I16892
tp18
sS'RUTHERGLEN AV'
p19
(S'RUTHERGLEN AVE'
p20
I100
I17312
tp21
sS'DRYDEN'
p22
(S'DRYDEN LN'
p23
I100
I16156
tp24
sS'RESERVOIR AV, TEL WLLLIAMS 1-3500'
p25
(S'RESERVOIR AVE'
p26
I72
I17303
tp27
sS'TEL DEXTER'
p28
(S'DEXTER ST'
p29
I87
I17198
tp30
sS'MILL JOHNSTON RI TEL JACKSON'
p31
(S'JOHNSON ST'
p32
I66
I16707
tp33
sS"'WESTMINSTER R1019"
p34
(S'WESTMINSTER ST'
p35
I89
I15991
tp36
sS'290 SHARON'
p37
(S'SHARON DR'
p38
I87
I16447
tp39
sS'WESTMINSTER, ROOM 216, TEL GASPEE 1-0248'
p40
(g35
I72
I15991
tp41
sS'WASHINGTON R312B'
p42
(S'WASHINGTON PL'
p43
I88
I15986
tp44
sS"-7352'"
p45
(S'I 95'
p46
I29
I15881
tp47
sS'PORTLAND'
p48
(S'PORTLAND ST'
p49
I100
I17293
tp50
sS'-222 ATWELLS AV'
p51
(S'ATWELLS AVE'
p52
I89
I15775
tp53
sS'EXCHANGE PL, TEL JACKSON 1-9600'
p54
(S'EXCHANGE TER'
p55
I76
I15846
tp56
sS'HAROLD'
p57
(S'HAROLD ST'
p58
I100
I17519
tp59
sS'REGENT AV'
p60
(S'REGENT AVE'
p61
I100
I17642
tp62
sS'1189-1191 EDDV'
p63
(S'I 195'
p64
I44
I15880
tp65
sS'HOSPITAL TRUST BLDG'
p66
(S'HOSPITAL ST'
p67
I79
I15878
tp68
sS'4TH AV'
p69
(S'4TH ST'
p70
I100
I16874
tp71
sS'EXCHANGE R3 04'
p72
(g55
I88
I15846
tp73
sS'I LINEWOOD AV'
p74
(S'LINWOOD AVE'
p75
I87
I17249
tp76
sS'J OS LIN'
p77
(S'JOSLIN ST'
p78
I76
I17912
tp79
sS"' SMITH"
p80
(S'SMITH ST'
p81
I100
I16457
tp82
sS"JEWETT LAND O'LAKE CREAMERV INC 46 HARRIS AV"
p83
(S'RED CEDAR LN'
p84
I45
I16421
tp85
sS'WESTMINSTER R1131'
p86
(g35
I89
I15991
tp87
sS'WESTMINSTER R1130'
p88
(g35
I89
I15991
tp89
sS'WESTMINSTER R1137'
p90
(g35
I89
I15991
tp91
sS'TINGLEY LST FL'
p92
(S'TINGLEY ST'
p93
I83
I15972
tp94
sS'-8432.'
p95
(S'2ND ST'
p96
I29
I16872
tp97
sS'WEYBOSSET R12'
p98
(g14
I91
I15992
tp99
sS'WESTMINSTER R1139'
p100
(g35
I89
I15991
tp101
sS'TAUNTON AV. EAST PROVIDENCE. TEL GENEVZI'
p102
(S'PROVIDENCE PL'
p103
I73
I17631
tp104
sS'BONAGANSETT AV'
p105
(S'PONAGANSETT AVE'
p106
I91
I17997
tp107
sS'RIGHT TOP LINEAL'
p108
(S'ARLINE ST'
p109
I56
I17383
tp110
sS'ANDEM'
p111
(S'ANDEM ST'
p112
I100
I17376
tp113
sS'DOLAN 20 WASH PL'
p114
(S'NOLAN ST EXT'
p115
I65
I17607
tp116
sS'WAYIAND AV'
p117
(S'WAYLAND AVE'
p118
I86
I17125
tp119
sS'CUSTOM HOUSE R20. TEL GASPEE 1 -9533'
p120
(S'CUSTOM HOUSE ST'
p121
I76
I15820
tp122
sS'-297 S MAIN'
p123
(S'SOUTH MAIN ST'
p124
I91
I15948
tp125
sS'WESTMINSTER R742'
p126
(g35
I90
I15991
tp127
sS'BROAD, EDGEWOOD,'
p128
(S'EDGEWOOD AV'
p129
I86
I16650
tp130
sS'WARREN'
p131
(S'WARREN ST'
p132
I100
I17349
tp133
sS'WESTMINSTER R1007'
p134
(g35
I89
I15991
tp135
sS'IMERA AV'
p136
(S'IMERA ST'
p137
I100
I17908
tp138
sS'WESTMINSTER R1004'
p139
(g35
I89
I15991
tp140
sS'WESTMINSTER R630'
p141
(g35
I90
I15991
tp142
sS'POWER'
p143
(S'POWER ST'
p144
I100
I15939
tp145
sS'WESTMINSTER;'
p146
(g35
I100
I15991
tp147
sS'WESTMINSTER R638'
p148
(g35
I90
I15991
tp149
sS'AMHERST BRANCHES'
p150
(S'BRANCH AVE'
p151
I70
I16067
tp152
sS'WESTMINSTER,'
p153
(g35
I100
I15991
tp154
sS'WESTMINSTER.'
p155
(g35
I100
I15991
tp156
sS'ATWELIS AV'
p157
(g52
I86
I15775
tp158
sS'N MAIN TEL DEXTER'
p159
(g29
I72
I17198
tp160
sS"ATWEU'S AV"
p161
(g52
I61
I15775
tp162
sS'; ENGINEELE CO.'
p163
(S'NEEDLE GROVE'
p164
I62
I16354
tp165
sS'DORRANGE, TELGASPEE 1-7600'
p166
(S'GASPEE ST'
p167
I59
I15863
tp168
sS'& ALLEN,S AV'
p169
(g8
I81
I15768
tp170
sS'RESERVOIR AV'
p171
(g26
I100
I17303
tp172
sS'ANTHONV AV'
p173
(S'ANTHONY AVE'
p174
I86
I17155
tp175
sS'EXCHANGE. TEL GASNER 1-1860'
p176
(g55
I81
I15846
tp177
sS'4TH'
p178
(g70
I100
I16874
tp179
sS'BEVERLY R1'
p180
(S'BEVERLY ST'
p181
I91
I15783
tp182
sS'BEVERLY R3'
p183
(g181
I91
I15783
tp184
sS'BEVERLY R2'
p185
(g181
I91
I15783
tp186
sS'BEVERLY'
p187
(g181
I100
I15783
tp188
sS'POWER RD; FACTORY'
p189
(S'OBSERVATORY AVE'
p190
I57
I17058
tp191
sS'CALDERWOOD RD'
p192
(S'CALDER ST'
p193
I75
I17175
tp194
sS"ATWELIS IV TEL GA'SPEE"
p195
(S'ATWELLS AVE'
p196
I67
I15775
tp197
sS"CHALKSTONE. SIX OTHER CONVENIENT COMMUNITY OFFICES IN BARRINGTON CRANSTON CENTREDALE PAW'I'UCKET AND GREENVILLE"
p198
(S'CHALKSTONE AVE'
p199
I58
I17433
tp200
sS'-1350'
p201
(g64
I50
I15880
tp202
sS'EMPRE R403'
p203
(S'EMPIRE ST'
p204
I77
I15840
tp205
sS'; T V WPRO BLDG'
p206
(S'PROCTOR PL'
p207
I49
I17081
tp208
sS'-756 BROAD TEL HOPKINS'
p209
(S'HOPKINS ST'
p210
I75
I15876
tp211
sS'UPDIKE'
p212
(S'UPDIKE ST'
p213
I100
I17342
tp214
sS'WESTMINST ER 6'
p215
(g35
I89
I15991
tp216
sS'ONERYVILLE SQ'
p217
(S'OLNEYVILLE SQ'
p218
I91
I17978
tp219
sS'FEDERAL.'
p220
(g5
I100
I15848
tp221
sS'FOUNTAIN, TEL GASPEE 1-6678'
p222
(S'FOUNTAIN ST'
p223
I73
I15853
tp224
sS'WEST MINSTER R 26'
p225
(g35
I78
I15991
tp226
sS'PLAIN'
p227
(S'PLAIN ST'
p228
I100
I15934
tp229
sS'ITALV'
p230
(S'ITALY ST'
p231
I80
I17546
tp232
sS'TIRKS HEAD BLDG 76 WESTMINSTER. TEL'
p233
(g35
I74
I15991
tp234
sS'WESTMINSTER R1911'
p235
(g35
I89
I15991
tp236
sS'POST RD, HILLSGROVE. RI.'
p237
(S'HILLSIDE DR'
p238
I54
I16235
tp239
sS'STERLING AV'
p240
(S'STERLING AVE'
p241
I100
I18055
tp242
sS'WESTERVLY AV'
p243
(S'WESTERLY AVE'
p244
I94
I18101
tp245
sS'WEYBOSSET, TEL DEXTER 1-1177'
p246
(g14
I75
I15992
tp247
sS'7 FRANKLIN'
p248
(S'FRANKLIN ST'
p249
I94
I16188
tp250
sS'EARLY'
p251
(S'EARLY ST'
p252
I100
I16646
tp253
sS'IVES'
p254
(S'IVES ST'
p255
I100
I17007
tp256
sS'V WEYBOSSET.'
p257
(S'WEYBOSSET ST'
p258
I95
I15992
tp259
sS'WESTMINSTER R5 38'
p260
(g35
I89
I15991
tp261
sS'386 BROAD'
p262
(S'BROAD ST'
p263
I85
I15793
tp264
sS"SMITH'"
p265
(g81
I100
I16457
tp266
sS'S ANGELL'
p267
(S'SOUTH ANGELL ST'
p268
I100
I17093
tp269
sS'MARVIN'
p270
(S'MARVIN ST'
p271
I100
I17952
tp272
sS'EXCHANGE PL R408-9'
p273
(g55
I83
I15846
tp274
sS'BOGMAN'
p275
(S'BOGMAN ST'
p276
I100
I16597
tp277
sS'EXCHANGE R217'
p278
(g55
I90
I15846
tp279
sS'EXCHANGE R215'
p280
(g55
I90
I15846
tp281
sS'EXCHANGE R214'
p282
(g55
I90
I15846
tp283
sS'ASHBURTON'
p284
(S'ASHBURTON ST'
p285
I100
I16032
tp286
sS"FOUNTAIN, TEL GASPEE 1-8456'"
p287
(g223
I73
I15853
tp288
sS'EXCHAME, TEL GASPEE 1-1860'
p289
(g55
I64
I15846
tp290
sS'CANDACE'
p291
(S'CANDACE ST'
p292
I100
I17422
tp293
sS'-7210'
p294
(S'10TH ST'
p295
I50
I16868
tp296
sS'MANNING'
p297
(S'MANNING ST'
p298
I100
I17034
tp299
sS'ACORN'
p300
(S'ACORN ST'
p301
I100
I15764
tp302
sS'FOUNTAIN R105'
p303
(g223
I88
I15853
tp304
sS'FOUNTAIN R102'
p305
(g223
I88
I15853
tp306
sS'GODDARD'
p307
(S'GODDARD ST'
p308
I100
I17515
tp309
sS'FOUNTAIN R101'
p310
(g223
I88
I15853
tp311
sS'A'
p312
(S'A ST'
p313
I100
I17146
tp314
sS'-17 JACKSON'
p315
(S'JACKSON ST'
p316
I91
I16253
tp317
sS"BROAD'"
p318
(g263
I100
I15793
tp319
sS'ERSTMINSTER'
p320
(g35
I91
I15991
tp321
sS'BROAD.'
p322
(S'BROAD ST'
p323
I100
I15793
tp324
sS'CALHOUN'
p325
(S'CALHOUN AVE'
p326
I100
I17176
tp327
sS'BROAD,'
p328
(g323
I100
I15793
tp329
sS'FORD'
p330
(S'FORD ST'
p331
I100
I17212
tp332
sS'-2880'
p333
(g96
I29
I16872
tp334
sS'WEST EXCHANGE, TEL DEXTER 1-5800'
p335
(S'WEST EXCHANGE ST'
p336
I79
I15982
tp337
sS"R'RONT COVER)"
p338
(S'GROVER ST'
p339
I64
I17877
tp340
sS"-6'079"
p341
(g46
I42
I15881
tp342
sS'BROAD. TEL'
p343
(g263
I85
I15793
tp344
sS'WALCOTT, PAWTUCKET. TEL PAWTUCKET 2-2110'
p345
(S'PAWTUXET AV'
p346
I56
I16771
tp347
sS'PLUNKETT 85 WESTMINSTER R507'
p348
(g35
I78
I15991
tp349
sS'GEORGE,'
p350
(S'GEORGE ST'
p351
I100
I16670
tp352
sS'; STORAGE C0 AGENTS), WORLDS LARGEST LONG DISTANCE MOVERS 80-90 DUDLEY,'
p353
(S'OLD STONE SQ'
p354
I45
I15919
tp355
sS'WEMET. TEL STUART'
p356
(S'STEWART ST'
p357
I60
I15963
tp358
sS'MATHEWSON, TEL DEXTER 1-0737'
p359
(S'MATHEWSON ST'
p360
I75
I15904
tp361
sS'HOPE; HOPKINS SQUARE; OLNEYVI LLE SQUARE; WASHINGTON PARK'
p362
(g43
I68
I15986
tp363
sS"MATHEWSON, 7TEL GASPEE 1-5800 '"
p364
(S'MATHEWSON ST'
p365
I74
I15904
tp366
sS'WEYBOSSET R302'
p367
(g14
I89
I15992
tp368
sS'; SWEET INC'
p369
(S'SWEETBRIAR ST'
p370
I65
I17679
tp371
sS'PHALKSTONE AV'
p372
(g199
I90
I17433
tp373
sS"PETTER'S AV"
p374
(S'PETER ST'
p375
I75
I16395
tp376
sS'CALHOUN AV'
p377
(g326
I100
I17176
tp378
sS'380 EMEOOD AV'
p379
(S'EDGEWOOD AV'
p380
I69
I16650
tp381
sS'HAZAEL'
p382
(S'HAZAEL ST'
p383
I100
I16226
tp384
sS'WESTMINSTER, TEIS DEXTER 1-3400, 1-3401'
p385
(S'WESTMINSTER ST'
p386
I73
I15991
tp387
sS'LUCILE'
p388
(S'LUCILLE ST'
p389
I92
I17577
tp390
sS'MILES FROM PROVIDENCE, BEAUTIFULLY FURNISHED, FREE PARKING. ALL ROOMS WITH BATH), 179 MAIN, PAWTUCKET, RI,'
p391
(S'BAILEY BLVD'
p392
I36
I16575
tp393
sS'WEYBOSSET 3229'
p394
(g14
I89
I15992
tp395
sS'BROADWAY R206'
p396
(S'BROADWAY ST'
p397
I88
I15794
tp398
sS'BROADWAY R207'
p399
(g397
I88
I15794
tp400
sS'WREYBOSSET'
p401
(g14
I95
I15992
tp402
sS'BROADWAY R202'
p403
(g397
I88
I15794
tp404
sS'SHELDON'
p405
(S'SHELDON ST'
p406
I100
I16818
tp407
sS'MINER'
p408
(S'MINER ST'
p409
I100
I16342
tp410
sS'TTEYBOGESZK R32'
p411
(S'PETTEYS AVE'
p412
I50
I17990
tp413
sS'EMPIRE. TEL GABDEE 1-9000'
p414
(S'EMPIRE PLAZA'
p415
I75
I15839
tp416
sS'UNITED CONSTRUCTION WORKERS 49 WESTMINSTER R830'
p417
(S'CONSTITUTION HILL ST'
p418
I60
I16121
tp419
sS'ORCHARD AV'
p420
(S'ORCHARD LN'
p421
I100
I16380
tp422
sS'MCMILLEN'
p423
(S'MCMILLEN ST'
p424
I100
I16329
tp425
sS'ABORN'
p426
(S'ABORN ST'
p427
I100
I15763
tp428
sS'PACKET'
p429
(S'PACKET ST'
p430
I100
I15922
tp431
sS"WEYBO'SSET"
p432
(g14
I83
I15992
tp433
sS'WEYBWSET,'
p434
(g258
I82
I15992
tp435
sS'WEYBWSET R7 TEL GASPEE'
p436
(g14
I63
I15992
tp437
sS'WILLIAMS'
p438
(S'WILLIAMS ST'
p439
I100
I15997
tp440
sS'26 CUSTOM HOUSE R408'
p441
(g121
I87
I15820
tp442
sS'EDDY, TEL DEXTER 1-4300'
p443
(g29
I71
I17198
tp444
sS'PAWTUCKET AV, RAWTUCKET,'
p445
(S'PAWTUXET AV'
p446
I64
I16771
tp447
sS'DOUGLAS AV'
p448
(S'DOUGLAS AVE'
p449
I100
I16154
tp450
sS'FIGHT SIDE LINES)'
p451
(S'KNIGHT ST'
p452
I54
I15890
tp453
sS'BALBO AV'
p454
(S'BALBO AVE'
p455
I100
I21740
tp456
sS"OWEN AV. PAWTUCKE'I' TEL PAWTUCKET ZLAAAE"
p457
(g346
I56
I16771
tp458
sS'FALES'
p459
(S'FALES ST'
p460
I100
I17211
tp461
sS'CUSTOM HOUSE, TEL GASPEE 1-8900'
p462
(g121
I78
I15820
tp463
sS'PAVILION AV'
p464
(S'PAVILION AVE'
p465
I100
I16770
tp466
sS'-8314'
p467
(S'1ST ST'
p468
I29
I16871
tp469
sS'WHITFORD AV'
p470
(S'WHITFORD AVE'
p471
I100
I17717
tp472
sS'THOMAS VINCENT LUONGO MEMORIAL SQ'
p473
(S'LUONGO MEMORIAL SQ'
p474
I85
I15896
tp475
sS'-1420'
p476
(g295
I50
I16868
tp477
sS'HOPKMS'
p478
(g210
I77
I15876
tp479
sS'-8313'
p480
(g468
I29
I16871
tp481
sS'CUSTOM HOUSE R42, 43, 44, TEL GASPEE 1-9856'
p482
(g121
I73
I15820
tp483
sS'G MATHEWSON'
p484
(g360
I95
I15904
tp485
sS'WESTMINSTER R 607'
p486
(g35
I89
I15991
tp487
sS'COLLEGE'
p488
(S'COLLEGE ST'
p489
I100
I15812
tp490
sS'WEYBOSSET R4 24'
p491
(g14
I87
I15992
tp492
sS'ETENEFIT'
p493
(S'BENEFIT ST'
p494
I80
I15781
tp495
sS'LIBRARY CT,'
p496
(S'LIBRARY RD'
p497
I100
I17565
tp498
sS'ALTHEA'
p499
(S'ALTHEA ST'
p500
I100
I17152
tp501
sS'*CHAPIN AV'
p502
(S'CHAPIN AVE'
p503
I100
I17800
tp504
sS'HOSPITAL TRUST BLDG 15 WESTMINSTER,'
p505
(g386
I74
I15991
tp506
sS'HAVRRIS AV'
p507
(S'HARRIS AVE'
p508
I92
I15869
tp509
sS'72 BRANCH AV'
p510
(g151
I90
I16067
tp511
sS'G ATWELLS AV'
p512
(g196
I94
I15775
tp513
sS'-9187 JACKSON 1-0988'
p514
(g316
I77
I16253
tp515
sS'BUCKLIN PICTURE FRAMES PICTURES-'
p516
(S'TURNESSA GREEN'
p517
I49
I16502
tp518
sS'; STORAGE C0'
p519
(S'ORANGE ST'
p520
I70
I15921
tp521
sS'CUSTOM HOUSE R202'
p522
(g121
I91
I15820
tp523
sS'CUSTOM HOUSE R203'
p524
(g121
I91
I15820
tp525
sS'CUSTOM HOUSE R201'
p526
(g121
I91
I15820
tp527
sS'WESTMINSTER R1124'
p528
(g35
I89
I15991
tp529
sS'MANTON AV'
p530
(S'MANTON AVE'
p531
I100
I17947
tp532
sS'WESTMINSTER R1126'
p533
(g35
I89
I15991
tp534
sS'-105 WESTMINSTER'
p535
(g35
I92
I15991
tp536
sS'WESTMINSTER R1122'
p537
(g35
I89
I15991
tp538
sS'ROSLYN AV'
p539
(S'ROSLYN AVE'
p540
I100
I17655
tp541
sS'ELM-GG WOOD AV.'
p542
(S'WOOD ST'
p543
I76
I18110
tp544
sS'DELAINE'
p545
(S'DELAINE ST'
p546
I100
I17822
tp547
sS', 37-39 NARRANGANSETT AV,'
p548
(S'NARRAGANSETT AV'
p549
I88
I17270
tp550
sS'-5421'
p551
(g46
I29
I15881
tp552
sS'BROADWAV R6'
p553
(g397
I81
I15794
tp554
sS'WAMPUNOAG TRAIL EAST PROVIDENCE TEL GENEVA'
p555
(g103
I72
I17631
tp556
sS'CHESTER AV'
p557
(S'CHESTER AVE'
p558
I100
I16619
tp559
sS'S WATER'
p560
(S'SOUTH WATER ST'
p561
I100
I15949
tp562
sS'-541 HARTFORD AV'
p563
(S'HARTFORD AVE'
p564
I90
I17889
tp565
sS'EDDY R301'
p566
(S'EDDY ST'
p567
I81
I15834
tp568
sS'WESTMINSTER R627'
p569
(g35
I90
I15991
tp570
sS'WESTMINSTER R624'
p571
(g35
I90
I15991
tp572
sS'WESTMINSTER R623'
p573
(g35
I90
I15991
tp574
sS'WESTMINSTER R621'
p575
(g35
I90
I15991
tp576
sS'WHITTIER AV'
p577
(S'WHITTIER AVE'
p578
I100
I18107
tp579
sS'WESTMINSTER R1011'
p580
(g35
I89
I15991
tp581
sS'WESTMINSTER R1012'
p582
(g35
I89
I15991
tp583
sS'RIGHT SIDE LINES BACK COVER)'
p584
(S'BRIGHTON ST'
p585
I55
I17781
tp586
sS'ORMSBEE AV'
p587
(g2
I73
I16384
tp588
sS'UNION R204'
p589
(S'UNION ST'
p590
I83
I15977
tp591
sS'LLOVD AV'
p592
(S'LLOYD AVE'
p593
I80
I17025
tp594
sS'UNION R201'
p595
(g590
I83
I15977
tp596
sS'PARNELL'
p597
(S'PARNELL ST'
p598
I100
I17987
tp599
sS'UNION R202'
p600
(g590
I83
I15977
tp601
sS"MASOR'Z."
p602
(S'MASSO DR'
p603
I73
I16322
tp604
sS'GANO.'
p605
(S'GANO ST'
p606
I100
I15861
tp607
sS'B'
p608
(S'JOB ST'
p609
I50
I16257
tp610
sS'WOODBURY'
p611
(S'WOODBURY RD'
p612
I100
I16866
tp613
sS'UNION BARNEY WALTER C, 58 REYBOSSET, TEL JACKSON 1 -61 51'
p614
(g14
I59
I15992
tp615
sS'WESTMINSTER R813'
p616
(g35
I90
I15991
tp617
sS'BURRINGTON'
p618
(S'BURRINGTON ST'
p619
I100
I21717
tp620
sS'SHIP'
p621
(S'SHIP ST'
p622
I100
I15955
tp623
sS'RAYMOND'
p624
(S'RAYMOND ST'
p625
I100
I17639
tp626
sS'PONTIAC'
p627
(S'PONTIAC AVE'
p628
I100
I17292
tp629
sS'POTXD.'
p630
(S'POND ST'
p631
I67
I15937
tp632
sS'I ATWELIS AV'
p633
(g196
I80
I15775
tp634
sS'CARPENTER.'
p635
(S'CARPENTER ST'
p636
I100
I15801
tp637
sS'BRIDGHAM.'
p638
(S'BRIDGHAM ST'
p639
I100
I17169
tp640
sS'WESTMINSTER R1904'
p641
(g35
I89
I15991
tp642
sS'MELROSE,'
p643
(S'MELROSE ST'
p644
I100
I17263
tp645
sS'CAMP'
p646
(S'CAMP ST'
p647
I100
I16917
tp648
sS'-543 L10YD AV'
p649
(S'LYDIA AVE'
p650
I51
I16300
tp651
sS'AFL 4 ANN'
p652
(S'MAFALDA ST'
p653
I55
I16304
tp654
sS'OLNEYVILLE AM'
p655
(g218
I92
I17978
tp656
sS'-39 NARRAGANSETT . AV'
p657
(S'NARRAGANSETT AV'
p658
I95
I17270
tp659
sS'WAMPUNOAG TRAIL, EAST PROVIDENCE,'
p660
(S'PROVIDENCE ST'
p661
I74
I17299
tp662
sS'CHESTNUT,'
p663
(S'CHESTNUT ST'
p664
I100
I15807
tp665
sS'WEYBOSSET, OFFICE'
p666
(g258
I86
I15992
tp667
sS"RIGHT TOP LINES)'"
p668
(g585
I69
I17781
tp669
sS'380 ELMWOOD AV'
p670
(S'ELMWOOD AVE'
p671
I89
I17207
tp672
sS'REYNOLDS AV'
p673
(S'REYNOLDS AVE'
p674
I100
I16791
tp675
sS'TAUNTON AV'
p676
(S'STANTON ST'
p677
I86
I18051
tp678
sS'PLEASANT'
p679
(S'PLEASANT AV'
p680
I100
I16399
tp681
sS'CARRINGTON AV'
p682
(S'CARRINGTON AVE'
p683
I100
I16918
tp684
sS'LOIS AV'
p685
(S'LOIS AVE'
p686
I100
I17570
tp687
sS'RUGGLES'
p688
(S'RUGGLES ST'
p689
I100
I17657
tp690
sS'MILK'
p691
(S'MILK ST'
p692
I100
I16733
tp693
sS'CLEANSERS 335 MANTON AV'
p694
(S'LEANDER ST'
p695
I59
I17929
tp696
sS'WEVBOSSET'
p697
(g14
I89
I15992
tp698
sS'ALLEN S AV.'
p699
(S'ALLENS AVE'
p700
I81
I15768
tp701
sS'C STEVENS'
p702
(S'STEUBEN ST'
p703
I67
I18056
tp704
sS'-277 THURBERS AV'
p705
(S'THURBERS AVE'
p706
I90
I16839
tp707
sS'-228 PLAIN'
p708
(g228
I85
I15934
tp709
sS'DORRANCE R18'
p710
(S'DORRANCE ST'
p711
I90
I15829
tp712
sS'-7345 IF NO ANSWER CALL CENTREDALE'
p713
(S'CENTRAL AVE'
p714
I58
I16095
tp715
sS'CRANS TON'
p716
(S'CRANSTON ST'
p717
I85
I15817
tp718
sS'OLNEYVILLE SO'
p719
(g218
I96
I17978
tp720
sS'14 GREEN'
p721
(S'GREENE ST'
p722
I81
I15866
tp723
sS'AFWELLS AV'
p724
(g196
I86
I15775
tp725
sS'WOODBINE'
p726
(S'WOODBINE ST'
p727
I100
I16550
tp728
sS'WESTMINSTER R8 37'
p729
(g35
I89
I15991
tp730
sS'DORRANCE R404'
p731
(g711
I88
I15829
tp732
sS'WESTIIINBTER. TEL UNION'
p733
(g35
I66
I15991
tp734
sS'WEYBOSSET R11'
p735
(g14
I91
I15992
tp736
sS'FRANCIS'
p737
(S'FRANCIS AVE'
p738
I100
I16187
tp739
sS'-142 HUMBOLDT AV'
p740
(S'HUMBOLDT AVE'
p741
I90
I17003
tp742
sS'-1981'
p743
(g64
I50
I15880
tp744
sS'; H J INC'
p745
(S'FINCH AVE'
p746
I62
I16180
tp747
sS'JEWETT'
p748
(S'JEWETT ST'
p749
I100
I17549
tp750
sS'MAIN, PAWTUCKET, TEL PAWTUCKET 5-3 520'
p751
(g346
I57
I16771
tp752
sS'STEWART, TEL GASPEE 1-2600'
p753
(g357
I72
I15963
tp754
sS'TAUNTON AV,'
p755
(S'STANTON ST'
p756
I86
I18051
tp757
sS'PROMENADE'
p758
(S'PROMENADE ST'
p759
I100
I17630
tp760
sS"-32'59 TEX'NPLE 1-0678"
p761
(S'NAPLES AVE'
p762
I55
I17602
tp763
sS'LONGMONT'
p764
(S'LONGMONT ST'
p765
I100
I17571
tp766
sS'221 ANGELL'
p767
(S'ANGELL RD'
p768
I87
I16022
tp769
sS'ALMY'
p770
(S'ALMY ST'
p771
I100
I17741
tp772
sS'WASH R213'
p773
(S'WASHINGTON ST'
p774
I81
I21700
tp775
sS'ELAINFIELD, TEL ELMHURST 1-1149'
p776
(S'PLAINFIELD ST'
p777
I67
I17994
tp778
sS'BASSETT'
p779
(S'BASSETT ST'
p780
I100
I15777
tp781
sS"ALLEN'S AV, TEL HOPKINS 1-5500"
p782
(g210
I67
I15876
tp783
sS'FSCHANGE PL, TEL GASPEE 1-6822'
p784
(g55
I59
I15846
tp785
sS'-8313 1-8314'
p786
(S'I 195'
p787
I27
I15880
tp788
sS'LEFT SIDE LINES) MARIANI A A'
p789
(S'ADRIAN HALL WY'
p790
I58
I15765
tp791
sS'HELME'
p792
(S'HELME ST'
p793
I100
I17892
tp794
sS'FRUIT HILL AV'
p795
(S'FRUIT HILL AVE'
p796
I100
I16192
tp797
sS'BLACKSTONE, TEL DEXTER 1-2853'
p798
(S'BLACKSTONE BLVD'
p799
I80
I16904
tp800
sS'JACKSON'
p801
(g316
I100
I16253
tp802
sS'; CO'
p803
(S'COES ST'
p804
I67
I16108
tp805
sS"WAMPANOAG TRAIL, EAST PROVIDENCE,7TE'1L GENEYA 4-7400"
p806
(S'PROVIDENCE PL'
p807
I68
I17631
tp808
sS'LEFT BOTTOM UNES)'
p809
(S'BOLTON AVE'
p810
I56
I17407
tp811
sS'WILLOW'
p812
(S'WILLOW ST'
p813
I100
I18108
tp814
sS"ALLEN'S"
p815
(g8
I81
I15768
tp816
sS'LAUREL HILL AV'
p817
(S'LAUREL HILL AVE'
p818
I100
I17926
tp819
sS'PEACH AV'
p820
(S'PEACH AVE'
p821
I100
I17070
tp822
sS'CARPENTER TELS GASPEE'
p823
(S'CARPENTER ST'
p824
I80
I15801
tp825
sS'RIVER AV.'
p826
(S'RIVER AVE'
p827
I100
I16423
tp828
sS'GENEVA'
p829
(S'GENEVA ST'
p830
I100
I17509
tp831
sS'STREET SECTION RIGHT SIDE LINES)'
p832
(S'SETON ST'
p833
I55
I18034
tp834
sS'SNOW REAR OF MAIN STORE TEL JACKSON'
p835
(g316
I66
I16253
tp836
sS'RIVER AV'
p837
(S'RIVER AVE'
p838
I100
I16423
tp839
sS'GOVERNOR R2'
p840
(S'GOVERNOR ST'
p841
I92
I16983
tp842
sS'FENNER'
p843
(S'FENNER ST'
p844
I100
I15849
tp845
sS'RIGHT SIDE LINES) I"DOORS. SASH TRIM'
p846
(g585
I53
I17781
tp847
sS'MOV'
p848
(S'MOY ST'
p849
I67
I16350
tp850
sS'UCHALKSTONE AV'
p851
(g199
I95
I17433
tp852
sS'POCASSET AV. TEE TEMPLE'
p853
(S'POCASSET AVE'
p854
I76
I17995
tp855
sS'WEYBOSSET TEL GASPEE 1-9349'
p856
(g14
I75
I15992
tp857
sS'1WAY1AND AV'
p858
(g118
I80
I17125
tp859
sS'DUNCAN AV'
p860
(S'DUNCAN AVE'
p861
I100
I16947
tp862
sS'CENTRAL. TE)ZL GASPEE 1-0081'
p863
(g714
I70
I16095
tp864
sS'SIMS AV'
p865
(S'SIMS AVE'
p866
I100
I18041
tp867
sS'METCALF'
p868
(S'METCALF ST'
p869
I100
I16337
tp870
sS'GOVERNOR'
p871
(g841
I100
I16983
tp872
sS'WEYBOSSET R32'
p873
(g14
I91
I15992
tp874
sS'WEYBOSSET R31'
p875
(g14
I91
I15992
tp876
sS'-311 WASHINGTON AV'
p877
(S'WASHINGTON ST'
p878
I91
I15987
tp879
sS'NICHOLS'
p880
(S'NICHOLS ST'
p881
I100
I21722
tp882
sS'WESTMINSTER R634'
p883
(g35
I90
I15991
tp884
sS'CI'
p885
(S'CAHIR ST'
p886
I57
I15797
tp887
sS"ELMWOOD AV, TEL STUART 1'-4000"
p888
(g671
I70
I17207
tp889
sS'MAIN, PAWTUCKET, TEL PAWTUCKET 2-0080'
p890
(g346
I57
I16771
tp891
sS'WESTMINSTER R635'
p892
(g35
I90
I15991
tp893
sS'-5432'
p894
(g46
I29
I15881
tp895
sS'WESTMINSTER R5'
p896
(g35
I94
I15991
tp897
sS'WESTMINSTER R637'
p898
(g35
I90
I15991
tp899
sS"-814 ALLEN'S AV"
p900
(S'ALLENS AVE'
p901
I74
I15768
tp902
sS', 623-633 ATWELIS AV, TEL GABPEE 1-0680'
p903
(g196
I57
I15775
tp904
sS'WESTMINSTER R619'
p905
(g35
I90
I15991
tp906
sS'WESTMINSTER R612'
p907
(g35
I90
I15991
tp908
sS'WESTMINSTER R613'
p909
(g35
I90
I15991
tp910
sS'WESTMINSTER R610'
p911
(g35
I90
I15991
tp912
sS'WESTMINSTER R611'
p913
(g35
I90
I15991
tp914
sS'WESTMINSTER R614'
p915
(g35
I90
I15991
tp916
sS"-0100 '"
p917
(g295
I50
I16868
tp918
sS'PUBLIC'
p919
(S'PUBLIC ST'
p920
I100
I15942
tp921
sS'WESTMINSTER, TEL JACKSON 19800; BRANCH 475 ANGELL'
p922
(g35
I69
I15991
tp923
sS'G SMITH'
p924
(g81
I91
I16457
tp925
sS'NARRAGANSETT AV.'
p926
(S'NARRAGANSETT ST'
p927
I100
I16747
tp928
sS'WEFYBOSSET R44'
p929
(g14
I86
I15992
tp930
sS'HILLVIEW AV'
p931
(S'HILLVIEW DR'
p932
I100
I16237
tp933
sS'WESTMINSTER R1009'
p934
(g35
I89
I15991
tp935
sS"'WESTMINSTER"
p936
(g35
I100
I15991
tp937
sS'-0040 GABDEE 1-5454'
p938
(S'GASPEE ST'
p939
I50
I15863
tp940
sS'STIMS ON AV'
p941
(S'STIMSON AVE'
p942
I88
I17105
tp943
sS'ADMIRAL'
p944
(S'ADMIRAL ST'
p945
I100
I16005
tp946
sS'-2180'
p947
(g295
I50
I16868
tp948
sS'PROVIDENCE'
p949
(S'PROVIDENCE ST'
p950
I100
I17299
tp951
sS'A ELMGROVE AV'
p952
(S'ELMGROVE AVE'
p953
I94
I16960
tp954
sS'CARPENTER,'
p955
(g636
I100
I15801
tp956
sS'HOSPITAL,'
p957
(S'HOSPITAL ST'
p958
I100
I15878
tp959
sS'WESLEYAN AV'
p960
(S'WESLEYAN AVE'
p961
I100
I17353
tp962
sS'CUSTOM HOUSE,'
p963
(S'CUSTOM HOUSE ST'
p964
I100
I15820
tp965
sS'EMPIRE R302'
p966
(g204
I85
I15840
tp967
sS'EMPIRE R303'
p968
(g204
I85
I15840
tp969
sS'WEYBOSSET R601'
p970
(g14
I89
I15992
tp971
sS'EMPIRE R307'
p972
(g204
I85
I15840
tp973
sS'EMPIRE R304'
p974
(g204
I85
I15840
tp975
sS'WEYBCBSET TEL GASPEE'
p976
(g14
I63
I15992
tp977
sS'BEAUFORT'
p978
(S'BEAUFORT ST'
p979
I100
I17397
tp980
sS'W FRIENDSHIP'
p981
(S'WEST FRIENDSHIP ST'
p982
I100
I17345
tp983
sS'WESTMINSTER R810'
p984
(g35
I90
I15991
tp985
sS'WESTMINSTER R811'
p986
(g35
I90
I15991
tp987
sS'WESTMINSTER R812'
p988
(g35
I90
I15991
tp989
sS'ANGELL'
p990
(g768
I100
I16022
tp991
sS'WESTMINSTER R814'
p992
(g35
I90
I15991
tp993
sS'WESTMINSTER R815'
p994
(g35
I90
I15991
tp995
sS'ANGELI'
p996
(S'ANGELA CT'
p997
I83
I16021
tp998
sS'WESTMINSTER R818'
p999
(g35
I90
I15991
tp1000
sS'WESTMINSTER R819'
p1001
(g35
I90
I15991
tp1002
sS'ATRWELLS AV'
p1003
(g196
I93
I15775
tp1004
sS'BEACH UNION STATION'
p1005
(S'UNION STATION ST'
p1006
I90
I15978
tp1007
sS'MORGAN AV, JOHNSTON, RI,'
p1008
(S'JOHNSON ST'
p1009
I71
I16707
tp1010
sS'CANE'
p1011
(S'CANETE ST'
p1012
I80
I16081
tp1013
sS'KINS LEV AV'
p1014
(S'KINSLEY AVE'
p1015
I76
I15889
tp1016
sS'WESTFIELD'
p1017
(S'WESTFIELD ST'
p1018
I100
I17354
tp1019
sS'DUDLEV'
p1020
(S'DUDLEY ST'
p1021
I83
I15830
tp1022
sS"DORR'ANCE"
p1023
(S'DORR ST'
p1024
I81
I17471
tp1025
sS'WEYBWSET TEL STUART'
p1026
(g14
I66
I15992
tp1027
sS'DUDLEY'
p1028
(g1021
I100
I15830
tp1029
sS'-0917'
p1030
(g46
I29
I15881
tp1031
sS'MATHEW SON'
p1032
(g360
I87
I15904
tp1033
sS'ADGELL'
p1034
(g768
I83
I16022
tp1035
sS'VALLEY'
p1036
(S'VALLEY ST'
p1037
I100
I17693
tp1038
sS'PRAIRIE AV,'
p1039
(S'PRAIRIE AVE'
p1040
I100
I16787
tp1041
sS'HARVARD AV'
p1042
(S'HARVARD AVE'
p1043
I100
I17228
tp1044
sS'D'
p1045
(S'ADA ST'
p1046
I50
I16003
tp1047
sS'WESTMINSTER, PROVIDENCE,'
p1048
(g386
I83
I15991
tp1049
sS'BAKER'
p1050
(S'BAKER ST'
p1051
I100
I16576
tp1052
sS'-144 BROOK'
p1053
(S'BROOK ST'
p1054
I85
I15795
tp1055
sS'ERNST'
p1056
(S'ERNEST ST'
p1057
I91
I16656
tp1058
sS'DIKE LST FL'
p1059
(S'DIKE ST'
p1060
I76
I17827
tp1061
sS'ROLFE CRANSTON TEL GASPEE'
p1062
(g717
I74
I15817
tp1063
sS'EXCHANGE R300'
p1064
(g55
I90
I15846
tp1065
sS'EXCHANGE R305'
p1066
(g55
I90
I15846
tp1067
sS'-2624'
p1068
(g96
I29
I16872
tp1069
sS'RIGHT SIDE NINES)'
p1070
(g585
I63
I17781
tp1071
sS'MARIETTA'
p1072
(S'MARIETTA ST'
p1073
I100
I16314
tp1074
sS'CAROLINA AV'
p1075
(S'CAROLINA AVE'
p1076
I100
I16085
tp1077
sS'S MAIN NR CRAWFORD'
p1078
(S'STRATFORD RD'
p1079
I61
I16825
tp1080
sS'PECK, TEL GASPEE 1-1358'
p1081
(g939
I71
I15863
tp1082
sS'IPLAINFIE1D'
p1083
(g777
I86
I17994
tp1084
sS'DOUGLAS'
p1085
(g449
I100
I16154
tp1086
sS'AVTWELLS AV'
p1087
(g52
I93
I15775
tp1088
sS"WES'MZANSTER TEL JACKSON"
p1089
(S'MANCHESTER FARM RD'
p1090
I62
I16308
tp1091
sS'DORANCE R502'
p1092
(g711
I81
I15829
tp1093
sS'TO 372 PLAINFIE 1D'
p1094
(g777
I76
I17994
tp1095
sS'-155 WESTMINSTER'
p1096
(g35
I92
I15991
tp1097
sS'SUTTON'
p1098
(S'SUTTON ST'
p1099
I100
I15966
tp1100
sS'WILCOX'
p1101
(S'WILSON ST'
p1102
I67
I17359
tp1103
sS'EXCHANGE R411'
p1104
(g55
I90
I15846
tp1105
sS'SMITHFIELD AV'
p1106
(S'SMITHFIELD AVE'
p1107
I100
I16458
tp1108
sS'PRESCOTT'
p1109
(S'PRESCOTT ST'
p1110
I100
I17629
tp1111
sS'WEYBOSSET R602'
p1112
(g14
I89
I15992
tp1113
sS'WESTMINSTER TEL UNION'
p1114
(g35
I84
I15991
tp1115
sS'WEYBOSSET R607'
p1116
(g14
I89
I15992
tp1117
sS'OPPER'
p1118
(S'OPPER ST'
p1119
I100
I16379
tp1120
sS'BURNETT'
p1121
(S'BURNETT ST'
p1122
I100
I17172
tp1123
sS'WESTMINSTER R404,'
p1124
(g386
I90
I15991
tp1125
sS'BEVERLY R10'
p1126
(g181
I89
I15783
tp1127
sS'BEVERLY R13'
p1128
(g181
I89
I15783
tp1129
sS'OWEN AV'
p1130
(S'OWEN ST'
p1131
I100
I17981
tp1132
sS'BEVERLY R16'
p1133
(g181
I89
I15783
tp1134
sS'BEVERLY R18'
p1135
(g181
I89
I15783
tp1136
sS'AD, TELS GASPEE 1-3621; 1-3622'
p1137
(g939
I67
I15863
tp1138
sS'MESSER'
p1139
(S'MESSER ST'
p1140
I100
I17961
tp1141
sS'A BROADWAY'
p1142
(g397
I94
I15794
tp1143
sS'N MAIN TEL TEMPLE'
p1144
(S'TEMPLE CT'
p1145
I72
I16834
tp1146
sS'TINGLEY'
p1147
(g93
I100
I15972
tp1148
sS'131 WASHINGTON R305'
p1149
(g43
I84
I15986
tp1150
sS'WESTMINSTER R80 1'
p1151
(g35
I89
I15991
tp1152
sS'CLEMENCE'
p1153
(S'CLEMENCE ST'
p1154
I100
I15810
tp1155
sS'GAME'
p1156
(S'AMES ST'
p1157
I75
I15771
tp1158
sS'JEFFERSON'
p1159
(S'JEFFERSON ST'
p1160
I100
I17548
tp1161
sS'PLENTY'
p1162
(S'PLENTY ST'
p1163
I100
I17290
tp1164
sS"WEYBOSSET. TEL GASDEE 1-7900'"
p1165
(g14
I75
I15992
tp1166
sS'TURNER'
p1167
(S'TURNER ST'
p1168
I100
I17689
tp1169
sS'CUSTOM HOUSE R42-43-44,'
p1170
(g964
I85
I15820
tp1171
sS'-80 BAKER'
p1172
(g1051
I88
I16576
tp1173
sS'CARPENTER'
p1174
(g824
I100
I15801
tp1175
sS"WESTMINSTER, ' TEL GASPEE 1-590'0"
p1176
(g35
I77
I15991
tp1177
sS'HAMLIN'
p1178
(S'HAMLIN ST'
p1179
I100
I16217
tp1180
sS'EDDY'
p1181
(g567
I100
I15834
tp1182
sS'WASHINGTON R2'
p1183
(g878
I93
I15987
tp1184
sS'WASHINGTON R6'
p1185
(g878
I93
I15987
tp1186
sS'AD-'
p1187
(g1046
I80
I16003
tp1188
sS'EDDV'
p1189
(g567
I75
I15834
tp1190
sS'BORDEN'
p1191
(S'BORDEN ST'
p1192
I100
I15787
tp1193
sS'INDUSTRIAL BANK BLDG,'
p1194
(S'INDUSTRIAL DR'
p1195
I83
I16249
tp1196
sS'-510 PRAIRIE AV'
p1197
(S'PRAIRIE AVE'
p1198
I89
I16787
tp1199
sS'CHAFFEE'
p1200
(S'CHAFFEE ST'
p1201
I100
I17798
tp1202
sS'BEPEFIT .'
p1203
(g494
I86
I15781
tp1204
sS'HEATH'
p1205
(S'HEATH ST'
p1206
I100
I17891
tp1207
sS'EDD;'
p1208
(g567
I86
I15834
tp1209
sS'INDIANA AV'
p1210
(S'INDIANA AVE'
p1211
I100
I16702
tp1212
sS'RICHMEND'
p1213
(S'RICHMOND ST'
p1214
I88
I15946
tp1215
sS"RICHMOND, TEL JACKSON 1 -883'7"
p1216
(S'RICHMOND SQ'
p1217
I75
I17086
tp1218
sS'BROADWAY R24'
p1219
(g397
I90
I15794
tp1220
sS'WEYBOSSET R28'
p1221
(g14
I91
I15992
tp1222
sS'WEYBOSSET R26'
p1223
(g14
I91
I15992
tp1224
sS'WEYBOSSET R27'
p1225
(g14
I91
I15992
tp1226
sS'-0610'
p1227
(g295
I50
I16868
tp1228
sS'WEYBOSSET R23'
p1229
(g14
I91
I15992
tp1230
sS") ' KINGSTON CUTLERY CO. IMPERIAL"
p1231
(S'KINGSTON AVE'
p1232
I72
I17013
tp1233
sS'-12-16 PORTLAND'
p1234
(g49
I86
I17293
tp1235
sS'SASSAFRAS'
p1236
(S'SASSAFRAS ST'
p1237
I100
I17317
tp1238
sS'WOLCOTT'
p1239
(S'WOLCOTT ST'
p1240
I100
I17722
tp1241
sS'G BROAD'
p1242
(g263
I91
I15793
tp1243
sS'NUDAVIS'
p1244
(S'DAVIS ST'
p1245
I83
I16137
tp1246
sS'HUNTINGTON AV'
p1247
(S'HUNTINGTON AVE'
p1248
I100
I17236
tp1249
sS"WESTMINSUM, TELS GASPEE'1-194Z, 1-4450"
p1250
(g35
I59
I15991
tp1251
sS'318 FOUNTAIN'
p1252
(g223
I90
I15853
tp1253
sS'CONVENT APT 2'
p1254
(S'CONVENT ST'
p1255
I85
I17451
tp1256
sS'LAD MDUWUE-UONLA'
p1257
(S'CAMDEN AVE'
p1258
I47
I17421
tp1259
sS'UNION BARNEY WALTER C, 58 REYBOSSET,'
p1260
(g258
I65
I15992
tp1261
sS'PAIGE'
p1262
(S'PAGE ST'
p1263
I89
I15923
tp1264
sS'BEACON AV'
p1265
(S'BEACON AVE'
p1266
I100
I15779
tp1267
sS'CONDUIT'
p1268
(S'CONDUIT ST'
p1269
I100
I15814
tp1270
sS'WESTMINSTER R609'
p1271
(g35
I90
I15991
tp1272
sS'WESTMINSTER R605'
p1273
(g35
I90
I15991
tp1274
sS'WESTMINSTER R607'
p1275
(g35
I90
I15991
tp1276
sS'OAKLAND AV'
p1277
(S'OAKLAND AVE'
p1278
I100
I17609
tp1279
sS'CLEMATIS'
p1280
(S'CLEMATIS ST'
p1281
I100
I17440
tp1282
sS'SIMS AV.'
p1283
(S'SIMS AVE'
p1284
I100
I18041
tp1285
sS'CANTON'
p1286
(S'CANTON ST'
p1287
I100
I17424
tp1288
sS'WESTMINSTER R201'
p1289
(g35
I90
I15991
tp1290
sS'421 HOPE'
p1291
(S'HOPE ST'
p1292
I83
I15875
tp1293
sS'EXCHANGE PL R315'
p1294
(g55
I85
I15846
tp1295
sS'8TH'
p1296
(S'8TH ST'
p1297
I100
I16878
tp1298
sS'ELMBURST AV'
p1299
(S'ELMHURST AVE'
p1300
I88
I17482
tp1301
sS'E'
p1302
(S'EAST ST'
p1303
I100
I15833
tp1304
sS'C10 241 WEYBOSSET R313'
p1305
(g14
I79
I15992
tp1306
sS'TROY'
p1307
(S'TROY ST'
p1308
I100
I18078
tp1309
sS'-76362 BRANCH SALESROOM WAREHOUSE'
p1310
(S'SALEM DR'
p1311
I49
I16442
tp1312
sS'WILLARD AV'
p1313
(S'WILLARD ST'
p1314
I100
I16545
tp1315
sS'EDGEWORTH'
p1316
(g380
I71
I16650
tp1317
sS'TROV'
p1318
(g1308
I75
I18078
tp1319
sS'FRONT COVER)'
p1320
(S'FREMONT ST'
p1321
I69
I16975
tp1322
sS'BUCKLIN'
p1323
(S'BUCKLIN ST'
p1324
I100
I17171
tp1325
sS'RANDALL TEL GASPE E L-'
p1326
(S'RANDALL SQ'
p1327
I76
I16416
tp1328
sS'WESTMINSTER, ROOM 908,'
p1329
(g386
I85
I15991
tp1330
sS',2 WEYBOSSET'
p1331
(g14
I95
I15992
tp1332
sS'EDDY R403-405'
p1333
(g567
I73
I15834
tp1334
sS'-7488'
p1335
(g70
I29
I16874
tp1336
sS'ELMWOOD AV,'
p1337
(S'ELMWOOD AVE'
p1338
I100
I17207
tp1339
sS'GEORGIA AV, TELS STUART 1-1134, 1-1135'
p1340
(S'GEORGIA AVE'
p1341
I66
I16671
tp1342
sS'-134 FOUNTAIN,'
p1343
(S'FOUNTAIN ST'
p1344
I90
I15853
tp1345
sS'KIMBAU'
p1346
(S'KIMBALL ST'
p1347
I77
I17556
tp1348
sS'MAUDE'
p1349
(S'MAUDE ST'
p1350
I100
I17588
tp1351
sS'-58I HARRIS AV'
p1352
(g508
I87
I15869
tp1353
sS'WASHI1;GTON'
p1354
(g878
I74
I15987
tp1355
sS'BEACH'
p1356
(S'BEACH ST'
p1357
I100
I16050
tp1358
sS',1124 CRANSTON, ARLINGTON,'
p1359
(g17
I78
I16892
tp1360
sS'OXFGRD'
p1361
(S'OXFORD ST'
p1362
I83
I16764
tp1363
sS'WESTMINSTER R801'
p1364
(g35
I90
I15991
tp1365
sS'WESTMINSTER R807'
p1366
(g35
I90
I15991
tp1367
sS'WESTMINSTER R805'
p1368
(g35
I90
I15991
tp1369
sS'WESTMINSTER R808'
p1370
(g35
I90
I15991
tp1371
sS'-6289'
p1372
(g46
I29
I15881
tp1373
sS'0'
p1374
(g295
I40
I16868
tp1375
sS'COMSTOCK AV'
p1376
(S'COMSTOCK AVE'
p1377
I100
I16631
tp1378
sS'ROCHAMBEAU AV'
p1379
(S'ROCHAMBEAU AVE'
p1380
I100
I17088
tp1381
sS'FOUNTAIN R801'
p1382
(g223
I88
I15853
tp1383
sS'EMPIRE R203'
p1384
(g204
I85
I15840
tp1385
sS'EMPIRE R202'
p1386
(g204
I85
I15840
tp1387
sS'EMPIRE R201'
p1388
(g204
I85
I15840
tp1389
sS'EMPIRE R207'
p1390
(g204
I85
I15840
tp1391
sS'EMPIRE R206'
p1392
(g204
I85
I15840
tp1393
sS'EMPIRE R204'
p1394
(g204
I85
I15840
tp1395
sS'HIGGINS AV'
p1396
(S'HIGGINS AVE'
p1397
I100
I17528
tp1398
sS'WESSER'
p1399
(g1140
I83
I17961
tp1400
sS'CROOIN'
p1401
(S'ROBIN ST'
p1402
I73
I16427
tp1403
sS'EXCHANGE PL, TELJACKSON 1-9600'
p1404
(S'JACKSON ST'
p1405
I60
I16253
tp1406
sS'COLE AV'
p1407
(S'COLE AVE'
p1408
I100
I16928
tp1409
sS'WESTMINSTER R41-42'
p1410
(g35
I88
I15991
tp1411
sS'CLAREMONT AV'
p1412
(S'CLAREMONT AVE'
p1413
I100
I17438
tp1414
sS'DORRANGE'
p1415
(S'DORRANCE ST'
p1416
I88
I15829
tp1417
sS'LEFT BOTTOM LINES FRONT COVER)'
p1418
(S'ABBOTT PARK PL'
p1419
I50
I15762
tp1420
sS'WAMPANOAG TRAIL. EAST PROVIDENCE TEL GENEVAI'
p1421
(g103
I71
I17631
tp1422
sS'328 WICKENDEN'
p1423
(S'WICKENDEN ST'
p1424
I91
I15995
tp1425
sS'I W EXCHANGE'
p1426
(g336
I96
I15982
tp1427
sS'TORONTO AV, TEL STUART 1-3050'
p1428
(S'TORONTO AVE'
p1429
I70
I16840
tp1430
sS'EXCHANGE R310'
p1431
(g55
I90
I15846
tp1432
sS'EXCHANGE R311'
p1433
(g55
I90
I15846
tp1434
sS'RIGHT SIDE NNESY'
p1435
(g585
I63
I17781
tp1436
sS'WESTMINSTER R51'
p1437
(g35
I92
I15991
tp1438
sS'SABIN, PAWTUCKET, TEL PAWTUCKET 2-7800'
p1439
(g346
I57
I16771
tp1440
sS'SMITH.'
p1441
(S'SMITH ST'
p1442
I100
I16457
tp1443
sS'PAWTUCKET AV. PAWTUCKET TEL PAWTUCKET'
p1444
(g346
I57
I16771
tp1445
sS'FOUNTAIN'
p1446
(g223
I100
I15853
tp1447
sS'YELLOW PAGE'
p1448
(S'ELBOW ST'
p1449
I61
I15835
tp1450
sS'WASH R307'
p1451
(g774
I81
I21700
tp1452
sS'WEYBOSSET R701'
p1453
(g14
I89
I15992
tp1454
sS'WEYBOSSET R703'
p1455
(g14
I89
I15992
tp1456
sS'WEYBOSSET R704'
p1457
(g14
I89
I15992
tp1458
sS'WEYBOSSET R705'
p1459
(g14
I89
I15992
tp1460
sS'WEYBOSSET R706'
p1461
(g14
I89
I15992
tp1462
sS'-105'
p1463
(g64
I58
I15880
tp1464
sS'UNION'
p1465
(g590
I100
I15977
tp1466
sS'ATWELLS'
p1467
(g196
I100
I15775
tp1468
sS'KNIGUT'
p1469
(g452
I83
I15890
tp1470
sS'WASH R308'
p1471
(g774
I81
I21700
tp1472
sS'WEYBOSSET R5'
p1473
(g14
I93
I15992
tp1474
sS'WEYBOSSET R4'
p1475
(g14
I93
I15992
tp1476
sS'WAMPANOAG TRAIL. EAST PROVIDENCE TEL GENEVA'
p1477
(g103
I72
I17631
tp1478
sS'WEYBOSSET R1'
p1479
(g14
I93
I15992
tp1480
sS'WEYBOSSET R2'
p1481
(g14
I93
I15992
tp1482
sS'TUXEDO AV'
p1483
(S'TUXEDO AVE'
p1484
I100
I18079
tp1485
sS'127 DORRANCE'
p1486
(g711
I90
I15829
tp1487
sS'EXCHANGE R401'
p1488
(g55
I90
I15846
tp1489
sS'SOCIAL'
p1490
(S'SOCIAL ST'
p1491
I100
I16460
tp1492
sS'DACKSON'
p1493
(g316
I86
I16253
tp1494
sS'-61 BROADWAY; FACTORY'
p1495
(g397
I79
I15794
tp1496
sS'WEYBOSSET'
p1497
(g14
I100
I15992
tp1498
sS'CURTIS'
p1499
(S'CURTIS ST'
p1500
I100
I17813
tp1501
sS'DORRANCE R3 03'
p1502
(g711
I86
I15829
tp1503
sS'WASHINGTON R307,'
p1504
(S'WASHINGTON ST'
p1505
I90
I15987
tp1506
sS'DORRANCE R3 05'
p1507
(g711
I86
I15829
tp1508
sS'LLOYD AV'
p1509
(g593
I100
I17025
tp1510
sS'POST RD. APPONAUG,'
p1511
(S'EAST APPROACH'
p1512
I59
I15832
tp1513
sS'OLNEYVILLE SQ. TEL ELMHURST R1-4104'
p1514
(g218
I77
I17978
tp1515
sS'BURNSIDE'
p1516
(S'BURNSIDE ST'
p1517
I100
I16606
tp1518
sS'MYRTLE'
p1519
(S'MYRTLE ST'
p1520
I100
I17269
tp1521
sS'KENYON'
p1522
(S'KENYON ST'
p1523
I100
I15888
tp1524
sS'WESTIIINBTER.'
p1525
(g386
I78
I15991
tp1526
sS'ARNOLD'
p1527
(S'ARNOLD CT'
p1528
I100
I16028
tp1529
sS'DORRANCE R307'
p1530
(g711
I88
I15829
tp1531
sS'WESTMINSTER; BRANCH 205 WAYLAND AV, TEL GASPEE 1-8400; NEWPORT BRANCH 160 THAMES; 54 BILLSIDER, GARDEN CITY'
p1532
(g35
I59
I15991
tp1533
sS'OLNEYVILLE SQ.'
p1534
(S'OLNEYVILLE SQ'
p1535
I100
I17978
tp1536
sS'GORDON AV, TEL WILLIAMS 1-1111'
p1537
(S'ROGER WILLIAMS AVE'
p1538
I78
I17306
tp1539
sS'ORANGE'
p1540
(g520
I100
I15921
tp1541
sS'PRINTERY'
p1542
(S'PRINTERY ST'
p1543
I100
I16408
tp1544
sS'ENFIELD AV'
p1545
(S'ENFIELD AVE'
p1546
I100
I17483
tp1547
sS'REDWING'
p1548
(S'REDWING ST'
p1549
I100
I17302
tp1550
sS'RHODES TEL GABPEE'
p1551
(S'RHODES PL'
p1552
I81
I16793
tp1553
sS'DIAMOND'
p1554
(S'DIAMOND ST'
p1555
I100
I17199
tp1556
sS'HARRISON'
p1557
(S'HARRISON ST'
p1558
I100
I17226
tp1559
sS'FALLON AV'
p1560
(S'FALLON AVE'
p1561
I100
I17494
tp1562
sS'-6900 GEE YELLOW PAGE'
p1563
(S'LONGFELLOW TER'
p1564
I55
I17252
tp1565
sS'WESTMINSTER R 18'
p1566
(g35
I90
I15991
tp1567
sS'SABIN R8'
p1568
(S'SABIN ST'
p1569
I88
I15950
tp1570
sS'SABIN R1'
p1571
(g1569
I88
I15950
tp1572
sS'-0737 DEXTER'
p1573
(g29
I85
I17198
tp1574
sS'MATHEWSON'
p1575
(g360
I100
I15904
tp1576
sS'RIGHT TOP LINES)'
p1577
(g585
I69
I17781
tp1578
sS'CONGRESS AV'
p1579
(S'CONGRESS AVE'
p1580
I100
I17184
tp1581
sS'WESTMINSTER R601'
p1582
(g35
I90
I15991
tp1583
sS'SUTTON, TEL GASPEE 1-3252'
p1584
(g1099
I70
I15966
tp1585
sS'FRANKLIN COMMERCIAL CONTROLS CORP 236 BROAD COX RALPH C CORP 26 CUSTOM HOUSE R202 DICTAPHONE CORP 338 BROAD'
p1586
(S'COMMERCIAL DR'
p1587
I58
I16114
tp1588
sS'EXCHANGE,'
p1589
(S'EXCHANGE ST'
p1590
I100
I15845
tp1591
sS'0254'
p1592
(S'I 95'
p1593
I29
I15881
tp1594
sS'-44 CHARLES'
p1595
(S'CHARLES ST'
p1596
I91
I16096
tp1597
sS'WEYBOSSET, TEL GASPEE 1-0528'
p1598
(g14
I75
I15992
tp1599
sS'LYNDE'
p1600
(S'LYNDE ST'
p1601
I100
I17580
tp1602
sS'DAVIS'
p1603
(g1245
I100
I16137
tp1604
sS'SMITH TELS DEXTER'
p1605
(g29
I76
I17198
tp1606
sS'GRAHAM'
p1607
(S'GRAHAM ST'
p1608
I100
I16984
tp1609
sS'KEENE'
p1610
(S'KEENE ST'
p1611
I100
I17012
tp1612
sS"WEYBOSSET. TEL GASPEE' 1-1665"
p1613
(g14
I75
I15992
tp1614
sS'WESTMINSTER R10 34'
p1615
(g35
I88
I15991
tp1616
sS'WEYBOSSET R53'
p1617
(g14
I91
I15992
tp1618
sS'WEYBOSSET R52'
p1619
(g14
I91
I15992
tp1620
sS'WEYBOSSET. RI.'
p1621
(g258
I93
I15992
tp1622
sS'WEYBOSSET R54'
p1623
(g14
I91
I15992
tp1624
sS'SABIN'
p1625
(g1569
I100
I15950
tp1626
sS'WEYBOSSET R56'
p1627
(g14
I91
I15992
tp1628
sS'1'
p1629
(g468
I50
I16871
tp1630
sS'INDUSTRIAL BANK BLDG 111 WESTMINSTER STREET, SERVICE OFFICE IN LOBBY.'
p1631
(g386
I64
I15991
tp1632
sS'93 LAURA'
p1633
(S'LAURA ST'
p1634
I88
I17243
tp1635
sS'INDUSTRIAL BANK BLDG 111 WESTMINSTER STREET, SERVICE OFFICE IN LOBBY,'
p1636
(g386
I64
I15991
tp1637
sS'537 BRANCH AV'
p1638
(g151
I87
I16067
tp1639
sS'-8636'
p1640
(S'3RD ST'
p1641
I29
I16873
tp1642
sS'CULVER,'
p1643
(S'CULVER ST'
p1644
I100
I16633
tp1645
sS'THURSTON'
p1646
(S'THURSTON ST'
p1647
I100
I17340
tp1648
sS'PINE TEL DEXTER'
p1649
(g29
I78
I17198
tp1650
sS"WEYBOSSE'I', TEL GASPEE 1-5074'"
p1651
(g14
I71
I15992
tp1652
sS'GANO'
p1653
(S'GANO ST'
p1654
I100
I15861
tp1655
sS'ANSELL'
p1656
(S'ANSEL AVE'
p1657
I91
I17154
tp1658
sS'HUDSON'
p1659
(S'HUDSON ST'
p1660
I100
I17903
tp1661
sS'WESTMINSTER R1040'
p1662
(g35
I89
I15991
tp1663
sS'PAPER CO 49 RATHBONE'
p1664
(S'RATHBONE ST'
p1665
I78
I17637
tp1666
sS'KING, PO BOX 77, OLNEYVILLE STATION, TELS ELMHURST 1-6300, 1-6301'
p1667
(g218
I66
I17978
tp1668
sS'INDUSTRIAL BANK BLDG 111 WESTMINSTER.'
p1669
(g386
I73
I15991
tp1670
sS'CHARLES. TEL DEXTER'
p1671
(g1596
I78
I16096
tp1672
sS'& MANTON AV'
p1673
(g531
I100
I17947
tp1674
sS'UNION TRUST BUILDING 170 WESTMINSTER'
p1675
(g35
I73
I15991
tp1676
sS'LOMBARDI,'
p1677
(S'LOMBARDI ST'
p1678
I100
I16290
tp1679
sS'CHAD BROWN STATE CLEANSERS & LAUNDRY 70 CROOM'
p1680
(S'CORNPLANTER ROW'
p1681
I49
I17187
tp1682
sS'HAYES'
p1683
(S'HAYES ST'
p1684
I100
I17522
tp1685
sS'POSTRROAD.'
p1686
(S'POST RD'
p1687
I62
I16785
tp1688
sS'SHE RATON-BILTMORE'
p1689
(S'BILTMORE AVE'
p1690
I81
I17405
tp1691
sS'GORDON AV,'
p1692
(S'GORDON AVE'
p1693
I100
I16675
tp1694
sS'WESTMINSTER R704'
p1695
(g35
I90
I15991
tp1696
sS'WESTMINSTER R705'
p1697
(g35
I90
I15991
tp1698
sS'WESTMINSTER R706'
p1699
(g35
I90
I15991
tp1700
sS'WESTMINSTER R707'
p1701
(g35
I90
I15991
tp1702
sS'WESTMINSTER R700'
p1703
(g35
I90
I15991
tp1704
sS'WESTMINSTER R702'
p1705
(g35
I90
I15991
tp1706
sS'WESTMINSTER R703'
p1707
(g35
I90
I15991
tp1708
sS'I KNIGHT'
p1709
(g452
I93
I15890
tp1710
sS'WESTMINSTER R708'
p1711
(g35
I90
I15991
tp1712
sS'SILVER SPRING KITTIANACK SHOPPE 139 MATHEWSON R509'
p1713
(g1211
I40
I16702
tp1714
sS'-8800'
p1715
(g1297
I29
I16878
tp1716
sS'-6762'
p1717
(g96
I29
I16872
tp1718
sS"WAINWRIGHT, TEL DEXTER'1-2678"
p1719
(S'WAINWRIGHT ST'
p1720
I76
I17706
tp1721
sS'WESTMINSTER, TEL GASPEE 1-0566'
p1722
(g35
I77
I15991
tp1723
sS'WEYBMSET,'
p1724
(g258
I82
I15992
tp1725
sS'WESTMINSTER, SUITE 335, EL JACKSON 1-6700'
p1726
(g35
I72
I15991
tp1727
sS'; SHEPLEY INC'
p1728
(S'HEDLEY ST'
p1729
I68
I21727
tp1730
sS'WESTMINSTER R832'
p1731
(g35
I90
I15991
tp1732
sS"-8255 NIGHTS ' HOLIDAYS TEL ELINHURST"
p1733
(S'ELMHURST AVE'
p1734
I57
I17482
tp1735
sS"BEV'ERLY R 18"
p1736
(g181
I71
I15783
tp1737
sS'MAWNEY'
p1738
(S'MAWNEY ST'
p1739
I100
I17261
tp1740
sS'357 WESTMINSTER R413'
p1741
(g35
I85
I15991
tp1742
sS'-1064'
p1743
(g295
I50
I16868
tp1744
sS'NELSON'
p1745
(S'NELSON ST'
p1746
I100
I17603
tp1747
sS'CRARY'
p1748
(S'CRARY ST'
p1749
I100
I15818
tp1750
sS'CLIFF'
p1751
(S'CLIFF ST'
p1752
I100
I17441
tp1753
sS'SABIN 6TH'
p1754
(g1569
I85
I15950
tp1755
sS'-91 ATWELLS AV'
p1756
(g196
I91
I15775
tp1757
sS'HEMLOCK'
p1758
(S'HEMLOCK ST'
p1759
I100
I17525
tp1760
sS'WESTMINSTER B803'
p1761
(g35
I90
I15991
tp1762
sS'PEAK'
p1763
(S'PECK ST'
p1764
I75
I15928
tp1765
sS'MCMCOUN SQUARE, TELS PLANTING 1-2260, 1-2261'
p1766
(S'MOUNT PLEASANT AVE'
p1767
I51
I17599
tp1768
sS'-1119 JACKSON 1-0072'
p1769
(g1405
I77
I16253
tp1770
sS'COLFAX'
p1771
(S'COLFAX ST'
p1772
I100
I16626
tp1773
sS'5TH'
p1774
(S'5TH ST'
p1775
I100
I16875
tp1776
sS'DYER AV. CRANSTON,'
p1777
(S'CRANSTON ST'
p1778
I83
I15817
tp1779
sS'WASHINGTON R306'
p1780
(g878
I90
I15987
tp1781
sS'BROAD R10'
p1782
(g263
I85
I15793
tp1783
sS'AMSTERDAM'
p1784
(S'AMSTERDAM ST'
p1785
I100
I17745
tp1786
sS'MORRIS AV'
p1787
(S'MORRIS AVE'
p1788
I100
I17047
tp1789
sS'WEYB0SSET R20'
p1790
(g14
I81
I15992
tp1791
sS"-7123'"
p1792
(S'12TH ST'
p1793
I50
I16870
tp1794
sS'GROTON'
p1795
(S'GROTON ST'
p1796
I100
I17875
tp1797
sS'-24 RANDALL'
p1798
(S'RANDALL RD'
p1799
I91
I16415
tp1800
sS'SMITH R1'
p1801
(g81
I88
I16457
tp1802
sS'EHARLES'
p1803
(g1596
I86
I16096
tp1804
sS'SMITH R2'
p1805
(g81
I88
I16457
tp1806
sS'SMITH R5'
p1807
(g81
I88
I16457
tp1808
sS'MAS. AMOUR AV, EAST PROVIDENCE, TEIS EAST PNOVMNNCN 1-3881, 1-2095'
p1809
(g103
I66
I17631
tp1810
sS'SMITH R7'
p1811
(g81
I88
I16457
tp1812
sS'SMITH R6'
p1813
(g81
I88
I16457
tp1814
sS'EXCHANGE R327'
p1815
(g55
I90
I15846
tp1816
sS'EXCHANGE R323'
p1817
(g55
I90
I15846
tp1818
sS'EXCHANGE R322'
p1819
(g55
I90
I15846
tp1820
sS'EXCHANGE P1R514'
p1821
(g55
I87
I15846
tp1822
sS'PECK, TEL DEXTER 1-1400'
p1823
(g29
I71
I17198
tp1824
sS'LEAH'
p1825
(S'LEAH ST'
p1826
I100
I17561
tp1827
sS'-4436'
p1828
(g1641
I29
I16873
tp1829
sS'WEYBOSSET, TEL JACKSON 1-3411'
p1830
(g14
I74
I15992
tp1831
sS'EOMWOOD AV'
p1832
(g671
I86
I17207
tp1833
sS'EXCHAME,'
p1834
(g1590
I80
I15845
tp1835
sS'GOULD'
p1836
(S'GOULDING ST'
p1837
I77
I16982
tp1838
sS'DOVLE AV'
p1839
(S'DOVE ST'
p1840
I89
I16945
tp1841
sS'-8432 1-843;'
p1842
(S'2ND ST'
p1843
I22
I16872
tp1844
sS'MEDWAY. TEL UNLON'
p1845
(S'MEDWAY ST'
p1846
I77
I17040
tp1847
sS'WESTMINSTER. TEIS ELMHURST'
p1848
(g35
I80
I15991
tp1849
sS'ATWELLS5AV'
p1850
(g196
I82
I15775
tp1851
sS'44 HARRISON'
p1852
(g1558
I92
I17226
tp1853
sS'WASHINGTON R1'
p1854
(g878
I93
I15987
tp1855
sS"WT'ESTMINSTER R8"
p1856
(g35
I88
I15991
tp1857
sS'RHODES,'
p1858
(S'RHODES ST'
p1859
I100
I15945
tp1860
sS'-3643'
p1861
(g1641
I29
I16873
tp1862
sS'-3095 RES TELS GASPEE'
p1863
(g939
I73
I15863
tp1864
sS'WALSH 111 WESTMINSTER R505'
p1865
(g35
I79
I15991
tp1866
sS'BRANCH AV'
p1867
(g151
I100
I16067
tp1868
sS'PLANET'
p1869
(S'PLANET ST'
p1870
I100
I15935
tp1871
sS'2'
p1872
(g96
I50
I16872
tp1873
sS'JOHN'
p1874
(S'JOHN ST'
p1875
I100
I16259
tp1876
sS'WESTMINSTER R59'
p1877
(g35
I92
I15991
tp1878
sS'WEYBOSSET R409'
p1879
(g14
I89
I15992
tp1880
sS'PRAIRIE AV'
p1881
(S'PRAIRIE AVE'
p1882
I100
I16787
tp1883
sS'BRIDGHANF'
p1884
(S'BRIDGHAM ST'
p1885
I82
I17169
tp1886
sS'FOUNTAIN,'
p1887
(g1344
I100
I15853
tp1888
sS'BRAYTON AV'
p1889
(S'BRAYTON AVE'
p1890
I100
I15791
tp1891
sS'WEYBOSSET R 533'
p1892
(g14
I87
I15992
tp1893
sS'WESTMINS TE R'
p1894
(g35
I88
I15991
tp1895
sS'-3800'
p1896
(g1641
I29
I16873
tp1897
sS'WESTMINSTER R507'
p1898
(g35
I90
I15991
tp1899
sS'MRS 15 WESTMINSTER R1103'
p1900
(g35
I81
I15991
tp1901
sS"-27OB'Z"
p1902
(S'JOB ST'
p1903
I50
I16257
tp1904
sS'76 DORRANCE R301'
p1905
(g711
I83
I15829
tp1906
sS'-314 CRANSTON'
p1907
(g717
I90
I15817
tp1908
sS'BROAD, EDGEWOOD, TEL HOPKINS 1-5400'
p1909
(S'EDGEWOOD BLVD'
p1910
I71
I16652
tp1911
sS'WASH R315'
p1912
(g774
I81
I21700
tp1913
sS'OF SIDNEY F HOAR CAMP 176 BENEFIT'
p1914
(g494
I67
I15781
tp1915
sS"CRANSTON, 3'SZ GASPEE 17300"
p1916
(g717
I73
I15817
tp1917
sS'111WESTMINSTER R428'
p1918
(g35
I80
I15991
tp1919
sS"CHARLTON, EVERETT. MASS. TEL EVERETT 9-0076'"
p1920
(S'CARLETON ST'
p1921
I58
I17427
tp1922
sS'SUTTON,'
p1923
(S'SUTTON ST'
p1924
I100
I15966
tp1925
sS'LEFT TOP LILIES)'
p1926
(S'NELLIE ST'
p1927
I57
I16355
tp1928
sS'12 CHAPIN AV'
p1929
(g503
I90
I17800
tp1930
sS'HIGHLAND AV'
p1931
(S'HIGHLAND AVE'
p1932
I100
I16997
tp1933
sS'PRISCILLA AV'
p1934
(S'PRISCILLA AVE'
p1935
I100
I18000
tp1936
sS'WES TMINSTER'
p1937
(g35
I90
I15991
tp1938
sS'WESTMINSTER, TEL GASPEE 1-2588'
p1939
(g35
I77
I15991
tp1940
sS'ATWELL AV'
p1941
(g52
I92
I15775
tp1942
sS'JULIAN'
p1943
(S'JULIAN ST'
p1944
I100
I17914
tp1945
sS'SHAWMUT'
p1946
(S'SHAW ST'
p1947
I73
I16448
tp1948
sS'D CORNER BOOK SHOP 4G WEYBOSSET'
p1949
(g14
I72
I15992
tp1950
sS'EDDY. TEL STUART 1-9300'
p1951
(S'STATE HWY 10'
p1952
I57
I17332
tp1953
sS'CALVERLEY'
p1954
(S'CALVERLY ST'
p1955
I94
I17419
tp1956
sS'DORRANCE R511'
p1957
(g711
I88
I15829
tp1958
sS'DORRANCE R510'
p1959
(g711
I88
I15829
tp1960
sS'DORRANCE R517'
p1961
(g711
I88
I15829
tp1962
sS'DORRANCE R516'
p1963
(g711
I88
I15829
tp1964
sS'WICKEHDEN'
p1965
(g1424
I89
I15995
tp1966
sS'-88 NARRAGANSETT AV'
p1967
(g658
I95
I17270
tp1968
sS'LABAN,'
p1969
(S'LABAN ST'
p1970
I100
I17924
tp1971
sS'PROSPECT'
p1972
(S'PROSPECT ST'
p1973
I100
I16409
tp1974
sS'WEYBOSSET, TEL GASPEE 1-1757'
p1975
(g14
I75
I15992
tp1976
sS"BR'OAD. TEL WILLIAMS"
p1977
(g1538
I86
I17306
tp1978
sS'WESTMINST'
p1979
(g35
I90
I15991
tp1980
sS'A ATWELLS AV'
p1981
(g196
I94
I15775
tp1982
sS'SOUTH'
p1983
(S'SOUTH CT'
p1984
I100
I15959
tp1985
sS'HAYWARD'
p1986
(S'HAYWARD ST'
p1987
I100
I17231
tp1988
sS'-6700Z'
p1989
(S'6TH ST'
p1990
I25
I16876
tp1991
sS'SAFGENT AV'
p1992
(S'SARGENT AVE'
p1993
I86
I17095
tp1994
sS'GLENBRIDGE AV'
p1995
(S'GLENBRIDGE AVE'
p1996
I100
I17868
tp1997
sS'-6600'
p1998
(g1990
I29
I16876
tp1999
sS'MAGNOLIA'
p2000
(S'MAGNOLIA ST'
p2001
I100
I17944
tp2002
sS'RESERVOIR AV,'
p2003
(S'RESERVOIR AVE'
p2004
I100
I17303
tp2005
sS"-54'00"
p2006
(g46
I36
I15881
tp2007
sS"GORDON AV, TEL WILLIAMS 1-2086'"
p2008
(g1538
I78
I17306
tp2009
sS'LENNON'
p2010
(S'LENNON ST'
p2011
I100
I17563
tp2012
sS'DORRANCE.'
p2013
(g1416
I100
I15829
tp2014
sS'LOUIS AV'
p2015
(S'LOUIS AVE'
p2016
I100
I17253
tp2017
sS'GORDON AV. TEL ; WLLLIAMS 1-1111'
p2018
(S'ROGER WILLIAMS CIR'
p2019
I69
I16799
tp2020
sS'SMITH ROOMS 4-5'
p2021
(g81
I75
I16457
tp2022
sS'PRINT ERY'
p2023
(g1543
I85
I16408
tp2024
sS'CINAL'
p2025
(S'CANAL ST'
p2026
I80
I15798
tp2027
sS'WEYBCBSET, TEL DEXTER 1-8200'
p2028
(g14
I58
I15992
tp2029
sS"-0400'"
p2030
(g70
I29
I16874
tp2031
sS"Z1 WALCOTT, PAWTUCKET. TE'L PAWTUCKET 2-2110"
p2032
(g446
I55
I16771
tp2033
sS'EDDY R712A'
p2034
(S'EUDORA ST'
p2035
I43
I15842
tp2036
sS'EDDY R712B'
p2037
(S'DERBY AVE'
p2038
I40
I16141
tp2039
sS'TERMINAL WAY'
p2040
(S'TERMINAL RD'
p2041
I90
I16838
tp2042
sS'WESTMINSTER. TEL UNION 1-5400'
p2043
(g35
I78
I15991
tp2044
sS'CAMDEN AV'
p2045
(g1258
I100
I17421
tp2046
sS'LOOKWOOD CHAPIN CHAS V HOSPITAL 153 EATON CURATIVE CENTRE 249 BLACKSTONE BLVD MCALPINE MEMORIAL GENERAL HOSPITAL INC 3 71 BROADWAY'
p2047
(g799
I60
I16904
tp2048
sS'WESTMINSTER R717'
p2049
(g35
I90
I15991
tp2050
sS'WESTMINSTER R716'
p2051
(g35
I90
I15991
tp2052
sS'WESTMINSTER R715'
p2053
(g35
I90
I15991
tp2054
sS'WESTMINSTER R714'
p2055
(g35
I90
I15991
tp2056
sS'WESTMINSTER R713'
p2057
(g35
I90
I15991
tp2058
sS'WESTMINSTER R712'
p2059
(g35
I90
I15991
tp2060
sS'WESTMINSTER R711'
p2061
(g35
I90
I15991
tp2062
sS'WESTMINSTER R710'
p2063
(g35
I90
I15991
tp2064
sS'ELMGROVE AV'
p2065
(g953
I100
I16960
tp2066
sS'WICKENDEN'
p2067
(g1424
I100
I15995
tp2068
sS'-6024 NIGHTS SUNDAYS HOLIDAYS TELS TELEE'
p2069
(S'NICHOLAS BROWN YARD ST'
p2070
I47
I17054
tp2071
sS'NTD'
p2072
(S'UNITED ST'
p2073
I67
I16508
tp2074
sS'GEORGE M COHAN BLVD, TELS GASPEE 1-8466, 1-8467, 1-8468'
p2075
(S'GEORGE M COHAN BLVD'
p2076
I77
I15864
tp2077
sS'CHARLES TEL DEXTER'
p2078
(g1596
I78
I16096
tp2079
sS'BELL'
p2080
(S'BELL ST'
p2081
I100
I17768
tp2082
sS'-34 DUDLEY'
p2083
(g1021
I90
I15830
tp2084
sS'MAIN NEXT TO COURT HOUSE TEL DEXTER'
p2085
(g29
I64
I17198
tp2086
sS'I POCASSET AV'
p2087
(g854
I94
I17995
tp2088
sS'WEYBOSSET R21'
p2089
(g14
I91
I15992
tp2090
sS'PRUDENCE AV'
p2091
(S'PRUDENCE AVE'
p2092
I100
I18002
tp2093
sS'-6320'
p2094
(g1843
I29
I16872
tp2095
sS'883 EDDVY'
p2096
(g567
I75
I15834
tp2097
sS'UNION AV,'
p2098
(S'UNION ST'
p2099
I100
I15977
tp2100
sS'-5 PRAIRIE AV'
p2101
(g1882
I94
I16787
tp2102
sS'BRIDGBAM TEL GASPEE 1-1214'
p2103
(g639
I64
I17169
tp2104
sS'EAGLE'
p2105
(S'EAGLE ST'
p2106
I100
I17477
tp2107
sS'-2261'
p2108
(g468
I29
I16871
tp2109
sS'DOIXGLAS AV'
p2110
(g449
I80
I16154
tp2111
sS'FRANKLIN R112'
p2112
(g249
I88
I16188
tp2113
sS'WESTMINS TER R44'
p2114
(g35
I82
I15991
tp2115
sS'HOMER'
p2116
(S'HOMER ST'
p2117
I100
I16694
tp2118
sS'CM NUT TEL GASPEE'
p2119
(g939
I76
I15863
tp2120
sS'LIBERTY'
p2121
(S'LIBERTY ST'
p2122
I100
I21737
tp2123
sS'DOYLE AV'
p2124
(S'DOYLE AVE'
p2125
I100
I16946
tp2126
sS'ECHY'
p2127
(g1357
I67
I16050
tp2128
sS"'WESTMINSTER R1221A"
p2129
(g35
I88
I15991
tp2130
sS'STEWART DROLET FRANCIS B 36 ATWELLS AV'
p2131
(g357
I66
I15963
tp2132
sS'CREIGHTON'
p2133
(S'CREIGHTON ST'
p2134
I100
I16935
tp2135
sS'EUDORA'
p2136
(g2035
I100
I15842
tp2137
sS'GREELEY'
p2138
(S'GREELEY ST'
p2139
I100
I16212
tp2140
sS"RI'GHT TOP LINES BACK COVER)"
p2141
(g109
I51
I17383
tp2142
sS'-39 PARKIS AV'
p2143
(S'PARKIS AVE'
p2144
I90
I17282
tp2145
sS"ATWELIS AV. TEIS GASNEE 1-1610, 1-1611, 1-1612 '"
p2146
(g196
I55
I15775
tp2147
sS'-0-2234'
p2148
(g96
I25
I16872
tp2149
sS'PITMAN'
p2150
(S'PITMAN ST'
p2151
I100
I17073
tp2152
sS'WESTMINSTER R71 2'
p2153
(g35
I89
I15991
tp2154
sS'FISK'
p2155
(S'FISK ST'
p2156
I100
I16662
tp2157
sS'EIMPIRE'
p2158
(g204
I92
I15840
tp2159
sS'NEWTON'
p2160
(S'NEWTON ST'
p2161
I100
I15917
tp2162
sS'PEMBROKE AV'
p2163
(S'PEMBROKE AVE'
p2164
I100
I17624
tp2165
sS'-2670'
p2166
(g96
I29
I16872
tp2167
sS'92 WILLARD AV'
p2168
(g1314
I91
I16545
tp2169
sS'-2672'
p2170
(g96
I29
I16872
tp2171
sS"POTTER'S AV"
p2172
(S'POTTERS AVE'
p2173
I83
I16786
tp2174
sS'FH FL)'
p2175
(S'FOCH AVE'
p2176
I55
I16184
tp2177
sS'MT PLEASANT AV'
p2178
(g680
I94
I16399
tp2179
sS'EDDY R202'
p2180
(g567
I81
I15834
tp2181
sS'LEFT SIDE LINES)'
p2182
(S'EMELINE ST'
p2183
I61
I16963
tp2184
sS'WEST-'
p2185
(S'WEST ST'
p2186
I100
I15990
tp2187
sS'-7600'
p2188
(g1990
I29
I16876
tp2189
sS'CHARLES TEL GASPEE'
p2190
(g1596
I78
I16096
tp2191
sS'PENN'
p2192
(S'PENN ST'
p2193
I100
I17989
tp2194
sS'MAN TON AV'
p2195
(g531
I79
I17947
tp2196
sS'CRESCENT'
p2197
(S'CRESCENT ST'
p2198
I100
I17189
tp2199
sS'DWIGHT'
p2200
(S'DWIGHT ST'
p2201
I100
I16949
tp2202
sS'GEORGIA AV'
p2203
(g1341
I100
I16671
tp2204
sS'; COAL CO. INC.'
p2205
(S'COLONIAL DR'
p2206
I60
I16112
tp2207
sS'W EXCHANGE. TEL GASDEE'
p2208
(g336
I85
I15982
tp2209
sS'MOORE'
p2210
(S'MOORE ST'
p2211
I100
I17265
tp2212
sS'EXCHANGE R420'
p2213
(g55
I90
I15846
tp2214
sS'WESTMINSTER R404, TEL UNION 1-4211'
p2215
(g35
I75
I15991
tp2216
sS'STEVENS'
p2217
(g703
I71
I18056
tp2218
sS'BARTON'
p2219
(S'BARTON ST'
p2220
I100
I17765
tp2221
sS'JACTCSON R2 06'
p2222
(g316
I68
I16253
tp2223
sS'. CO INC'
p2224
(g746
I65
I16180
tp2225
sS'CUSTOM HOUSE'
p2226
(g121
I100
I15820
tp2227
sS'A STEEPLE'
p2228
(S'STEEPLE ST'
p2229
I94
I15962
tp2230
sS'MILLER AV'
p2231
(S'MILLER AVE'
p2232
I100
I16736
tp2233
sS'LARCH'
p2234
(S'LARCH ST'
p2235
I100
I17017
tp2236
sS'BROADWAY R205'
p2237
(g397
I88
I15794
tp2238
sS"FRONT ' COVER)"
p2239
(g1321
I69
I16975
tp2240
sS'ELMWOOD REGINA MARIA CONVALESCENT HOME 98 PROVIDENCE'
p2241
(g1255
I49
I17451
tp2242
sS'WAMPANOAG TRAIL EAST PROVIDENCE TEL GENEVD'
p2243
(g103
I72
I17631
tp2244
sS'WAMPANOAG TRAIL EAST PROVIDENCE TEL GENEVA'
p2245
(g103
I72
I17631
tp2246
sS'-0254'
p2247
(g46
I29
I15881
tp2248
sS'COLD SPRING'
p2249
(S'COLD SPRING ST'
p2250
I100
I16927
tp2251
sS'DORRANGE, TEL GASPEE 1-0555'
p2252
(S'DORRANCE PLZ'
p2253
I67
I15828
tp2254
sS'G PRAIRIE AV'
p2255
(g1882
I94
I16787
tp2256
sS'WEYBOSSET R525'
p2257
(g14
I89
I15992
tp2258
sS'ERNEST'
p2259
(g1057
I100
I16656
tp2260
sS"RIGHT TOP UNES)'"
p2261
(g585
I70
I17781
tp2262
sS'UNION R306 MARKET CREATIONS 26 CUSTOM HOUSE R202'
p2263
(g1006
I51
I15978
tp2264
sS". TEL GA'LM"
p2265
(S'TELL ST'
p2266
I74
I18068
tp2267
sS'BROOK'
p2268
(g1054
I100
I15795
tp2269
sS'WEYBOSSET R506'
p2270
(g14
I89
I15992
tp2271
sS'WEYBOSSET R504'
p2272
(g14
I89
I15992
tp2273
sS'WEYBOSSET R505'
p2274
(g14
I89
I15992
tp2275
sS'FRIENDSHIP, TEL GASPEE 145481'
p2276
(S'FRIENDSHIP ST'
p2277
I76
I15858
tp2278
sS'WESTMINSTER ROOM 216,'
p2279
(g386
I85
I15991
tp2280
sS'5 WATER'
p2281
(S'WAITE AVE'
p2282
I73
I16850
tp2283
sS'WASHINGTON,'
p2284
(g1505
I100
I15987
tp2285
sS'WASHINGTON.'
p2286
(g1505
I100
I15987
tp2287
sS'SEEKONK,'
p2288
(S'SEEKONK ST'
p2289
I100
I17097
tp2290
sS'HASKINS'
p2291
(S'HASKINS ST'
p2292
I100
I15870
tp2293
sS'WESTMINSTER R523'
p2294
(g35
I90
I15991
tp2295
sS'ARMSTRONG AV'
p2296
(S'ARMSTRONG AVE'
p2297
I100
I15774
tp2298
sS'N MAIN R5'
p2299
(S'NORTH MAIN ST'
p2300
I93
I15916
tp2301
sS'STAMFORD AV'
p2302
(S'STAMFORD AVE'
p2303
I100
I17330
tp2304
sS'WAMPANOAG TRAIL EAST PROVIDENCE'
p2305
(g950
I74
I17299
tp2306
sS'VIRGINIA'
p2307
(S'VIRGINIA AVE'
p2308
I100
I16849
tp2309
sS'-8433'
p2310
(g1641
I29
I16873
tp2311
sS'N MAIN R3'
p2312
(g2300
I93
I15916
tp2313
sS'BROADWAY "'
p2314
(g397
I100
I15794
tp2315
sS'WEYBOSSET R218'
p2316
(g14
I89
I15992
tp2317
sS'; CO INC'
p2318
(g746
I65
I16180
tp2319
sS'SIMS AV,'
p2320
(g1284
I100
I18041
tp2321
sS'WEYBOSSET R212'
p2322
(g14
I89
I15992
tp2323
sS'& ATWELLS AV'
p2324
(g196
I100
I15775
tp2325
sS'LEFT TOP LINES)'
p2326
(S'ALPINE CT'
p2327
I61
I16885
tp2328
sS'MEDWAY'
p2329
(g1846
I100
I17040
tp2330
sS'WESTMINSTER R733A'
p2331
(g35
I89
I15991
tp2332
sS'NEWARK'
p2333
(S'NEWARK ST'
p2334
I100
I17604
tp2335
sS'PEMBERTON'
p2336
(S'PEMBERTON ST'
p2337
I100
I17623
tp2338
sS'WESTMINSTER R1207'
p2339
(g35
I89
I15991
tp2340
sS'WESTMINSTER R1206'
p2341
(g35
I89
I15991
tp2342
sS'4'
p2343
(g70
I50
I16874
tp2344
sS'WESTMINSTER R1202'
p2345
(g35
I89
I15991
tp2346
sS'CROMWELL'
p2347
(S'CROMWELL ST'
p2348
I100
I17190
tp2349
sS'-186 UNION AV'
p2350
(S'UNION AV'
p2351
I90
I18080
tp2352
sS'GROVE'
p2353
(S'GROVE ST'
p2354
I100
I17876
tp2355
sS'RATHBONE'
p2356
(g1665
I100
I17637
tp2357
sS'WESTMINSTER R1428'
p2358
(g35
I89
I15991
tp2359
sS'& CHARLES'
p2360
(g1596
I100
I16096
tp2361
sS'WESTMINSTER R1420'
p2362
(g35
I89
I15991
tp2363
sS'WASHINGTON R 312'
p2364
(g43
I88
I15986
tp2365
sS'WESTMINSTER R907I'
p2366
(g35
I89
I15991
tp2367
sS'PILSUDSKI'
p2368
(S'PILSUDSKI ST'
p2369
I100
I17993
tp2370
sS'STILLMAN'
p2371
(S'STILLMAN ST'
p2372
I100
I15964
tp2373
sS'WESTMINSTER R1512'
p2374
(g35
I89
I15991
tp2375
sS'WESTMINSTER R1516'
p2376
(g35
I89
I15991
tp2377
sS'KINSLEY AV'
p2378
(S'KINSLEY AVE'
p2379
I100
I15889
tp2380
sS'LLOYD'
p2381
(g593
I100
I17025
tp2382
sS'ANGEU'
p2383
(g520
I73
I15921
tp2384
sS'ROOMS WITH BATH'
p2385
(S'BROOM ST'
p2386
I60
I16605
tp2387
sS'-5482; FUNERAL HOME BRANCH AVENUE AT HAWKINS'
p2388
(S'MINERAL SPRING AV'
p2389
I51
I16343
tp2390
sS'RIGHT TOP LINES BACK COVER) IRONS EARL M'
p2391
(g585
I53
I17781
tp2392
sS'HARKNESS'
p2393
(S'HARKNESS ST'
p2394
I100
I17884
tp2395
sS'361 ATWELLS AV'
p2396
(g196
I89
I15775
tp2397
sS'WAGHINGTON PL'
p2398
(g43
I91
I15986
tp2399
sS'-400 HARRIS AV'
p2400
(g508
I87
I15869
tp2401
sS'CARGILL'
p2402
(S'CARGILL ST'
p2403
I100
I15800
tp2404
sS'-6700'
p2405
(g1990
I29
I16876
tp2406
sS'WENDELL'
p2407
(S'WENDELL ST'
p2408
I100
I16535
tp2409
sS'WESTMINSTER R36'
p2410
(g35
I92
I15991
tp2411
sS'GEORGIA AV, TEL STUART 1-5456'
p2412
(g1341
I70
I16671
tp2413
sS'-66 ORANGE'
p2414
(g520
I90
I15921
tp2415
sS'S WEYBOGSET, TEL GASPEE 1-8390'
p2416
(g14
I63
I15992
tp2417
sS'-4496V'
p2418
(g46
I25
I15881
tp2419
sS'-9706'
p2420
(g46
I29
I15881
tp2421
sS'83 BATTEY'
p2422
(S'BATTEY ST'
p2423
I90
I15778
tp2424
sS'BATHBONE'
p2425
(g1665
I88
I17637
tp2426
sS'MATHEWSON R711'
p2427
(g360
I89
I15904
tp2428
sS'-0400'
p2429
(g70
I29
I16874
tp2430
sS'MATHEWSON.'
p2431
(g365
I100
I15904
tp2432
sS'WESTMINSTER R821 FF'
p2433
(g35
I86
I15991
tp2434
sS'WESTMINSTER R100'
p2435
(g35
I90
I15991
tp2436
sS'FIRGLADE AV'
p2437
(S'FIRGLADE AVE'
p2438
I100
I16969
tp2439
sS'WESTMINSTER R104'
p2440
(g35
I90
I15991
tp2441
sS'BELLEVUE AV'
p2442
(S'BELLEVUE AVE'
p2443
I100
I16051
tp2444
sS"' RENT COVER)"
p2445
(g339
I68
I17877
tp2446
sS'HUXLEY AV'
p2447
(S'HUXLEY AVE'
p2448
I100
I17539
tp2449
sS'CYPRESS'
p2450
(S'CYPRESS ST'
p2451
I100
I16132
tp2452
sS'EDDY R505'
p2453
(g567
I81
I15834
tp2454
sS'RESERVOIR AV, TEL;WILLIAMS 1-3500'
p2455
(g26
I72
I17303
tp2456
sS'MOOREFIELD'
p2457
(S'MOOREFIELD ST'
p2458
I100
I17965
tp2459
sS'C0 403 HOPE'
p2460
(g1292
I76
I15875
tp2461
sS'-6010'
p2462
(g295
I50
I16868
tp2463
sS'WESTMINSTER R216'
p2464
(g35
I90
I15991
tp2465
sS'WESTMINSTER R214'
p2466
(g35
I90
I15991
tp2467
sS'WESTMINSTER R215'
p2468
(g35
I90
I15991
tp2469
sS'; VARNISH CO INC'
p2470
(S'STANDISH AVE'
p2471
I56
I17670
tp2472
sS'WESTMINSTER R213'
p2473
(g35
I90
I15991
tp2474
sS'-6233'
p2475
(g96
I29
I16872
tp2476
sS'-306 ELMWOOD AV'
p2477
(g671
I89
I17207
tp2478
sS'EDDY,'
p2479
(S'EDDY ST'
p2480
I100
I15834
tp2481
sS'SMITH'
p2482
(g81
I100
I16457
tp2483
sS'WESTMINSTER R218'
p2484
(g35
I90
I15991
tp2485
sS'WEVYB0SSET,'
p2486
(g14
I84
I15992
tp2487
sS'-252 ABORN'
p2488
(g427
I85
I15763
tp2489
sS'-4700'
p2490
(g70
I29
I16874
tp2491
sS'WEYBOSSETN'
p2492
(g14
I95
I15992
tp2493
sS'380 ELMW OOD AV'
p2494
(g671
I73
I17207
tp2495
sS'PAWTUCKET AV. PAWTUCKET,'
p2496
(g446
I64
I16771
tp2497
sS'LOCKWOOD'
p2498
(S'LOCKWOOD ST'
p2499
I100
I15895
tp2500
sS'ATW OOD'
p2501
(S'ATWOOD AVE'
p2502
I79
I16037
tp2503
sS'ALLERFS AV'
p2504
(g901
I77
I15768
tp2505
sS'ELM'
p2506
(S'ELM ST'
p2507
I100
I15837
tp2508
sS'SALMON'
p2509
(S'SALMON ST'
p2510
I100
I18025
tp2511
sS'ELMWOOD AV'
p2512
(g671
I100
I17207
tp2513
sS'IRVING AV'
p2514
(S'IRVING ST'
p2515
I100
I16251
tp2516
sS'I MANTON AV'
p2517
(g531
I93
I17947
tp2518
sS'RICHMOND R207'
p2519
(g1214
I88
I15946
tp2520
sS'RICHMOND R206'
p2521
(g1214
I88
I15946
tp2522
sS'ACADEMY'
p2523
(S'ACADEMY AVE'
p2524
I100
I17365
tp2525
sS'WEYBOSSET;'
p2526
(g14
I100
I15992
tp2527
sS'SEABURV'
p2528
(S'SEABURY ST'
p2529
I86
I17320
tp2530
sS'EMPIRE'
p2531
(g204
I100
I15840
tp2532
sS'RESERVOIR AV, TEL WILLIAMS 1-4464'
p2533
(g26
I72
I17303
tp2534
sS'FRANKLIN'
p2535
(g249
I100
I16188
tp2536
sS'N MA IN'
p2537
(g2300
I97
I15916
tp2538
sS'POWERS'
p2539
(g144
I91
I15939
tp2540
sS'WEYBOSSET,'
p2541
(g258
I100
I15992
tp2542
sS'WEYBOSSET.'
p2543
(g258
I100
I15992
tp2544
sS'WEYBOSSET 2D'
p2545
(g14
I93
I15992
tp2546
sS'DUNNELL AV, PAWTUCKET,'
p2547
(g446
I66
I16771
tp2548
sS'MT PLEASANT'
p2549
(g1767
I94
I17599
tp2550
sS'WARR EN'
p2551
(g132
I86
I17349
tp2552
sS'-756 BROAD,'
p2553
(g323
I85
I15793
tp2554
sS'BENEFIT'
p2555
(g494
I100
I15781
tp2556
sS'GILLEN'
p2557
(S'GILLEN AVE'
p2558
I100
I16202
tp2559
sS'39 89 BROADWAY'
p2560
(g397
I86
I15794
tp2561
sS'-59 CHESTNUT'
p2562
(S'CHESTNUT ST'
p2563
I92
I15807
tp2564
sS'-1860'
p2565
(g295
I50
I16868
tp2566
sS'ARCADE'
p2567
(S'ARCADE ST'
p2568
I100
I15773
tp2569
sS'ARCADE BLDG. "REL GASNEE BLOW LSEE YELLOW PAGE'
p2570
(g2568
I62
I15773
tp2571
sS'SUMTER'
p2572
(S'SUMTER ST'
p2573
I100
I17333
tp2574
sS'WEST PARK,'
p2575
(S'WEST PARK ST'
p2576
I100
I17704
tp2577
sS'5'
p2578
(g46
I53
I15881
tp2579
sS"-6655. D'EXTER"
p2580
(g29
I79
I17198
tp2581
sS'-197 WILLARD AV'
p2582
(g1314
I89
I16545
tp2583
sS'WASH3 I INGTON PL FT'
p2584
(g43
I77
I15986
tp2585
sS'I CHARLES'
p2586
(g1596
I94
I16096
tp2587
sS'WALDO'
p2588
(S'WALDO ST'
p2589
I100
I16526
tp2590
sS'& POCASSET AV'
p2591
(g854
I100
I17995
tp2592
sS'W EXCHANGE'
p2593
(g336
I100
I15982
tp2594
sS'THAYER'
p2595
(S'THAYER ST'
p2596
I100
I17112
tp2597
sS'BISHOP'
p2598
(S'BRISTOW ST'
p2599
I62
I16069
tp2600
sS'BENEVOLENT'
p2601
(S'BENEVOLENT ST'
p2602
I100
I16902
tp2603
sS'ROUNDS AV'
p2604
(S'ROUNDS AVE'
p2605
I100
I17309
tp2606
sS'WHITEHALL'
p2607
(S'WHITEHALL ST'
p2608
I100
I18106
tp2609
sS'SNOW'
p2610
(S'SNOW ST'
p2611
I100
I15957
tp2612
sS'WEYBOSSET, TEL GASPEE 1-2452'
p2613
(g14
I75
I15992
tp2614
sS'JACKSON R205'
p2615
(g316
I87
I16253
tp2616
sS'JACKSON R201'
p2617
(g316
I87
I16253
tp2618
sS'SLATER AV'
p2619
(S'SLATER AVE'
p2620
I100
I17100
tp2621
sS'JACKSON R203'
p2622
(g316
I87
I16253
tp2623
sS'GANO, TEL GASPEEL 1-9312'
p2624
(g939
I66
I15863
tp2625
sS'SMITH NGLAND MOTORS INC. 220 ELMWOOO AV,'
p2626
(g1338
I57
I17207
tp2627
sS'POPE'
p2628
(S'POPE ST'
p2629
I100
I16405
tp2630
sS'BROADWAY R28'
p2631
(g397
I90
I15794
tp2632
sS'DARTMOUTH AV'
p2633
(S'DARTMOUTH AVE'
p2634
I100
I17192
tp2635
sS'-1247 ELMWOOD AV'
p2636
(g671
I87
I17207
tp2637
sS'89 BROADWAY'
p2638
(g397
I92
I15794
tp2639
sS'PINE,'
p2640
(S'PINE ST'
p2641
I100
I15933
tp2642
sS'NARRDGANSEIT AV'
p2643
(S'NARRAGANSETT AV'
p2644
I85
I17270
tp2645
sS'INDUSTRIAL BANK BLDG 111 WESTMINSTER. TEL GASNEE 1-1200'
p2646
(g35
I67
I15991
tp2647
sS'SHIPYARD, TEL STUART 1-9100'
p2648
(S'SHIPYARD ST'
p2649
I73
I16820
tp2650
sS"CR'ANSTON"
p2651
(g717
I90
I15817
tp2652
sS'DORRANGE,'
p2653
(g1416
I88
I15829
tp2654
sS'WEST EXCHANGE, 5TH FLOOR,'
p2655
(S'WEST EXCHANGE ST'
p2656
I86
I15982
tp2657
sS"VALLEY, TEL DEXTER 1-438'3"
p2658
(S'VALLEY GREEN CT'
p2659
I74
I16512
tp2660
sS'WESTMINSTER R3 04'
p2661
(g35
I89
I15991
tp2662
sS'314 S MAIN'
p2663
(g124
I91
I15948
tp2664
sS'-39 NARRANGANSETT AV'
p2665
(g658
I92
I17270
tp2666
sS'RICHMOND,'
p2667
(S'RICHMOND ST'
p2668
I100
I15946
tp2669
sS'CUSTOM HOUSE R33'
p2670
(g121
I93
I15820
tp2671
sS'CUSTOM HOUSE R31'
p2672
(g121
I93
I15820
tp2673
sS'EATON'
p2674
(S'EATON ST'
p2675
I100
I17478
tp2676
sS'GALLUP'
p2677
(S'GALLUP ST'
p2678
I100
I16668
tp2679
sS'WEYBOSSET R205'
p2680
(g14
I89
I15992
tp2681
sS'-1701'
p2682
(g295
I50
I16868
tp2683
sS'; CARPENTER CO THE'
p2684
(g824
I86
I15801
tp2685
sS'WABUN AV'
p2686
(S'WABUN AVE'
p2687
I100
I17705
tp2688
sS'ZELLA'
p2689
(S'ZELLA ST'
p2690
I100
I17729
tp2691
sS'RHODES'
p2692
(S'RHODES ST'
p2693
I100
I15945
tp2694
sS'GEORGIA AV,'
p2695
(S'GEORGIA AVE'
p2696
I100
I16671
tp2697
sS'WESTMINSTER R1216'
p2698
(g35
I89
I15991
tp2699
sS'WESTMINSTER R1217'
p2700
(g35
I89
I15991
tp2701
sS'INDUSTRIAL BANK BLDG'
p2702
(g1195
I83
I16249
tp2703
sS'ASTRAL AV'
p2704
(S'ASTRAL AVE'
p2705
I100
I16894
tp2706
sS'WESTMINSTER R1212'
p2707
(g35
I89
I15991
tp2708
sS'EMPIRIE R1'
p2709
(g204
I83
I15840
tp2710
sS'RICE'
p2711
(S'RICE ST'
p2712
I100
I17304
tp2713
sS'WESTMINSTER R1218'
p2714
(g35
I89
I15991
tp2715
sS'WESTMINSTER R1219'
p2716
(g35
I89
I15991
tp2717
sS'CHESTNUT'
p2718
(g2563
I100
I15807
tp2719
sS'WESTMINSTER R732.'
p2720
(g386
I90
I15991
tp2721
sS'PAWTUCKET AV'
p2722
(g346
I84
I16771
tp2723
sS'E IMW OOD AV'
p2724
(S'EAST ST'
p2725
I75
I15833
tp2726
sS'131 ORMS'
p2727
(g2
I83
I16384
tp2728
sS'MAIN, PAWTUCKET,'
p2729
(g446
I73
I16771
tp2730
sS'BRIDGHAM,'
p2731
(g639
I100
I17169
tp2732
sS'JACKSORL'
p2733
(g316
I80
I16253
tp2734
sS'AVON'
p2735
(S'AVON ST'
p2736
I100
I16040
tp2737
sS'MAIN. PAWTUCKET,'
p2738
(g446
I73
I16771
tp2739
sS'A PRAIRIE AV'
p2740
(g1882
I94
I16787
tp2741
sS'CENTRAL,'
p2742
(S'CENTRAL AVE'
p2743
I100
I16095
tp2744
sS'BRANCH AW OFFICE 1026 BRANCH AV, TEL DIMER 1-7390'
p2745
(g151
I61
I16067
tp2746
sS'WESTMINSTER R936'
p2747
(g35
I90
I15991
tp2748
sS'WESTMINSTER R934'
p2749
(g35
I90
I15991
tp2750
sS'WESTMINSTER R933'
p2751
(g35
I90
I15991
tp2752
sS'DORRANCE R402'
p2753
(g711
I88
I15829
tp2754
sS'WHIPPLE'
p2755
(S'WHIPPLE ST'
p2756
I100
I17716
tp2757
sS'RUGBY'
p2758
(S'RUGBY ST'
p2759
I100
I16803
tp2760
sS'WEYBWSET, TEIS GASPEE 1-7112, 1-7961, RES'
p2761
(g258
I56
I15992
tp2762
sS'14 GREENE'
p2763
(g722
I90
I15866
tp2764
sS'EDDY 1-'
p2765
(g567
I90
I15834
tp2766
sS'S MAIN'
p2767
(g124
I100
I15948
tp2768
sS'JASTRAM'
p2769
(S'JASTRAM ST'
p2770
I100
I17547
tp2771
sS'PLAINSFIELD'
p2772
(g777
I95
I17994
tp2773
sS'ROSEBANK AV'
p2774
(S'ROSEBANK AVE'
p2775
I100
I17653
tp2776
sS'WESTMINSTER R735'
p2777
(g35
I90
I15991
tp2778
sS'WESTMINSTER R25'
p2779
(g35
I92
I15991
tp2780
sS'WESTMINSTER R737'
p2781
(g35
I90
I15991
tp2782
sS'WESTMINSTER R20'
p2783
(g35
I92
I15991
tp2784
sS'WESTMINSTER R21'
p2785
(g35
I92
I15991
tp2786
sS'WESTMINSTER R733'
p2787
(g35
I90
I15991
tp2788
sS'WESTMINSTER R23'
p2789
(g35
I92
I15991
tp2790
sS'WASHINGTON R405'
p2791
(g878
I90
I15987
tp2792
sS'WASHINGTON R402'
p2793
(g878
I90
I15987
tp2794
sS'WASHINGTON R401'
p2795
(g878
I90
I15987
tp2796
sS'FRIENDSHIP'
p2797
(g2277
I100
I15858
tp2798
sS'HOLDEN'
p2799
(S'HOLDEN ST'
p2800
I100
I17532
tp2801
sS'ACADEMV AV'
p2802
(g2524
I86
I17365
tp2803
sS'VALLEY BLDG'
p2804
(g2659
I85
I16512
tp2805
sS'CLIFFORD LST FL'
p2806
(S'CLIFFORD ST'
p2807
I85
I15811
tp2808
sS'MONTICELLO'
p2809
(S'MONTICELLO ST'
p2810
I100
I16348
tp2811
sS'MATHEWSON R1'
p2812
(g360
I93
I15904
tp2813
sS'BAKER, TEL STUART 1-3400'
p2814
(S'STATE HWY 146'
p2815
I56
I16473
tp2816
sS'ADELAIDE AV'
p2817
(S'ADELAIDE AVE'
p2818
I100
I17148
tp2819
sS'N MAIN'
p2820
(g2300
I100
I15916
tp2821
sS'WESTMINSTER R840'
p2822
(g35
I90
I15991
tp2823
sS'-56 WEGLEVAN AV'
p2824
(S'WESLEYAN AVE'
p2825
I69
I17353
tp2826
sS'6'
p2827
(g1990
I50
I16876
tp2828
sS'LAUREL AV'
p2829
(S'LAUREL AVE'
p2830
I100
I17018
tp2831
sS'WESTMINSTER R208'
p2832
(g35
I90
I15991
tp2833
sS'RIDGE'
p2834
(S'RIDGE ST'
p2835
I100
I18010
tp2836
sS'VES'
p2837
(g255
I86
I17007
tp2838
sS'BLUNDELL'
p2839
(S'BLUNDELL ST'
p2840
I100
I16596
tp2841
sS'FEDERAL'
p2842
(g5
I100
I15848
tp2843
sS'TAFT AV'
p2844
(S'TAFT AVE'
p2845
I100
I16484
tp2846
sS"' WESTMINSTER. TEIS GASPEE"
p2847
(g35
I82
I15991
tp2848
sS'WATERMAN R216'
p2849
(S'WATERMAN ST'
p2850
I88
I15988
tp2851
sS'WESTMINSTER R207'
p2852
(g35
I90
I15991
tp2853
sS'WESTMINSTER R206'
p2854
(g35
I90
I15991
tp2855
sS'WESTMINSTER'
p2856
(g35
I100
I15991
tp2857
sS'WESTMINSTER R41-42 IVENTASH HERBERT 1 RHODE ISLAND AV'
p2858
(g35
I68
I15991
tp2859
sS'PROMENADE.'
p2860
(S'PROMENADE ST'
p2861
I100
I17630
tp2862
sS'ROLFE. CRANSTON. TEL GASPEE'
p2863
(g717
I74
I15817
tp2864
sS'ACADEMV A;'
p2865
(g2524
I80
I17365
tp2866
sS'KNIGHT VIRGINIA & SPANISH PEANUT C0 260 DEXTER'
p2867
(g2308
I65
I16849
tp2868
sS'CEDAR'
p2869
(S'CEDAR ST'
p2870
I100
I15803
tp2871
sS'COMMODORE'
p2872
(S'COMMODORE ST'
p2873
I100
I16115
tp2874
sS"O'CONNELL"
p2875
(S'OCONNELL ST'
p2876
I93
I16760
tp2877
sS'WATERMAN R104'
p2878
(g2850
I88
I15988
tp2879
sS'CHALKM STONE AV'
p2880
(g199
I77
I17433
tp2881
sS'WATERMAN R101'
p2882
(g2850
I88
I15988
tp2883
sS'EXCHANGE 01'
p2884
(S'EXCHANGE ST'
p2885
I92
I15845
tp2886
sS'LOWELL AV'
p2887
(S'LOWELL AVE'
p2888
I100
I17938
tp2889
sS'HUNTER'
p2890
(S'HUNTERS RUN'
p2891
I81
I16244
tp2892
sS'A DOUGLAS AV'
p2893
(g449
I94
I16154
tp2894
sS'PINEHURST AV'
p2895
(S'PINEHURST AVE'
p2896
I100
I17626
tp2897
sS'-0476 GASPEE'
p2898
(g939
I85
I15863
tp2899
sS'ARBOR'
p2900
(S'ARBOR DR'
p2901
I100
I17380
tp2902
sS'BROAD TEL GASPEE'
p2903
(g939
I77
I15863
tp2904
sS'B ATWELLS AV'
p2905
(g196
I94
I15775
tp2906
sS"-8649 1-8650'"
p2907
(g64
I33
I15880
tp2908
sS'ICE & COAL CO 52 TOBEV'
p2909
(S'TOBEY ST'
p2910
I56
I18076
tp2911
sS'MAIN, WWARWICK.'
p2912
(S'WARWICK AV'
p2913
I81
I16852
tp2914
sS'RIGHT SIDE LINES)'
p2915
(g585
I63
I17781
tp2916
sS'BUTLER AV'
p2917
(S'BUTLER AVE'
p2918
I100
I16915
tp2919
sS'-IZEO'
p2920
(S'VIREO ST'
p2921
I67
I16523
tp2922
sS'IANTHE'
p2923
(S'IANTHE ST'
p2924
I100
I16248
tp2925
sS'-7256'
p2926
(g46
I29
I15881
tp2927
sS'ELMWOSD AV'
p2928
(S'ELMWOOD AVE'
p2929
I86
I17207
tp2930
sS'SIMS AV, TEL GASPEE 1-0173'
p2931
(g939
I69
I15863
tp2932
sS'E MANNING'
p2933
(S'EAST MANNING ST'
p2934
I100
I16951
tp2935
sS"LEFT TOP LINES) ' *SAVINGS BANKS"
p2936
(S'SAVINGS ST'
p2937
I70
I17318
tp2938
sS'WESLEVAN AV'
p2939
(g2825
I88
I17353
tp2940
sS'DIKE'
p2941
(g1060
I100
I17827
tp2942
sS'PEARL'
p2943
(S'PEARL AVE'
p2944
I100
I16394
tp2945
sS'LEDGE'
p2946
(S'LEDGE ST'
p2947
I100
I16275
tp2948
sS'EXCHANGE P1R412'
p2949
(g55
I87
I15846
tp2950
sS'SAYLES'
p2951
(S'SAYLES ST'
p2952
I100
I16809
tp2953
sS'219 W PARK'
p2954
(S'WEST PARK ST'
p2955
I91
I17704
tp2956
sS'WESTMINS TER; MT PLEASANT OFFICE'
p2957
(g35
I68
I15991
tp2958
sS'PECASSET AV'
p2959
(g854
I88
I17995
tp2960
sS'WEYBFBSET. TEL GASPEE'
p2961
(g14
I63
I15992
tp2962
sS'WESTMINSTER R905'
p2963
(g35
I90
I15991
tp2964
sS'A ACADEMY AV'
p2965
(g2524
I94
I17365
tp2966
sS'NORTH BROADWAY, RUMFORD.'
p2967
(S'GRAND BROADWAY'
p2968
I78
I16209
tp2969
sS"WESTMINSTER R732, TEL'GAS'PEE 1-5401"
p2970
(g386
I74
I15991
tp2971
sS'7 GREENWICH'
p2972
(S'GREENWICH ST'
p2973
I95
I17220
tp2974
sS'N MAIN R2'
p2975
(g2300
I93
I15916
tp2976
sS'CRARJY'
p2977
(g1749
I91
I15818
tp2978
sS'CUSTOM HOWE,'
p2979
(g964
I93
I15820
tp2980
sS'ELMWOOD AV; BRANCHES;'
p2981
(g151
I67
I16067
tp2982
sS'BABCOCK'
p2983
(S'BABCOCK ST'
p2984
I100
I16573
tp2985
sS'WEST. MINSTER R700'
p2986
(g35
I78
I15991
tp2987
sS'MEETING, TEL GASPEE 1-9100'
p2988
(S'MEETING ST'
p2989
I72
I15907
tp2990
sS'LOMV-R BARDI, TEL JACKSON 1-2253'
p2991
(g316
I68
I16253
tp2992
sS'PLUM'
p2993
(S'PLUM ST'
p2994
I100
I16782
tp2995
sS'MAIN PAWTUCKET.'
p2996
(g446
I73
I16771
tp2997
sS'EXCHANGE PR514'
p2998
(g55
I88
I15846
tp2999
sS"WESTMINS'TER R1 034"
p3000
(g35
I78
I15991
tp3001
sS'COUNCIL'
p3002
(g2206
I67
I16112
tp3003
sS'TORONTO AV'
p3004
(g1429
I100
I16840
tp3005
sS'BROAD'
p3006
(g263
I100
I15793
tp3007
sS'WEYBOSSET R527'
p3008
(g14
I89
I15992
tp3009
sS'WASH 302'
p3010
(g774
I83
I21700
tp3011
sS'WASHINGTON AV'
p3012
(S'WASHINGTON ST'
p3013
I100
I15987
tp3014
sS'-943 BROAD'
p3015
(g263
I85
I15793
tp3016
sS'-2641 CLNTRODALE'
p3017
(g714
I63
I16095
tp3018
sS'MASSASOIT AV, EAST PROVIDENCE, TELS EAST PROVIDENCEV1-3881 , 1 -2095'
p3019
(g103
I61
I17631
tp3020
sS'WEYBWSET, R7,'
p3021
(g258
I76
I15992
tp3022
sS'ADELAIDE AV,'
p3023
(S'ADELAIDE AVE'
p3024
I100
I17148
tp3025
sS'BELMONT AV'
p3026
(S'BELMONT AVE'
p3027
I100
I17398
tp3028
sS'ELMWOOD'
p3029
(g671
I100
I17207
tp3030
sS'LEFT TON LINES)'
p3031
(g2183
I57
I16963
tp3032
sS'ONTARIO'
p3033
(S'ONTARIO ST'
p3034
I100
I17277
tp3035
sS'WESTMINSTER R1712'
p3036
(g35
I89
I15991
tp3037
sS'BENEDI-CT'
p3038
(S'BENEDICT ST'
p3039
I86
I16053
tp3040
sS'FOUNTAIN; TEL DEXTER'
p3041
(g223
I79
I15853
tp3042
sS'RADCLIFFE AV'
p3043
(S'RADCLIFFE AVE'
p3044
I100
I17634
tp3045
sS'FREDERICK'
p3046
(S'FREDERICK ST'
p3047
I100
I16189
tp3048
sS'WEYBOSSET R32-35'
p3049
(g14
I86
I15992
tp3050
sS'MILL. JOHNSTON, R1,'
p3051
(g1009
I77
I16707
tp3052
sS'FARMINGTON AV'
p3053
(S'FARMINGTON AVE'
p3054
I100
I17853
tp3055
sS'W RIVER'
p3056
(S'WEST RIVER ST'
p3057
I100
I16541
tp3058
sS'; POWER C0 OF RHODE ISLAND'
p3059
(S'RHODE ISLAND AVE'
p3060
I83
I17085
tp3061
sS'1396 BROAD'
p3062
(g263
I83
I15793
tp3063
sS'WEYBOSSET R4 06'
p3064
(g14
I87
I15992
tp3065
sS'-0086'
p3066
(g1990
I29
I16876
tp3067
sS'-5450; WASHINGTON PARK'
p3068
(g43
I86
I15986
tp3069
sS'SUMMIT AV'
p3070
(S'SUMMIT AVE'
p3071
I100
I17106
tp3072
sS'GREENE'
p3073
(g722
I100
I15866
tp3074
sS'-264 WEYBOSSET, TELS GASPEE 1-8200, 1-8201'
p3075
(g14
I69
I15992
tp3076
sS'7'
p3077
(S'7TH ST'
p3078
I50
I16877
tp3079
sS'PROMENADE,'
p3080
(g2861
I100
I17630
tp3081
sS'-37 BASSETT'
p3082
(g780
I91
I15777
tp3083
sS'I PLAINFIELD'
p3084
(g777
I95
I17994
tp3085
sS'GOR-'
p3086
(S'GEORGE ST'
p3087
I67
I16670
tp3088
sS'WESTMINSTER R1202 MURRAY JOHN J JR 256 WESTMINSTER R31 MUSEN FREDK N 890 HONE'
p3089
(g35
I62
I15991
tp3090
sS'SILVER SPRING'
p3091
(S'SILVER SPRING ST'
p3092
I100
I16454
tp3093
sS'WESTMINSTER .R1012'
p3094
(g35
I89
I15991
tp3095
sS'HOMESTEAD AV'
p3096
(S'HOMESTEAD AVE'
p3097
I100
I17234
tp3098
sS'GORDON AV, 7TGFIL HOPKINS 1-2560'
p3099
(g210
I68
I15876
tp3100
sS'WEYBOSSET R23A'
p3101
(g14
I89
I15992
tp3102
sS'CRANSTON, CRANSTON, R1, TEL UNION 1-0215'
p3103
(g717
I68
I15817
tp3104
sS'WESTMINSTER R908'
p3105
(g35
I90
I15991
tp3106
sS'CHALKSTONEI AV'
p3107
(S'CHALKSTONE AVE'
p3108
I95
I17433
tp3109
sS'WESTMINSTER R902'
p3110
(g35
I90
I15991
tp3111
sS'WESTMINSTER R903'
p3112
(g35
I90
I15991
tp3113
sS'WESTMINSTER R901'
p3114
(g35
I90
I15991
tp3115
sS'WESTMINSTER R904'
p3116
(g35
I90
I15991
tp3117
sS'GORDON AV, RITLIIL HOPKINS 1-2560'
p3118
(S'DRILL ST'
p3119
I47
I17474
tp3120
sS'HANOVER'
p3121
(S'HANOVER ST'
p3122
I100
I17225
tp3123
sS'MATHEWSON R602'
p3124
(g360
I89
I15904
tp3125
sS'MATHEWSON R603'
p3126
(g360
I89
I15904
tp3127
sS"BICHMOND SQUARE. TELSF PLANTATIONS 142260, '1-2201"
p3128
(g1006
I52
I15978
tp3129
sS'MATHEWSON R606'
p3130
(g360
I89
I15904
tp3131
sS'SUTTON TEL UNLON'
p3132
(g1099
I77
I15966
tp3133
sS'WESTMINSTER LOBBY R309'
p3134
(g35
I83
I15991
tp3135
sS'WESTMINSTER R 636'
p3136
(g35
I89
I15991
tp3137
sS'; POWER CO OF RHODE ISLAND'
p3138
(g3060
I83
I17085
tp3139
sS'WESTMINSTER R1711'
p3140
(g35
I89
I15991
tp3141
sS'WESTMINSTER R 703'
p3142
(g35
I89
I15991
tp3143
sS'WESTMINSTER R18'
p3144
(g35
I92
I15991
tp3145
sS'CENTRAL, TEL GASPEE 1-0081'
p3146
(g714
I72
I16095
tp3147
sS'ALLENS AV'
p3148
(g8
I100
I15768
tp3149
sS'WESTMINSTER R11'
p3150
(g35
I92
I15991
tp3151
sS'WESTMINSTER R10'
p3152
(g35
I92
I15991
tp3153
sS'HOSPITAL'
p3154
(g67
I100
I15878
tp3155
sS'WESTMINSTER R12'
p3156
(g35
I92
I15991
tp3157
sS'WESTMINSTER R15'
p3158
(g35
I92
I15991
tp3159
sS'WESTMINSTER R14'
p3160
(g35
I92
I15991
tp3161
sS'WESTMINSTER R17'
p3162
(g35
I92
I15991
tp3163
sS'WESTMINSTER R16'
p3164
(g35
I92
I15991
tp3165
sS'SOMERSET'
p3166
(S'SOMERSET ST'
p3167
I100
I17325
tp3168
sS'RANDALL, TEL JACKSON 1-5829'
p3169
(g1327
I75
I16416
tp3170
sS'NIANTIC AV'
p3171
(S'NIANTIC AVE'
p3172
I100
I17274
tp3173
sS'WESTMINSTER R905-06'
p3174
(g35
I86
I15991
tp3175
sS'KINSLEV'
p3176
(g2379
I86
I15889
tp3177
sS'W EXCHANGE TEL GASPEE'
p3178
(g336
I85
I15982
tp3179
sS'WESTBMNSTER. TEIS DEXTER 1-3400. 1-3401'
p3180
(g386
I66
I15991
tp3181
sS'-2232'
p3182
(g96
I29
I16872
tp3183
sS'-8255 NIGHTS HOLIDAYS TEL ELMHURST'
p3184
(g2070
I50
I17054
tp3185
sS"SILVER ' SPRING,"
p3186
(S'SILVER SPRING ST'
p3187
I100
I16454
tp3188
sS'E LMA'
p3189
(g1303
I83
I15833
tp3190
sS'JACKSON APT B'
p3191
(g316
I85
I16253
tp3192
sS'EXCHANGE PL R411'
p3193
(g55
I85
I15846
tp3194
sS'EXCHANGE PL R414'
p3195
(g55
I85
I15846
tp3196
sS'WAHUN AV'
p3197
(g2687
I80
I17705
tp3198
sS'EMPIRE R528'
p3199
(g204
I85
I15840
tp3200
sS'W PARK'
p3201
(g2955
I100
I17704
tp3202
sS'ELMHURST AV'
p3203
(g1734
I100
I17482
tp3204
sS'EXCHANGE, TEL GASPEE 1-1860'
p3205
(g55
I79
I15846
tp3206
sS'ROCHAMBEAU'
p3207
(g1380
I100
I17088
tp3208
sS'627 WESTMINSTER'
p3209
(g35
I92
I15991
tp3210
sS'-264 WEYBOSSET'
p3211
(g14
I91
I15992
tp3212
sS'PETTIS'
p3213
(S'PETTIS ST'
p3214
I100
I16396
tp3215
sS'GORDON AV, 3.5L HOPKINS 1-2560'
p3216
(g210
I69
I15876
tp3217
sS'WEYBOGSET R430'
p3218
(g14
I79
I15992
tp3219
sS'WESTMINS TER JUNC'
p3220
(S'WEST BEL AIR RD'
p3221
I57
I21341
tp3222
sS'MILES AV'
p3223
(S'MILES AVE'
p3224
I100
I17044
tp3225
sS'HOSPITAL TRUST BLDG 15 WESTMINSTER. TEL GASNEE 1-8070'
p3226
(g35
I67
I15991
tp3227
sS'EMPIRE R419'
p3228
(g204
I85
I15840
tp3229
sS'16 PLAINFIELD'
p3230
(g777
I93
I17994
tp3231
sS"CHESTNUT, TEL GAS'PEE 1'-3423"
p3232
(g2563
I73
I15807
tp3233
sS'EMPIRE R416'
p3234
(g204
I85
I15840
tp3235
sS'WESTMINSTER R301'
p3236
(g35
I90
I15991
tp3237
sS'WESTMINSTER R302'
p3238
(g35
I90
I15991
tp3239
sS'WESTMINSTER R303'
p3240
(g35
I90
I15991
tp3241
sS'WESTMINSTER R304'
p3242
(g35
I90
I15991
tp3243
sS'WESTMINSTER R305'
p3244
(g35
I90
I15991
tp3245
sS'WESTMINSTER R306'
p3246
(g35
I90
I15991
tp3247
sS'WESTMINSTER R307'
p3248
(g35
I90
I15991
tp3249
sS'WESTMINSTER R309'
p3250
(g35
I90
I15991
tp3251
sS'LEFT BOTTOM LINES AIND FRONT COVER) .'
p3252
(g1419
I50
I15762
tp3253
sS'EXCHANGE PL'
p3254
(g2885
I92
I15845
tp3255
sS'HEDLEY'
p3256
(g1729
I100
I21727
tp3257
sS'SABIN 6'
p3258
(g1569
I91
I15950
tp3259
sS'471 CRANSTON'
p3260
(g717
I90
I15817
tp3261
sS'AND LEFT SIDE LINES)'
p3262
(S'ALDINE ST'
p3263
I60
I17738
tp3264
sS'RANDALL,'
p3265
(S'RANDALL RD'
p3266
I100
I16415
tp3267
sS'POTTERS AV'
p3268
(g2173
I100
I16786
tp3269
sS'HOPE TEL MANNING'
p3270
(g2934
I85
I16951
tp3271
sS'WATERMAN,'
p3272
(S'WATERMAN ST'
p3273
I100
I15988
tp3274
sS'PINE 6'
p3275
(S'PINE ST'
p3276
I90
I15933
tp3277
sS'-2500; DOWNTOWN OFFICE'
p3278
(S'DOWNING ST'
p3279
I52
I17202
tp3280
sS'TURKS HEAD BLDG 76 WESTMINSTER.'
p3281
(g386
I77
I15991
tp3282
sS'LEFT TOP'
p3283
(S'LORETO ST'
p3284
I58
I16294
tp3285
sS'513 DEXTER'
p3286
(g29
I87
I17198
tp3287
sS'ARCADE BLDG'
p3288
(g2568
I85
I15773
tp3289
sS"ELMG'ROVE AV"
p3290
(g953
I80
I16960
tp3291
sS'ALLEN,S AV,'
p3292
(g700
I81
I15768
tp3293
sS'-10-12 ARCADE BLDG'
p3294
(g2568
I76
I15773
tp3295
sS'WAVLAND AIL'
p3296
(S'WAYLAND AVE'
p3297
I76
I17125
tp3298
sS'WAYLAND'
p3299
(g3297
I100
I17125
tp3300
sS'A SMITH'
p3301
(g81
I91
I16457
tp3302
sS'-3600'
p3303
(g1641
I29
I16873
tp3304
sS"POTTER' 5 AV"
p3305
(S'POTTER DR'
p3306
I93
I17294
tp3307
sS'CHARLES'
p3308
(g1596
I100
I16096
tp3309
sS'LANGDON'
p3310
(S'LANGDON ST'
p3311
I100
I16272
tp3312
sS'GASPEE'
p3313
(g939
I100
I15863
tp3314
sS'687 CHARLES'
p3315
(g1596
I89
I16096
tp3316
sS'WATERMAN TELS UNION'
p3317
(g2850
I79
I15988
tp3318
sS'PARK'
p3319
(S'PARK ST'
p3320
I100
I16391
tp3321
sS'-5746 1-8432'
p3322
(g787
I27
I15880
tp3323
sS"THOX'NAS"
p3324
(S'THOMAS ST'
p3325
I65
I15969
tp3326
sS'ALAB AMA'
p3327
(S'ALABAMA AVE'
p3328
I83
I16556
tp3329
sS'HAMILTON'
p3330
(S'HAMILTON ST'
p3331
I100
I17223
tp3332
sS'BORDEN. "REXS DEXTER 1-0243, 1-0244'
p3333
(g1192
I66
I15787
tp3334
sS'WESTMINSTER 4TH FL,'
p3335
(g386
I88
I15991
tp3336
sS'PINE, TEL GASPEE 1-1131'
p3337
(g939
I71
I15863
tp3338
sS'SEEKONK'
p3339
(S'SEEKONK ST'
p3340
I100
I17097
tp3341
sS'FRANKLIN R208-09'
p3342
(S'FRANKLIN SQ'
p3343
I83
I15856
tp3344
sS'ELMJIOOD AV, TEL STUART 1-4000'
p3345
(g671
I56
I17207
tp3346
sS'WESLGYAN AV'
p3347
(g961
I88
I17353
tp3348
sS'EXCHANGE. TEL GASPEE 1-0943'
p3349
(g55
I79
I15846
tp3350
sS'TRAVERSE'
p3351
(S'TRAVERSE ST'
p3352
I100
I17117
tp3353
sS'EDDY R407'
p3354
(g567
I81
I15834
tp3355
sS'BRANCH AV,'
p3356
(S'BRANCH AVE'
p3357
I100
I16067
tp3358
sS'DORRANCE R318'
p3359
(g711
I88
I15829
tp3360
sS'PINE, TEL GASPEE 1-9600'
p3361
(g939
I71
I15863
tp3362
sS'WASH R301'
p3363
(g774
I81
I21700
tp3364
sS'CANDAC E'
p3365
(g292
I85
I17422
tp3366
sS'279 PLAINFIE 1D'
p3367
(g777
I80
I17994
tp3368
sS'87 WEYBOSSET R228'
p3369
(g14
I84
I15992
tp3370
sS'WEYBOSSET B420'
p3371
(g14
I89
I15992
tp3372
sS'VA HEY'
p3373
(S'HENRY ST'
p3374
I65
I16691
tp3375
sS'. TURKS HEAD BLDG.'
p3376
(S'TURKS HEAD PL'
p3377
I93
I15976
tp3378
sS"ANGELL'"
p3379
(g768
I100
I16022
tp3380
sS'CHALK-STONE AV'
p3381
(g199
I81
I17433
tp3382
sS'-297 WESTMINSTER.'
p3383
(g386
I92
I15991
tp3384
sS'WASHINGTON R311'
p3385
(g878
I90
I15987
tp3386
sS'WASHINGTON R310'
p3387
(g878
I90
I15987
tp3388
sS'WASHINGTON R317'
p3389
(g878
I90
I15987
tp3390
sS'WASHINGTON R316'
p3391
(g878
I90
I15987
tp3392
sS'WASHINGTON R315'
p3393
(g878
I90
I15987
tp3394
sS'WASHINGTON R314'
p3395
(g878
I90
I15987
tp3396
sS'AND'
p3397
(S'ANDY ST'
p3398
I86
I16020
tp3399
sS'BROWNELL'
p3400
(S'BROWNELL ST'
p3401
I100
I17414
tp3402
sS'CANAL,'
p3403
(S'CANAL ST'
p3404
I100
I15798
tp3405
sS'CANAL.'
p3406
(g3404
I100
I15798
tp3407
sS'LAND SHIPPING ASSOCIATION 54 CUSTOM HOUSE R42'
p3408
(g1006
I50
I15978
tp3409
sS'GEORGE, TEL GASPEE 1-5627'
p3410
(g2076
I73
I15864
tp3411
sS"ALLEN'S AV."
p3412
(g700
I81
I15768
tp3413
sS"ALLEN'S AV,"
p3414
(g700
I81
I15768
tp3415
sS'WEYBOSSET R6'
p3416
(g14
I93
I15992
tp3417
sS'WESTMINSTER R1235'
p3418
(g35
I89
I15991
tp3419
sS'WEYBOSSET R53A'
p3420
(g14
I89
I15992
tp3421
sS'INDUSTRIAL BANK BLDG TEL GASPEE'
p3422
(g1195
I74
I16249
tp3423
sS'WESTMINSTER R1230'
p3424
(g35
I89
I15991
tp3425
sS'WESTMINSTER R1231'
p3426
(g35
I89
I15991
tp3427
sS'; LOAN ASSOCIATION OF PROVIDENCE'
p3428
(g1006
I54
I15978
tp3429
sS'SUMMER'
p3430
(S'SUMMER ST'
p3431
I100
I15965
tp3432
sS'-2000'
p3433
(g96
I29
I16872
tp3434
sS'CHALKSTONE; SIX OTHER CONVENIENT COMMUNITY OFFICES IN EARRINGTON CRANSTON CENTREDALE PAWTUCKET GREENVILPE'
p3435
(S'CHALKSTONE AVE'
p3436
I59
I17433
tp3437
sS'ATWELLS AV;'
p3438
(g196
I100
I15775
tp3439
sS'AMIGA BLDG 10 WEYBOSSET, TEL GASPEE 1-3500'
p3440
(g14
I68
I15992
tp3441
sS'CHALKSTONE AV'
p3442
(g199
I100
I17433
tp3443
sS'MURRAY'
p3444
(S'MURRAY ST'
p3445
I100
I17968
tp3446
sS'ATWELLS AV,'
p3447
(S'ATWELLS AVE'
p3448
I100
I15775
tp3449
sS"PILSUDSKI'"
p3450
(g2369
I100
I17993
tp3451
sS"SILVER ' SPRING TEL UNION"
p3452
(g3092
I86
I16454
tp3453
sS'RIGHT TOP'
p3454
(g585
I74
I17781
tp3455
sS'BREWSTER'
p3456
(S'BREWSTER ST'
p3457
I100
I16909
tp3458
sS'W EXCHANGE, TEL DEXTER 1-5800'
p3459
(g336
I79
I15982
tp3460
sS'ORMSBEE'
p3461
(g2
I73
I16384
tp3462
sS'-39 NARRAGANSETT AV'
p3463
(g658
I95
I17270
tp3464
sS'PRAIRIE AV. TEL GASPEE 1-9182'
p3465
(g1882
I70
I16787
tp3466
sS'SILVER LAKE AV'
p3467
(S'SILVER LAKE AVE'
p3468
I100
I18039
tp3469
sS"-712 POTTER'S AV"
p3470
(S'POTTER DR'
p3471
I77
I17294
tp3472
sS'WESTMINSTER R917'
p3473
(g35
I90
I15991
tp3474
sS'PORRIONA AV'
p3475
(S'MORRISON ST'
p3476
I75
I17048
tp3477
sS'WESTRRTINSTER R420'
p3478
(g35
I76
I15991
tp3479
sS'-128 , BROADWAY,'
p3480
(S'BROADWAY ST'
p3481
I90
I15794
tp3482
sS'VINTON'
p3483
(S'VINTON ST'
p3484
I100
I15981
tp3485
sS'POCASSVET AV'
p3486
(g854
I94
I17995
tp3487
sS'EUCLID AV'
p3488
(S'EUCLID AVE'
p3489
I100
I16964
tp3490
sS'BROAD; TEL HOPKINS'
p3491
(g210
I79
I15876
tp3492
sS'REZENT AV'
p3493
(g61
I83
I17642
tp3494
sS'INDUSTRIAL BANK BLDG. TEL DASPEE 1-8723'
p3495
(g1195
I71
I16249
tp3496
sS'EARL'
p3497
(g2944
I89
I16394
tp3498
sS'GORDON AV'
p3499
(S'GORDON AVE'
p3500
I100
I16675
tp3501
sS'WINTER'
p3502
(S'WINTER ST'
p3503
I100
I15999
tp3504
sS'CAFNP'
p3505
(g647
I67
I16917
tp3506
sS'WESTMINSTER R 626'
p3507
(g35
I89
I15991
tp3508
sS'BYRON'
p3509
(S'BROWN ST'
p3510
I80
I16073
tp3511
sS'CRANSTON, CRANSTON, R1,'
p3512
(g1778
I78
I15817
tp3513
sS'UNION R601'
p3514
(g590
I83
I15977
tp3515
sS'UNION R607'
p3516
(g590
I83
I15977
tp3517
sS'MONTGOM ERY AV'
p3518
(S'MONTGOMERY AV'
p3519
I89
I16739
tp3520
sS'PUTNAM'
p3521
(S'PUTNAM ST'
p3522
I100
I18003
tp3523
sS'FERMER'
p3524
(g844
I67
I15849
tp3525
sS'BFOAD'
p3526
(g263
I80
I15793
tp3527
sS"WEYBOSSZ'R ROOM"
p3528
(g14
I70
I15992
tp3529
sS'MATHEWSON R503'
p3530
(g360
I89
I15904
tp3531
sS'MATHEWSON R502'
p3532
(g360
I89
I15904
tp3533
sS'MATHEWSON R501'
p3534
(g360
I89
I15904
tp3535
sS'MATHEWSON R507'
p3536
(g360
I89
I15904
tp3537
sS'MATHEWSON R504'
p3538
(g360
I89
I15904
tp3539
sS'126 BE LLEVUE AV'
p3540
(S'BELLEVUE AVE'
p3541
I81
I16051
tp3542
sS'ALBERT AV, CRANSTON, TEL GASPEE 1-0556'
p3543
(g717
I68
I15817
tp3544
sS'SWISS'
p3545
(S'SWISS ST'
p3546
I100
I18061
tp3547
sS'ARCH'
p3548
(S'ARCH ST'
p3549
I100
I17156
tp3550
sS'-7860'
p3551
(g1990
I29
I16876
tp3552
sS'EXCHANGE R219'
p3553
(g55
I90
I15846
tp3554
sS'-226 WASHINGTON'
p3555
(g878
I91
I15987
tp3556
sS'SHIPYARD,'
p3557
(S'SHIPYARD ST'
p3558
I100
I16820
tp3559
sS'PLAINFIELD'
p3560
(g777
I100
I17994
tp3561
sS'WES TMINSTE R TEL GASPEE'
p3562
(g35
I70
I15991
tp3563
sS'MEDWAY. TEL) UNION'
p3564
(g1846
I77
I17040
tp3565
sS'HOME AV'
p3566
(S'HOME AVE'
p3567
I100
I17534
tp3568
sS'WEYBOSSET R323'
p3569
(g14
I89
I15992
tp3570
sS'EMPIRE R 6'
p3571
(g204
I87
I15840
tp3572
sS'A CHAPEL, SAYLESVILLE, RI, TEL PAWTUCKET 2-6300'
p3573
(g2952
I47
I16809
tp3574
sS"3D, TELS GASPEE 1-36'21, 1-3622'"
p3575
(g939
I67
I15863
tp3576
sS'HUMBOLDT AV'
p3577
(S'HUMBOLDT AVE'
p3578
I100
I17003
tp3579
sS'SABIN. TEIS DEXTER 1-3380, L;3381'
p3580
(g29
I66
I17198
tp3581
sS'BROWNE CO, INC, 2 ALLEWS AV,'
p3582
(S'BROWNELL ST'
p3583
I69
I17414
tp3584
sS'HAMMOND'
p3585
(S'HAMMOND ST'
p3586
I100
I17880
tp3587
sS'PINE'
p3588
(g3276
I100
I15933
tp3589
sS"-737'6 V"
p3590
(g1641
I26
I16873
tp3591
sS'-54 HARRIS AV'
p3592
(g508
I90
I15869
tp3593
sS'WESTMINSTER R313'
p3594
(g35
I90
I15991
tp3595
sS'WESTMINSTER R312'
p3596
(g35
I90
I15991
tp3597
sS'WESTMINSTER R311'
p3598
(g35
I90
I15991
tp3599
sS'WESTMINSTER R310'
p3600
(g35
I90
I15991
tp3601
sS'WESTMINSTER R317'
p3602
(g35
I90
I15991
tp3603
sS'WESTMINSTER R315'
p3604
(g35
I90
I15991
tp3605
sS'WESTMINSTER R314'
p3606
(g35
I90
I15991
tp3607
sS'WESTMINSTER R319'
p3608
(g35
I90
I15991
tp3609
sS'OAK'
p3610
(S'OAK ST'
p3611
I100
I17974
tp3612
sS'DART'
p3613
(S'HART ST'
p3614
I75
I16991
tp3615
sS'EMPIRE R607'
p3616
(g204
I85
I15840
tp3617
sS'EMPIRE R605'
p3618
(g204
I85
I15840
tp3619
sS'EMPIRE R602'
p3620
(g204
I85
I15840
tp3621
sS"RESERVOIR AV, TEL WNUAM'S 1-3500"
p3622
(g26
I70
I17303
tp3623
sS'FRONT EDGE BASE 2)'
p3624
(g1321
I62
I16975
tp3625
sS'EXCHANGE PL,'
p3626
(g1590
I92
I15845
tp3627
sS'WESTMINSTER, ROOM 506'
p3628
(g386
I85
I15991
tp3629
sS'FRONT EDGE AND'
p3630
(g1321
I65
I16975
tp3631
sS'EMPIRE R418'
p3632
(g204
I85
I15840
tp3633
sS'ALTIERI JAS 609;CHAR1ES'
p3634
(S'SALTER ST'
p3635
I55
I17660
tp3636
sS'FOSTER'
p3637
(S'FOSTER ST'
p3638
I100
I15852
tp3639
sS'WESTMINSTER R9'
p3640
(g35
I94
I15991
tp3641
sS'WESTMINSTER R8'
p3642
(g35
I94
I15991
tp3643
sS'BALMORAL AV'
p3644
(S'BALMORAL AVE'
p3645
I100
I17394
tp3646
sS'WICKENDEN, TEL GASPEE 1-8000'
p3647
(g1424
I75
I15995
tp3648
sS'WESTMINSTER R7'
p3649
(g35
I94
I15991
tp3650
sS'WESTMINSTER R1'
p3651
(g35
I94
I15991
tp3652
sS'OGDEN'
p3653
(S'OGDEN ST'
p3654
I100
I17059
tp3655
sS'WESTMINSTER R2'
p3656
(g35
I94
I15991
tp3657
sS'WASHINGTON, ANTHONY'
p3658
(S'WASHINGTON PL'
p3659
I85
I15986
tp3660
sS'WAVLAND AV'
p3661
(g118
I86
I17125
tp3662
sS'-2641 CENTREDALE 1-7488'
p3663
(g2743
I65
I16095
tp3664
sS'-53 WEYBOSSET'
p3665
(g14
I93
I15992
tp3666
sS'WEALTH AV'
p3667
(S'WEALTH AVE'
p3668
I100
I17714
tp3669
sS"'C1IFFORD R5"
p3670
(g2807
I81
I15811
tp3671
sS'MANTON LIV'
p3672
(g531
I87
I17947
tp3673
sS'WALLING'
p3674
(S'WALLING ST'
p3675
I100
I21723
tp3676
sS'A TWELLS AV'
p3677
(g196
I92
I15775
tp3678
sS'WESTMINSTER, 3D FLOOR, TEL DEXTER 1-1230'
p3679
(g35
I72
I15991
tp3680
sS'WESTMINSTER; TEL GASNEE'
p3681
(g35
I83
I15991
tp3682
sS'GESLER HODE ISLAND CONSERVATORY OF MUSIC, 280 WASHINGTON, TEL PLANTATIONS 1-4941'
p3683
(g190
I54
I17058
tp3684
sS'CUSHING'
p3685
(S'CUSHING ST'
p3686
I100
I16130
tp3687
sS'ELMGRAVE AV'
p3688
(S'ELMGROVE AVE'
p3689
I88
I16960
tp3690
sS'WESTMINSTER 3809'
p3691
(g35
I90
I15991
tp3692
sS'WEYBOSSET R328'
p3693
(g14
I89
I15992
tp3694
sS'5RANCH AV'
p3695
(S'BRANCH AVE'
p3696
I83
I16067
tp3697
sS'CHARLES LST'
p3698
(g1596
I89
I16096
tp3699
sS'DIVISION'
p3700
(S'DIVISION ST'
p3701
I100
I17828
tp3702
sS"ALLEN'SV ' AV"
p3703
(g8
I88
I15768
tp3704
sS'KANE'
p3705
(S'KANE ST'
p3706
I100
I17553
tp3707
sS'WEYBOSSET R327'
p3708
(g14
I89
I15992
tp3709
sS'DBRRANCE'
p3710
(g711
I88
I15829
tp3711
sS'WASHINGTON R501'
p3712
(g878
I90
I15987
tp3713
sS'LINWOOD AV'
p3714
(S'LINWOOD AVE'
p3715
I100
I17249
tp3716
sS'W EXC HANGE'
p3717
(g336
I86
I15982
tp3718
sS'BERKSHIRE'
p3719
(S'BERKSHIRE ST'
p3720
I100
I17402
tp3721
sS'WASH R212A'
p3722
(S'TARA DR'
p3723
I43
I16487
tp3724
sS'WASHINZTON'
p3725
(g878
I90
I15987
tp3726
sS'322 PRAIRIE AV'
p3727
(g1882
I89
I16787
tp3728
sS'NDULAINE'
p3729
(g546
I80
I17822
tp3730
sS'LILY'
p3731
(S'LILY ST'
p3732
I100
I15894
tp3733
sS'WESTMINSTER ROOMS 307-8-9-13'
p3734
(g35
I78
I15991
tp3735
sS"SILVEI' LAKE"
p3736
(g3468
I87
I18039
tp3737
sS'ROCHAMBOAU AV'
p3738
(g1380
I90
I17088
tp3739
sS'; SONS CO INC'
p3740
(S'SIMMONS ST'
p3741
I58
I18040
tp3742
sS'CUSTOM HOUSE, TEL GASPEE 1-6900'
p3743
(g121
I78
I15820
tp3744
sS'WEYBOSSET R206 CF'
p3745
(g14
I84
I15992
tp3746
sS'OCEAN'
p3747
(S'OCEAN AV'
p3748
I100
I16756
tp3749
sS'WEBSTER AV'
p3750
(S'WEBSTER AVE'
p3751
I100
I18098
tp3752
sS'DORRANCE R308'
p3753
(g711
I88
I15829
tp3754
sS'DORRANCE R309'
p3755
(g711
I88
I15829
tp3756
sS'CLAVERICK'
p3757
(S'CLAVERICK ST'
p3758
I100
I15809
tp3759
sS'HALSEY'
p3760
(S'HALSEY ST'
p3761
I100
I16989
tp3762
sS'OHIO AV'
p3763
(S'OHIO AVE'
p3764
I100
I16762
tp3765
sS'DORRANCE R304'
p3766
(g711
I88
I15829
tp3767
sS'DORRANCE R305'
p3768
(g711
I88
I15829
tp3769
sS'LVMAN'
p3770
(S'LYMAN ST'
p3771
I80
I15897
tp3772
sS'POCASSET AV'
p3773
(g854
I100
I17995
tp3774
sS'POINT'
p3775
(S'POINT ST'
p3776
I100
I15936
tp3777
sS'; CARPENTER C0 THE.'
p3778
(g824
I86
I15801
tp3779
sS'POST RD, APPONAUG,'
p3780
(g1512
I59
I15832
tp3781
sS'WEYBCBSET,'
p3782
(g258
I78
I15992
tp3783
sS'AMHERST'
p3784
(S'AMHERST ST'
p3785
I100
I17744
tp3786
sS'HOPE'
p3787
(g1292
I100
I15875
tp3788
sS'SORRENTO'
p3789
(S'SORRENTO ST'
p3790
I100
I18046
tp3791
sS'HOPE; HOPKINS SQUARE; OLNEYVILLE SQUARE; WASHINGTON PARK'
p3792
(g218
I69
I17978
tp3793
sS'RLZHI BOTTOM LINES)'
p3794
(S'BLOOM ST'
p3795
I54
I16062
tp3796
sS"ALLEN'S AV"
p3797
(g8
I81
I15768
tp3798
sS'JACKSON,'
p3799
(g1405
I100
I16253
tp3800
sS'WASHINGTON R308'
p3801
(g878
I90
I15987
tp3802
sS'WASHINGTON R309'
p3803
(g878
I90
I15987
tp3804
sS'WASHINGTON R300'
p3805
(g878
I90
I15987
tp3806
sS'WASHINGTON R301'
p3807
(g878
I90
I15987
tp3808
sS'WASHINGTON R302'
p3809
(g878
I90
I15987
tp3810
sS'WASHINGTON R304'
p3811
(g878
I90
I15987
tp3812
sS'WEVBOSSET R509'
p3813
(g14
I79
I15992
tp3814
sS"'57 WESTMINSTER R309"
p3815
(g35
I86
I15991
tp3816
sS'SILVER SPRING TEL UNION'
p3817
(g3092
I86
I16454
tp3818
sS'RIGHT BOTTOM NINES)'
p3819
(g3795
I54
I16062
tp3820
sS'BURLINGTON'
p3821
(S'BURLINGTON ST'
p3822
I100
I16914
tp3823
sS'FREMONT'
p3824
(g1321
I100
I16975
tp3825
sS'SPRING, PAWTUCKET. TEL PAWTUCKET 5-3394'
p3826
(g346
I56
I16771
tp3827
sS'LIVINGSTON'
p3828
(S'LIVINGSTON ST'
p3829
I100
I16287
tp3830
sS'AMICA BLDG 10 WEYBOSSET; TEL GASNEE 1-3500'
p3831
(g14
I68
I15992
tp3832
sS'PATERSON'
p3833
(S'PATERSON ST'
p3834
I100
I17069
tp3835
sS'ALIEN AV. TEL WLLLIAMS'
p3836
(S'BETSEY WILLIAMS DR'
p3837
I74
I16590
tp3838
sS'EDDY. TEL DEXTER 1-8292'
p3839
(g29
I71
I17198
tp3840
sS'HOPE,'
p3841
(S'HOPE ST'
p3842
I100
I15875
tp3843
sS'MANTZM AV'
p3844
(S'MAGNAM RD'
p3845
I67
I17256
tp3846
sS"W ' EXCHANGE"
p3847
(g336
I100
I15982
tp3848
sS'-6900'
p3849
(g46
I29
I15881
tp3850
sS'WOODMAN'
p3851
(S'WOODMAN ST'
p3852
I100
I17360
tp3853
sS'UNION AV, TEL ELMHURST 1-1 51 5'
p3854
(g1734
I71
I17482
tp3855
sS'BENEFIT RHODE ISLAND RADIO SCHOOL 47 MATHEWSON'
p3856
(g360
I66
I15904
tp3857
sS'STANW OOD'
p3858
(S'STANWOOD ST'
p3859
I85
I17331
tp3860
sS'VALLEY, TEL DEXTER 1-4883'
p3861
(g2659
I75
I16512
tp3862
sS"BROA'DWAY"
p3863
(g263
I80
I15793
tp3864
sS'HOSPITAL TRUST BLDG 15 WESTMINSTER.'
p3865
(g386
I74
I15991
tp3866
sS'2555 SMITH'
p3867
(g81
I83
I16457
tp3868
sS'CUSTOM HOUSE TEL GASPEE'
p3869
(g121
I84
I15820
tp3870
sS'-2108'
p3871
(g295
I50
I16868
tp3872
sS"CRANST'ON"
p3873
(g717
I90
I15817
tp3874
sS'9 JAC KSON'
p3875
(g316
I77
I16253
tp3876
sS'WEST EXCHANGE TEL GASPE E'
p3877
(g336
I81
I15982
tp3878
sS'176 BENEFIT'
p3879
(g494
I89
I15781
tp3880
sS'DEXTER'
p3881
(g29
I100
I17198
tp3882
sS'-5125'
p3883
(g64
I50
I15880
tp3884
sS'ROGER WILLIAMS AV'
p3885
(g1538
I100
I17306
tp3886
sS'RIVER AV. TEL GASPEE'
p3887
(g939
I74
I15863
tp3888
sS'WESTMINSTER, TEL GASPEE 1-3352'
p3889
(g35
I77
I15991
tp3890
sS'-226 THAVER'
p3891
(g2596
I73
I17112
tp3892
sS'TAUNTON AV, TEL "GKNEVA 4-4900'
p3893
(g756
I60
I18051
tp3894
sS"WES'T EXCHANGE."
p3895
(g2656
I98
I15982
tp3896
sS'& CARPENTER'
p3897
(g824
I100
I15801
tp3898
sS'PROV COUNTY COURT HOUSE'
p3899
(S'COUNTY ST'
p3900
I70
I16126
tp3901
sS'WESTMINSTER R418'
p3902
(g35
I90
I15991
tp3903
sS'WESTMINSTER R414'
p3904
(g35
I90
I15991
tp3905
sS'WESTMINSTER R417'
p3906
(g35
I90
I15991
tp3907
sS'WESTMINSTER R410'
p3908
(g35
I90
I15991
tp3909
sS'WESTMINSTER R411'
p3910
(g35
I90
I15991
tp3911
sS'WESTMINSTER R412'
p3912
(g35
I90
I15991
tp3913
sS'CHARLES FIELD APT 202'
p3914
(g1596
I75
I16096
tp3915
sS'EMPIRE TEL GABPEE'
p3916
(g415
I81
I15839
tp3917
sS'LOMBARDI, TEL JACKSON 1-2253'
p3918
(S'LOMBARDI ST'
p3919
I73
I16290
tp3920
sS'MONEGENAIS'
p3921
(S'MONGENAIS ST'
p3922
I95
I17964
tp3923
sS'DYER'
p3924
(S'DYER ST'
p3925
I100
I15831
tp3926
sS'FRANKLIN R210'
p3927
(g249
I88
I16188
tp3928
sS'FRANKLIN R215'
p3929
(g249
I88
I16188
tp3930
sS'STATION. CRANBTON,'
p3931
(g1778
I73
I15817
tp3932
sS'HARRIS AV'
p3933
(g508
I100
I15869
tp3934
sS'-5550 SEE YELLOW PAGE 1M'
p3935
(g1449
I51
I15835
tp3936
sS'WESTMINSTER R521'
p3937
(g35
I90
I15991
tp3938
sS'WESTMINSTER R522'
p3939
(g35
I90
I15991
tp3940
sS'COURTLAND'
p3941
(S'COURTLAND ST'
p3942
I100
I17806
tp3943
sS'WESTMINSTER R525'
p3944
(g35
I90
I15991
tp3945
sS'WESTMINSTER R526'
p3946
(g35
I90
I15991
tp3947
sS'WESTMINSTER R527'
p3948
(g35
I90
I15991
tp3949
sS'WESTMINSTER R528'
p3950
(g35
I90
I15991
tp3951
sS'WESTMINSTER R529'
p3952
(g35
I90
I15991
tp3953
sS'WGYBOSSET R7'
p3954
(g14
I82
I15992
tp3955
sS'SIBLEY'
p3956
(S'SIBLEY ST'
p3957
I100
I17322
tp3958
sS'-9700'
p3959
(g46
I29
I15881
tp3960
sS'PARADE, TEL ELMHURST 1-1972'
p3961
(g1734
I73
I17482
tp3962
sS"ALLEH'S AV"
p3963
(g8
I66
I15768
tp3964
sS'EXCHANGE PL R500'
p3965
(g55
I85
I15846
tp3966
sS'PECK,'
p3967
(S'PECK ST'
p3968
I100
I15928
tp3969
sS'WESTMINSTER R324'
p3970
(g35
I90
I15991
tp3971
sS'A POCASSET AV'
p3972
(S'POCASSET AVE'
p3973
I94
I17995
tp3974
sS'WESTMINSTER R322'
p3975
(g35
I90
I15991
tp3976
sS'WESTMINSTER R323'
p3977
(g35
I90
I15991
tp3978
sS'WESTMINSTER R320'
p3979
(g35
I90
I15991
tp3980
sS'DORR'
p3981
(g1024
I100
I17471
tp3982
sS'RIGHT BOTTOM LINES)'
p3983
(g3795
I54
I16062
tp3984
sS'WESTMINSTER R 218'
p3985
(g35
I89
I15991
tp3986
sS'ATLANTIC AV'
p3987
(S'ATLANTIC AVE'
p3988
I100
I16035
tp3989
sS'PEACE'
p3990
(S'PEACE ST'
p3991
I100
I17286
tp3992
sS'HOSPITAL TRUST BLDG 15 WESTMINSTER. MU 1 GASPEE 1-6070'
p3993
(g35
I67
I15991
tp3994
sS'WESTMINSTER R328'
p3995
(g35
I90
I15991
tp3996
sS'WESTMINSTER R329'
p3997
(g35
I90
I15991
tp3998
sS'P'
p3999
(S'POE ST'
p4000
I50
I16783
tp4001
sS'MELROSE'
p4002
(S'MELROSE ST'
p4003
I100
I17263
tp4004
sS',WENDE11'
p4005
(g2408
I71
I16535
tp4006
sS'14 HOLDEN'
p4007
(g2800
I90
I17532
tp4008
sS'PRESIDENT AV'
p4009
(S'PRESIDENT AVE'
p4010
I100
I17079
tp4011
sS'24 BENEFIT'
p4012
(g494
I91
I15781
tp4013
sS"ANGE'LL"
p4014
(g768
I86
I16022
tp4015
sS'ALLEN,S AV'
p4016
(g901
I81
I15768
tp4017
sS'CANAL'
p4018
(g2026
I100
I15798
tp4019
sS'DRYDEN LA'
p4020
(g23
I90
I16156
tp4021
sS'WAY.LAND AV'
p4022
(g118
I83
I17125
tp4023
sS'POCASEET AV'
p4024
(g854
I88
I17995
tp4025
sS'WESTMINSTER, TEL TEMPLE 1-7500'
p4026
(g386
I77
I15991
tp4027
sS'HOSPITAL TRUST BLDG 15 WESTMINSTER. TEL GASPEE 1-6070'
p4028
(g35
I67
I15991
tp4029
sS'MESSINA'
p4030
(S'MESSINA ST'
p4031
I100
I17590
tp4032
sS'3D'
p4033
(g1641
I80
I16873
tp4034
sS"WASHINGTON R301 I'I"
p4035
(g43
I84
I15986
tp4036
sS'RICHMOND'
p4037
(g1214
I100
I15946
tp4038
sS'MANUFACTURING CO, 623-633 ATWELIS AV, TEL GASPEE 1-0680'
p4039
(S'MANNING WALK'
p4040
I45
I17035
tp4041
sS'EMPIRE TEL GASPEE'
p4042
(g415
I81
I15839
tp4043
sS'I ATWELLS AV'
p4044
(g52
I94
I15775
tp4045
sS'ARCADE BLDZ'
p4046
(g2568
I85
I15773
tp4047
sS'MIDDLE'
p4048
(S'MIDDLE ST'
p4049
I100
I15910
tp4050
sS'908 EDDY'
p4051
(g567
I83
I15834
tp4052
sS'& KNIGHT'
p4053
(g452
I100
I15890
tp4054
sS'WESTMINSTER R 21 3'
p4055
(g35
I88
I15991
tp4056
sS'A PLAINFIELD'
p4057
(g777
I95
I17994
tp4058
sS"ALMV '"
p4059
(S'PALM ST'
p4060
I75
I16386
tp4061
sS'32'
p4062
(g96
I40
I16872
tp4063
sS'NEW YORK AV'
p4064
(S'NEW YORK AVE'
p4065
I100
I16751
tp4066
sS'N MAIN,'
p4067
(S'NORTH MAIN ST'
p4068
I100
I15916
tp4069
sS'FENNER, TEL DEXTER 1-2434'
p4070
(g844
I70
I15849
tp4071
sS'CHACE AV'
p4072
(S'CHACE AVE'
p4073
I100
I16921
tp4074
sS'I WEBSTER AV'
p4075
(g3751
I94
I18098
tp4076
sS'ATWOOD AV. JOHNSTON, TEL UNION 1-0913'
p4077
(g32
I63
I16707
tp4078
sS'CHALKSTONE SIX OTHER CONVENIENT COMMUNITY OFFICES IN BARRINGTON CRANSTON CENTREDALE PAWTUCKET GREENVILLE'
p4079
(g199
I59
I17433
tp4080
sS'LUCITE'
p4081
(g389
I77
I17577
tp4082
sS'BROADWAY, EAST PROVIDENCE. TELS GENEVA 4-1255, 4-1256'
p4083
(g103
I69
I17631
tp4084
sS'PEQUOT'
p4085
(S'PEQUOT ST'
p4086
I100
I15930
tp4087
sS'-8900'
p4088
(g1593
I29
I15881
tp4089
sS'-3883'
p4090
(g1641
I29
I16873
tp4091
sS'WARRINGTON'
p4092
(S'WARRINGTON ST'
p4093
I100
I17350
tp4094
sS'WEYBOSSET R2, TEL GASPIAE 1-5074'
p4095
(g14
I72
I15992
tp4096
sS'-3352'
p4097
(g46
I29
I15881
tp4098
sS'HOME'
p4099
(S'HOME AVE'
p4100
I100
I17534
tp4101
sS'INDUSTRIAL BANK BLDG 111 WESTMINSTER,'
p4102
(g386
I73
I15991
tp4103
sS'MEETING'
p4104
(g2989
I100
I15907
tp4105
sS'WEYBOSSET R8 06'
p4106
(g14
I87
I15992
tp4107
sS'TELS GASPEE'
p4108
(g939
I85
I15863
tp4109
sS'B CAMP'
p4110
(g647
I90
I16917
tp4111
sS'WESTMINS TER'
p4112
(g35
I90
I15991
tp4113
sS'-3401'
p4114
(g468
I29
I16871
tp4115
sS'-3400'
p4116
(g1641
I29
I16873
tp4117
sS'WEYBOSSET TEL STUART'
p4118
(g14
I81
I15992
tp4119
sS'WESTMINSTER , R504'
p4120
(g35
I90
I15991
tp4121
sS'RUSSO'
p4122
(S'RUSSO ST'
p4123
I100
I16439
tp4124
sS'ME LROSE'
p4125
(g4003
I88
I17263
tp4126
sS'ATWELFS AV'
p4127
(g52
I86
I15775
tp4128
sS'-2060 RES TELS WILLIAMS'
p4129
(S'BETSY WILLIAMS DR'
p4130
I83
I16591
tp4131
sS'INDUSTRIAL BANK BLDG 111 WESTMINSTER STREET. SERVICE OFFICE IN LOBBY. TEL, JACKSON 1-3900'
p4132
(g386
I61
I15991
tp4133
sS'EVERGREEN'
p4134
(S'EVERGREEN ST'
p4135
I100
I16966
tp4136
sS"-5800'"
p4137
(g46
I29
I15881
tp4138
sS'-0050'
p4139
(g46
I29
I15881
tp4140
sS'-0056'
p4141
(g46
I29
I15881
tp4142
sS'RICHMOND, TEL GASPEE 1-7840'
p4143
(S'RICHMOND SQ'
p4144
I77
I17086
tp4145
sS'WESTMINSTER; BRANCH 205 WAYLAND AV,'
p4146
(g386
I77
I15991
tp4147
sS'ANTHONY AV'
p4148
(S'ANTHONY AVE'
p4149
I100
I17155
tp4150
sS'TON'
p4151
(S'STONE ST'
p4152
I75
I16476
tp4153
sS'PAGE'
p4154
(g1263
I100
I15923
tp4155
sS'CRANSTON'
p4156
(g717
I100
I15817
tp4157
sS'POST RD. APPONAUG, TEL REGENT 7-9100'
p4158
(S'EAST APPROACH'
p4159
I48
I15832
tp4160
sS'HARTFORD AV'
p4161
(S'HARTFORD AVE'
p4162
I100
I17889
tp4163
sS'POWER RD; FACTORY 310 OWEN AV, PAWTUCKET.'
p4164
(g446
I56
I16771
tp4165
sS'WESTMINSTER R428'
p4166
(g35
I90
I15991
tp4167
sS'GREEN'
p4168
(g722
I91
I15866
tp4169
sS'WEYBOSSET R8-9-10'
p4170
(g14
I84
I15992
tp4171
sS'JENKINS'
p4172
(S'JENKINS ST'
p4173
I100
I17010
tp4174
sS'BRIDGHAM'
p4175
(g1885
I100
I17169
tp4176
sS'HEWES'
p4177
(S'CHEEVES ST'
p4178
I67
I15806
tp4179
sS'WESTMNSTER . PROVIDENCE TEL ELMHURST'
p4180
(g35
I69
I15991
tp4181
sS'CRANSTOR.'
p4182
(g717
I88
I15817
tp4183
sS'-5331'
p4184
(g46
I29
I15881
tp4185
sS'WASHINGTON R203'
p4186
(g878
I90
I15987
tp4187
sS'WASHINGTON R202'
p4188
(g878
I90
I15987
tp4189
sS'WASHINGTON R205'
p4190
(g878
I90
I15987
tp4191
sS"WESTMINW'3 STER, TEIS GASNEE'1-8950. 1-8951. 1-8952"
p4192
(g35
I55
I15991
tp4193
sS'WASHINGTON R207'
p4194
(g878
I90
I15987
tp4195
sS'WASHINGTON R206'
p4196
(g878
I90
I15987
tp4197
sS'WASHINGTON R209'
p4198
(g878
I90
I15987
tp4199
sS'WESTMINSTER ROOM'
p4200
(g35
I90
I15991
tp4201
sS'NIAGARA'
p4202
(S'NIAGARA ST'
p4203
I100
I17273
tp4204
sS'VIRGINIA AV'
p4205
(g2308
I100
I16849
tp4206
sS'NEWARK BARKLEYS WINDOW, HOME & OFFICE CLEANING C0. 283 SMITH, IBROVIDENCEF'
p4207
(g661
I52
I17299
tp4208
sS'WASHINGTON R201'
p4209
(g878
I90
I15987
tp4210
sS'-0100; SERVICE'
p4211
(S'SERVICE RD'
p4212
I87
I15953
tp4213
sS'LEFT TOP LINES) 1'
p4214
(g2327
I59
I16885
tp4215
sS'EASTWOOD AV'
p4216
(S'EASTWOOD AVE'
p4217
I100
I17839
tp4218
sS'-39 NARRAGANSETT AV,'
p4219
(g549
I95
I17270
tp4220
sS'WASHINGTON R3 06'
p4221
(g43
I88
I15986
tp4222
sS'SNOW, 2D FLOOR,'
p4223
(S'FLORA ST'
p4224
I62
I16182
tp4225
sS'&WILLOW'
p4226
(g813
I100
I18108
tp4227
sS'R111'
p4228
(S'11TH ST'
p4229
I50
I16869
tp4230
sS'WASHINGTON R204'
p4231
(g878
I90
I15987
tp4232
sS'BRADFORD'
p4233
(S'BRADFORD ST'
p4234
I100
I15790
tp4235
sS'A REYNOLDS AV'
p4236
(g674
I94
I16791
tp4237
sS'EXCHANGE R511'
p4238
(g55
I90
I15846
tp4239
sS'RANDALL, TEL GASPEE 14981'
p4240
(g1327
I76
I16416
tp4241
sS'A BROAD'
p4242
(g263
I91
I15793
tp4243
sS'W EXCHANGE KIDDE WALTER CO'
p4244
(g336
I81
I15982
tp4245
sS'ENGROVE AV'
p4246
(S'GROVE ST'
p4247
I83
I17876
tp4248
sS'A WATERMAN APT 7'
p4249
(g2850
I83
I15988
tp4250
sS'WESTMINSTER TEL GABPEE'
p4251
(g35
I83
I15991
tp4252
sS'WASHINGTON R208'
p4253
(g878
I90
I15987
tp4254
sS"HARTFORD A'"
p4255
(g4162
I94
I17889
tp4256
sS"' WESTMINSTER R1141"
p4257
(g35
I89
I15991
tp4258
sS'CAROLINA'
p4259
(g1076
I100
I16085
tp4260
sS'MANTON'
p4261
(g531
I100
I17947
tp4262
sS'-50 WEYBOSSET'
p4263
(g14
I93
I15992
tp4264
sS'UNIVERSITV AV'
p4265
(S'UNIVERSITY AVE'
p4266
I90
I17119
tp4267
sS'UNION R409'
p4268
(g590
I83
I15977
tp4269
sS'HAWKINS'
p4270
(S'HAWKINS ST'
p4271
I100
I16223
tp4272
sS'ELLENFIELD'
p4273
(S'ELLENFIELD ST'
p4274
I100
I16654
tp4275
sS'WESTMINSTER R1612'
p4276
(g35
I89
I15991
tp4277
sS'CHESTNUT DEL'
p4278
(g2563
I90
I15807
tp4279
sS'-0600'
p4280
(g1990
I29
I16876
tp4281
sS'WESTMINSTER R409'
p4282
(g35
I90
I15991
tp4283
sS'WESIEYAN AV'
p4284
(g961
I88
I17353
tp4285
sS'UNIVERSITY AV'
p4286
(S'UNIVERSITY AVE'
p4287
I100
I17119
tp4288
sS'WESTMINSTER R212'
p4289
(g35
I90
I15991
tp4290
sS'WESTMINSTER R405'
p4291
(g35
I90
I15991
tp4292
sS'WESTMINSTER R404'
p4293
(g35
I90
I15991
tp4294
sS'WESTMINSTER R403'
p4295
(g35
I90
I15991
tp4296
sS'WESTMINSTER R402'
p4297
(g35
I90
I15991
tp4298
sS'WESTMINSTER R401'
p4299
(g35
I90
I15991
tp4300
sS'WESTMINSTER R400'
p4301
(g35
I90
I15991
tp4302
sS'-128 , BROADWAY, TELS GASPEE 1-6394 , THROUGH TO GASPEE 1-6399'
p4303
(S'GRAND BROADWAY'
p4304
I63
I16209
tp4305
sS'WASH PL DONNELLY JAS H 15 WESTMINSTER R740'
p4306
(g35
I71
I15991
tp4307
sS'WESTMINSTER R2010'
p4308
(g35
I89
I15991
tp4309
sS'TOBEV'
p4310
(g2910
I80
I18076
tp4311
sS'VEAZIE'
p4312
(S'VEAZIE ST'
p4313
I100
I16515
tp4314
sS'HUNTIHGTON AV'
p4315
(g1248
I90
I17236
tp4316
sS'FOUNTAIN, TEL UNMN 1-5000'
p4317
(g223
I75
I15853
tp4318
sS'PRAIRIE'
p4319
(g1882
I100
I16787
tp4320
sS'DOYLE AVU'
p4321
(g2125
I85
I16946
tp4322
sS'WAMPANOAG TRAIL, EAST PROVIDENCE, TEL GENEVA 47400'
p4323
(g807
I69
I17631
tp4324
sS'LESTER'
p4325
(S'LESTER ST'
p4326
I100
I17245
tp4327
sS'-5800; DOWNTOWN OFFICE'
p4328
(g3279
I52
I17202
tp4329
sS'OLNEV'
p4330
(S'OLNEY ST'
p4331
I80
I16377
tp4332
sS'-9800'
p4333
(g46
I29
I15881
tp4334
sS'OLNEY'
p4335
(g4331
I100
I16377
tp4336
sS'PLAINFIELD,'
p4337
(S'PLAINFIELD ST'
p4338
I100
I17994
tp4339
sS'-1290; BLACKSTONE VALLEY THE ATTLEBOROS'
p4340
(S'BLACKSTONE PL'
p4341
I74
I15784
tp4342
sS'CLIFFORD,'
p4343
(S'CLIFFORD ST'
p4344
I100
I15811
tp4345
sS'-7400'
p4346
(g70
I29
I16874
tp4347
sS'CLIFFORD.'
p4348
(g4344
I100
I15811
tp4349
sS'& 10 266 CRANSTON'
p4350
(g717
I85
I15817
tp4351
sS'EDNA OFF 125 PLAINFIELD, DIRECTLY IN REAR OF FORMER LOCATION-NOW THE OLNEYVILLE EXPRESSWAY, TEIS ELMHURST 1-5100, 1-5101'
p4352
(g777
I58
I17994
tp4353
sS'AVENTINE AV'
p4354
(S'AVENTINE AVE'
p4355
I100
I16039
tp4356
sS'CHARLES R3'
p4357
(g1596
I91
I16096
tp4358
sS'CHARLES R5'
p4359
(g1596
I91
I16096
tp4360
sS'-414 PINE'
p4361
(g3276
I83
I15933
tp4362
sS'WESTMINSTER R333'
p4363
(g35
I90
I15991
tp4364
sS'WESTMINSTER R335'
p4365
(g35
I90
I15991
tp4366
sS'-6655 DEXTER'
p4367
(g29
I85
I17198
tp4368
sS'36 POCASSET AV'
p4369
(g854
I92
I17995
tp4370
sS'CUSTOMHOUSE R202'
p4371
(g121
I75
I15820
tp4372
sS'HOSPITAL TRUST BLDG 15 WESTMINSTER, TEL GASPEE 1-8666'
p4373
(g35
I67
I15991
tp4374
sS'SABIN 5TH'
p4375
(g1569
I85
I15950
tp4376
sS'WESTNHNSTER,'
p4377
(g386
I82
I15991
tp4378
sS'380 E LMW OOD AV'
p4379
(g1303
I70
I15833
tp4380
sS'-220 ACADEMY AV'
p4381
(g2524
I89
I17365
tp4382
sS'EXCHANGE PL R200'
p4383
(g55
I85
I15846
tp4384
sS'WEST PARK. 3.1511 GASPEE 1-2386'
p4385
(g167
I66
I15863
tp4386
sS'LOVELL AV, CRANSTON'
p4387
(g1778
I81
I15817
tp4388
sS'464-66 BROAD'
p4389
(g263
I79
I15793
tp4390
sS'VANBURCN'
p4391
(S'VAN BUREN ST'
p4392
I72
I16844
tp4393
sS'7 9 PLAINFIE 1D'
p4394
(g777
I80
I17994
tp4395
sS'WESTMINSTER, R1215-16, TELS GASPEE 1-0824, 1-8234'
p4396
(g35
I69
I15991
tp4397
sS'WHITNEY'
p4398
(S'WHITNEY ST'
p4399
I100
I17356
tp4400
sS'OLIVE'
p4401
(S'OLIVE ST'
p4402
I100
I17061
tp4403
sS'RIGHT SIDEI LIXIES)'
p4404
(S'CITIZENS PLZ'
p4405
I48
I15808
tp4406
sS'HOYLE'
p4407
(g2125
I80
I16946
tp4408
sS'WASHINGTON'
p4409
(g878
I100
I15987
tp4410
sS"WESTMINSTER, PROVIDENCE, TEL ELMHURST 1-5800Z DOWNTOWN OFFICE 20 WESTMINSTER. MT PLEASANT OFFICE 1082 CHALKSTONE, SIX OTHER CONVENIENT COMMUNITY OFFICES IN EARRINGTON, CRANSTON, CENTREDALE, PAWTUCKET AND'GREENVILLE"
p4411
(g35
I55
I15991
tp4412
sS'STAMFORD'
p4413
(g2303
I100
I17330
tp4414
sS"WESTMIN'STER,"
p4415
(g35
I87
I15991
tp4416
sS'WHITMARSH'
p4417
(S'WHITMARSH ST'
p4418
I100
I17355
tp4419
sS'BERGEN'
p4420
(S'BERGEN ST'
p4421
I100
I17400
tp4422
sS'BROAD TEL STUART'
p4423
(g357
I60
I15963
tp4424
sS'SHEPARD'
p4425
(S'SHEPARD AV'
p4426
I100
I16449
tp4427
sS'WESTMINSTER. TEL GASPEE 1-1600'
p4428
(g35
I77
I15991
tp4429
sS'WEYBOSSET R905'
p4430
(g14
I89
I15992
tp4431
sS'CRAWFORD'
p4432
(g4234
I75
I15790
tp4433
sS'WEYBOSSET R903'
p4434
(g14
I89
I15992
tp4435
sS'WEYBOSSET R901'
p4436
(g14
I89
I15992
tp4437
sS'WEYBOSSET R304'
p4438
(g14
I89
I15992
tp4439
sS'; POCASSET AV'
p4440
(g3973
I100
I17995
tp4441
sS'-83 CARPENTER, TEL GASPEE 1-1025'
p4442
(g824
I73
I15801
tp4443
sS'WEYBOSSET R303'
p4444
(g14
I89
I15992
tp4445
sS'SPRING'
p4446
(S'SPRING ST'
p4447
I100
I16465
tp4448
sS'THURBERS AV'
p4449
(S'THURBERS AVE'
p4450
I100
I16839
tp4451
sS'PLAINFIELD, TELS ELMHURST 1-4900, 64901, 1-4902, 1-4903'
p4452
(g777
I66
I17994
tp4453
sS'SACKETT'
p4454
(S'SACKETT ST'
p4455
I100
I17314
tp4456
sS"LEFT TOP LINES) '"
p4457
(g2327
I61
I16885
tp4458
sS'STEWART'
p4459
(g357
I100
I15963
tp4460
sS'BROWN'
p4461
(g3510
I100
I16073
tp4462
sS'03 WESTMINS TER'
p4463
(g35
I84
I15991
tp4464
sS'EDDY R308'
p4465
(g567
I81
I15834
tp4466
sS'EDDY R307'
p4467
(g567
I81
I15834
tp4468
sS'GESLER'
p4469
(S'GESLER ST'
p4470
I100
I17864
tp4471
sS'SWAN'
p4472
(S'SWAN CT'
p4473
I100
I16481
tp4474
sS'WOODMONT'
p4475
(S'WOODMONT ST'
p4476
I100
I17361
tp4477
sS'BASSETT, TEL GASPEE 1-4600'
p4478
(g780
I72
I15777
tp4479
sS'OLNEYVILLE SQ R5-6'
p4480
(g218
I92
I17978
tp4481
sS'WESTMNSTER,. PROVIDENCE,'
p4482
(g386
I79
I15991
tp4483
sS'602 ELMWOOD AV'
p4484
(g671
I89
I17207
tp4485
sS'ATKINS'
p4486
(S'ATKINS ST'
p4487
I100
I17385
tp4488
sS'CHALKSTONE SIX OTHER CONVENIENT COMMUNITY OFFICES IN HARRINGTON CRANSTON CENTREDALE PAWTUCKET GREENVILLE'
p4489
(g199
I59
I17433
tp4490
sS'WESTIIINSTER,'
p4491
(g386
I87
I15991
tp4492
sS'; ATWELLS AV'
p4493
(g196
I100
I15775
tp4494
sS'RIVER AV,'
p4495
(g827
I100
I16423
tp4496
sS'HILLSIDE AV'
p4497
(S'HILLSIDE DR'
p4498
I100
I16235
tp4499
sS'970 WESTMINSTER'
p4500
(g35
I92
I15991
tp4501
sS'RIGHI TOP LINES)'
p4502
(g585
I61
I17781
tp4503
sS'BLACKSTONE'
p4504
(S'BLACKSTONE ST'
p4505
I100
I15785
tp4506
sS'DANA'
p4507
(S'DANA ST'
p4508
I100
I16940
tp4509
sS'APPLETON'
p4510
(S'APPLETON ST'
p4511
I100
I17749
tp4512
sS'WESVTMINSTER R907'
p4513
(g35
I87
I15991
tp4514
sS"POCAS*' SET AV"
p4515
(g3973
I85
I17995
tp4516
sS'CHAPIN AV'
p4517
(g503
I100
I17800
tp4518
sS'A ELMWOOD AV'
p4519
(g671
I94
I17207
tp4520
sS'DORRANCE R210'
p4521
(g711
I88
I15829
tp4522
sS"WA'YLAND AV"
p4523
(g118
I88
I17125
tp4524
sS"MASSASOIT AV, EAST PROVIDENCE , TELS EAST PROVIDENCE'1-3881, 1-2095"
p4525
(g103
I66
I17631
tp4526
sS'WATERMAN'
p4527
(g2850
I100
I15988
tp4528
sS'ATWELLS AV, TEL GASPEE 1-2439'
p4529
(g196
I70
I15775
tp4530
sS'LILLIAN AV'
p4531
(S'LILLIAN ST'
p4532
I100
I16282
tp4533
sS'ERVING AV'
p4534
(S'IRVING ST'
p4535
I83
I16251
tp4536
sS'GEORGE MI. COHAN BLVD'
p4537
(g2076
I98
I15864
tp4538
sS'FENNQR'
p4539
(g844
I83
I15849
tp4540
sS'ANGELL R520'
p4541
(g768
I85
I16022
tp4542
sS'BROAD R4-5'
p4543
(g263
I83
I15793
tp4544
sS'-5585, 1-5586, WIILIAMS 1-8714'
p4545
(g439
I64
I15997
tp4546
sS'BROADWAY,'
p4547
(g3481
I100
I15794
tp4548
sS'WESTMINSTE R.'
p4549
(g386
I95
I15991
tp4550
sS'VALLEY,'
p4551
(S'VALLEY ST'
p4552
I100
I17693
tp4553
sS'BURRILL'
p4554
(S'RILL ST'
p4555
I73
I17646
tp4556
sS'CHAD BROWN'
p4557
(S'CHAD BROWN ST'
p4558
I100
I17432
tp4559
sS'CONGDON'
p4560
(S'CONGDON ST'
p4561
I100
I16932
tp4562
sS'RIGHT'
p4563
(g585
I77
I17781
tp4564
sS'HIGH, PAWTUCKET,'
p4565
(g446
I73
I16771
tp4566
sS'ELMWOOA AV'
p4567
(g671
I86
I17207
tp4568
sS'HIGH, PAWTUCKET.'
p4569
(g446
I73
I16771
tp4570
sS'BAINBRIDGE AV'
p4571
(S'BAINBRIDGE AVE'
p4572
I100
I17757
tp4573
sS'-8320'
p4574
(g96
I29
I16872
tp4575
sS'BALLO AV'
p4576
(g455
I80
I21740
tp4577
sS'29 LILY'
p4578
(g3732
I86
I15894
tp4579
sS'CRAN5 TON'
p4580
(g717
I72
I15817
tp4581
sS'SISSON'
p4582
(S'SISSON ST'
p4583
I100
I18042
tp4584
sS'RICHMOND SQ LS PLANTATIONS'
p4585
(g1006
I61
I15978
tp4586
sS'W CLIFFORD'
p4587
(S'WEST CLIFFORD ST'
p4588
I100
I17344
tp4589
sS'-5450; WASHINGTON'
p4590
(g878
I90
I15987
tp4591
sS'PAWTUCKET AV, PAWTUCKET'
p4592
(g446
I64
I16771
tp4593
sS'RIGHTIJF SME LINES)'
p4594
(g585
I54
I17781
tp4595
sS'WATE RMAN'
p4596
(g2850
I80
I15988
tp4597
sS'EDDY. TEL JACKSON'
p4598
(g316
I80
I16253
tp4599
sS'210 BROADWAY'
p4600
(g397
I90
I15794
tp4601
sS"-198'1"
p4602
(g64
I53
I15880
tp4603
sS'A CAMP'
p4604
(g647
I90
I16917
tp4605
sS'ELMWOOD AV, TEL STUART 1-4000'
p4606
(g671
I70
I17207
tp4607
sS'WESTMINSTER R1115'
p4608
(g35
I89
I15991
tp4609
sS'WESTMINSTER R1114'
p4610
(g35
I89
I15991
tp4611
sS'GLOBE'
p4612
(S'GLOBE ST'
p4613
I100
I15865
tp4614
sS'WESTMINSTER R1110'
p4615
(g35
I89
I15991
tp4616
sS"RESERVOIR AV. CRANSTON, TEL HOPKINS 1-9380'"
p4617
(g26
I68
I17303
tp4618
sS'ALDRICH'
p4619
(S'ALDRICH ST'
p4620
I100
I16559
tp4621
sS'CM NUT,'
p4622
(S'CONDUIT ST'
p4623
I61
I15814
tp4624
sS"DORRANCE' TEL GASPEE"
p4625
(g2253
I82
I15828
tp4626
sS'WESTMINSTER. TEL GASPEE'
p4627
(g35
I83
I15991
tp4628
sS'TAPPAN'
p4629
(S'TAPPAN ST'
p4630
I100
I17680
tp4631
sS'FRIENDSHIP,'
p4632
(S'FRIENDSHIP ST'
p4633
I100
I15858
tp4634
sS'WESTMINSTER, TEL GASPEE 1-6507'
p4635
(g35
I77
I15991
tp4636
sS'R EVNOLDS AV'
p4637
(g674
I81
I16791
tp4638
sS'CUSTOM HOUSE R504'
p4639
(g121
I91
I15820
tp4640
sS'CUSTOM HOUSE R506'
p4641
(g121
I91
I15820
tp4642
sS'OXFORD'
p4643
(g1362
I100
I16764
tp4644
sS'GEORGE'
p4645
(g3087
I100
I16670
tp4646
sS'CARLISS'
p4647
(S'CORLISS ST'
p4648
I86
I16123
tp4649
sS'WESTMINSTER R1022'
p4650
(g35
I89
I15991
tp4651
sS'WESTMINSTER R1024'
p4652
(g35
I89
I15991
tp4653
sS'-6650'
p4654
(g46
I29
I15881
tp4655
sS'PLAINFIELD, IEL ELMHURST 1-5513'
p4656
(g777
I75
I17994
tp4657
sS'EXCHANGE.'
p4658
(g1590
I100
I15845
tp4659
sS'1 27 DORRANCE'
p4660
(g711
I88
I15829
tp4661
sS'UNION R508'
p4662
(g590
I83
I15977
tp4663
sS"'PARK AV, CRANSTON,"
p4664
(g1778
I83
I15817
tp4665
sS'-3094'
p4666
(g46
I29
I15881
tp4667
sS'RESERVOIR AV. CRANSTON,'
p4668
(g2004
I80
I17303
tp4669
sS'WESTMINSTER R408'
p4670
(g35
I90
I15991
tp4671
sS'BACK COVER)'
p4672
(S'CLOVE ST'
p4673
I66
I17442
tp4674
sS'UNION R505'
p4675
(g590
I83
I15977
tp4676
sS'WESTMINSTER R506'
p4677
(g35
I90
I15991
tp4678
sS'WESTMINSTER R407'
p4679
(g35
I90
I15991
tp4680
sS'WESTMINSTER R502'
p4681
(g35
I90
I15991
tp4682
sS'DIXON'
p4683
(S'DIXON ST'
p4684
I100
I16147
tp4685
sS'BROADWAV'
p4686
(g397
I88
I15794
tp4687
sS'WESTMINSTER R406'
p4688
(g35
I90
I15991
tp4689
sS'BROADWAY'
p4690
(g397
I100
I15794
tp4691
sS'STANWOOD'
p4692
(g3859
I100
I17331
tp4693
sS'N COURT'
p4694
(S'NORTH ROME AVE'
p4695
I83
I16364
tp4696
sS'WESTMINSTER R508'
p4697
(g35
I90
I15991
tp4698
sS'WESTMINSTER R509'
p4699
(g35
I90
I15991
tp4700
sS'WINTHROP AV'
p4701
(S'WINTHROP AVE'
p4702
I100
I17720
tp4703
sS'ALLENS AV,'
p4704
(g700
I100
I15768
tp4705
sS'WESTMMSTER'
p4706
(g35
I86
I15991
tp4707
sS'E LMW OOD AV'
p4708
(g1303
I75
I15833
tp4709
sS'CRANSTON. ARLINGTON, TEIS ELMHURST 112107. 1-2108'
p4710
(g17
I66
I16892
tp4711
sS'77 WESTMINS TER'
p4712
(g35
I84
I15991
tp4713
sS'-1445 OCEAN'
p4714
(g3748
I83
I16756
tp4715
sS'BURROWS'
p4716
(S'BURROWS ST'
p4717
I100
I17173
tp4718
sS'MASON'
p4719
(S'MATSON AVE'
p4720
I91
I17953
tp4721
sS'UNIT'
p4722
(S'UNIT ST'
p4723
I100
I18082
tp4724
sS'CLIFFORD'
p4725
(g2807
I100
I15811
tp4726
sS'2 79 PLAINFIE 1D'
p4727
(g777
I79
I17994
tp4728
sS'CUSTOM HOUSE R42, 43, 44,'
p4729
(g964
I85
I15820
tp4730
sS'& THURBERS AV'
p4731
(g4450
I100
I16839
tp4732
sS'LAURISTON'
p4733
(S'LAURISTON ST'
p4734
I100
I17020
tp4735
sS'RAILROAD WOONSOCKET. R1. TEL POPLAR'
p4736
(S'WOONASQUATUCKET AV'
p4737
I55
I18113
tp4738
sS'-1200'
p4739
(g295
I50
I16868
tp4740
sS'HEALTH AV'
p4741
(S'HEALTH AVE'
p4742
I100
I17524
tp4743
sS'SUTTON. TEL UNION'
p4744
(g1099
I77
I15966
tp4745
sS'LEFT SIDE LILIES)'
p4746
(S'LESLIE DR'
p4747
I61
I17564
tp4748
sS'JACKSON, TEL DEXTER 1-6100'
p4749
(S'JACKSON WALKWAY'
p4750
I72
I15884
tp4751
sS'N MAIN, "'
p4752
(g2300
I100
I15916
tp4753
sS'PINE AND'
p4754
(g3276
I83
I15933
tp4755
sS'WESTMINSTER. TEL UNION'
p4756
(g35
I84
I15991
tp4757
sS'7 EXCHANGE R319'
p4758
(g55
I87
I15846
tp4759
sS'WESTMINSTER E I'
p4760
(g35
I88
I15991
tp4761
sS'MATHEWSON R2'
p4762
(g360
I93
I15904
tp4763
sS'ATWELIS AV, TEL GASPEE 1-2439'
p4764
(g196
I63
I15775
tp4765
sS'-4785'
p4766
(g46
I29
I15881
tp4767
sS'WESTMINSTER R816'
p4768
(g35
I90
I15991
tp4769
sS'CUSTOM HOUSE.'
p4770
(g964
I100
I15820
tp4771
sS'HOMSTEAD AV'
p4772
(g3097
I94
I17234
tp4773
sS'MAPLE , PAWTUCKET, TEL PAWTUCKET 5-5600'
p4774
(g346
I57
I16771
tp4775
sS"-7562'"
p4776
(g46
I29
I15881
tp4777
sS'LEFT BOTTOM LINES FRONT COVER) CHEESE MANUFACTURERS'
p4778
(g1090
I47
I16308
tp4779
sS'EXCHANGE'
p4780
(g2885
I100
I15845
tp4781
sS'BROOK, TEL DEXTER 1-8020'
p4782
(g29
I70
I17198
tp4783
sS'FOUNTAIN TEL DEXTER'
p4784
(g223
I79
I15853
tp4785
sS'PARKIS AV'
p4786
(S'PARKIS AVE'
p4787
I100
I17282
tp4788
sS"6-1218 BR'OAD"
p4789
(g4229
I37
I16869
tp4790
sS'BILL'
p4791
(S'MILL ST'
p4792
I75
I15911
tp4793
sS'; HUDSON CO'
p4794
(g1660
I90
I17903
tp4795
sS"BRANCH AV; FUNERAL HOME '971 BRANCH AV,"
p4796
(S'MINERAL SPRING AV'
p4797
I56
I16343
tp4798
sS'DOWNING'
p4799
(g3279
I100
I17202
tp4800
sS'OLNEYVILLE SQ R10'
p4801
(g218
I93
I17978
tp4802
sS'RANDALL'
p4803
(g1799
I100
I16415
tp4804
sS"-39 NARRAGANSETT AV, TEIS STUAI'T 1-0600, 1-0601"
p4805
(S'NARRAGANSETT BLVD'
p4806
I72
I16745
tp4807
sS'WASH R401'
p4808
(g774
I81
I21700
tp4809
sS'G ELMWOOD AV'
p4810
(g671
I94
I17207
tp4811
sS'CHALKSTONE SIX OTHER CONVENIENT COMMUNITY OFFICES IN EARRINGTON CRANSTON CENTREDALE PAWTUCKET GREENVILLE)'
p4812
(g199
I59
I17433
tp4813
sS'-90 DUDLEY TEL DEXTER'
p4814
(g1021
I73
I15830
tp4815
sS'ETHAN'
p4816
(S'ETHAN ST'
p4817
I100
I17847
tp4818
sS'GARNET 6'
p4819
(S'GARNET ST'
p4820
I93
I15862
tp4821
sS'POND'
p4822
(g631
I100
I15937
tp4823
sS'S ESSIODS'
p4824
(S'SESSIONS ST'
p4825
I73
I17098
tp4826
sS'JACKSON R207-8'
p4827
(g316
I83
I16253
tp4828
sS"LEFT SIDE LINES) '"
p4829
(g2183
I61
I16963
tp4830
sS'GAY'
p4831
(S'GAY ST'
p4832
I100
I16669
tp4833
sS'INDIA'
p4834
(S'INDIA ST'
p4835
I100
I15883
tp4836
sS'E E LMW OOD AV'
p4837
(g2725
I69
I15833
tp4838
sS'VIRGINIA AV,'
p4839
(g2308
I100
I16849
tp4840
sS'N ORTHUP AV'
p4841
(S'NORTHUP AVE'
p4842
I83
I16365
tp4843
sS'CARPENTER U'
p4844
(g824
I95
I15801
tp4845
sS'EDDY R208'
p4846
(g567
I81
I15834
tp4847
sS'PONAGANSETT AV'
p4848
(S'PONAGANSETT AVE'
p4849
I100
I17997
tp4850
sS"ALLEN'S'AV"
p4851
(g8
I81
I15768
tp4852
sS'7WESTMINSTER'
p4853
(g35
I96
I15991
tp4854
sS'-158 PINE'
p4855
(g3276
I83
I15933
tp4856
sS'830 WESTMINS TER'
p4857
(g35
I82
I15991
tp4858
sS'BENEFIT,'
p4859
(S'BENEFIT ST'
p4860
I100
I15781
tp4861
sS'WEST EXCHANGE, 5TH FLOOR, TEL DEXTER 1-6241'
p4862
(g336
I74
I15982
tp4863
sS'BROAD R3'
p4864
(g263
I88
I15793
tp4865
sS'ELMWOOD AV.'
p4866
(g1338
I100
I17207
tp4867
sS'VERNDALE AV'
p4868
(S'VERNDALE AVE'
p4869
I100
I16846
tp4870
sS'BROAD R9'
p4871
(g263
I88
I15793
tp4872
sS'ELMWOOD AV;'
p4873
(g671
I100
I17207
tp4874
sS'; PRAIRIE AV'
p4875
(g1198
I100
I16787
tp4876
sS'LEFT TOP UNES)'
p4877
(S'SEFTON DR'
p4878
I56
I16814
tp4879
sS'INC, 175 PAWTUCKET AV'
p4880
(g346
I73
I16771
tp4881
sS'WEVBOSSET R3'
p4882
(g14
I82
I15992
tp4883
sS"WEST EXCHANGE TEL GA'SPEE"
p4884
(g336
I84
I15982
tp4885
sS'DEAN'
p4886
(S'DEAN ST'
p4887
I100
I15825
tp4888
sS'-232 UNION AV'
p4889
(S'UNION AV'
p4890
I90
I18080
tp4891
sS'-9609'
p4892
(g46
I29
I15881
tp4893
sS'-0788'
p4894
(g3078
I29
I16877
tp4895
sS'SPRUCE'
p4896
(S'SPRUCE ST'
p4897
I100
I15961
tp4898
sS'RAILROAD'
p4899
(S'RAILROAD TERR'
p4900
I88
I15943
tp4901
sS'ADELAIDE'
p4902
(g2818
I100
I17148
tp4903
sS'-337 PRAIRIE AV'
p4904
(g1882
I89
I16787
tp4905
sS'BACKBONE)'
p4906
(g4505
I78
I15785
tp4907
sS'GEORGIA AV, TEL HOPKINS 1-2730'
p4908
(g1341
I69
I16671
tp4909
sS'BFANCH AV'
p4910
(g3696
I83
I16067
tp4911
sS'ARLINGTON AV'
p4912
(S'ARLINGTON AVE'
p4913
I100
I16892
tp4914
sS'& DEXTER'
p4915
(g29
I100
I17198
tp4916
sS'CLORANE'
p4917
(S'LORRAINE AVE'
p4918
I80
I17030
tp4919
sS'NARRAGANSETT AV, TEL HOPKINS 1-1420'
p4920
(S'NARRAGANSETT PKWY'
p4921
I79
I16746
tp4922
sS'WESTMINSTER R49'
p4923
(g35
I92
I15991
tp4924
sS'WESTMINSTER R43'
p4925
(g35
I92
I15991
tp4926
sS'WESTMINSTER R40'
p4927
(g35
I92
I15991
tp4928
sS'STOKES'
p4929
(S'STOKES ST'
p4930
I100
I18058
tp4931
sS'WESTMINSTER R1109'
p4932
(g35
I89
I15991
tp4933
sS'WESTMINSTER R1107'
p4934
(g35
I89
I15991
tp4935
sS'WESTMINSTER R1104'
p4936
(g35
I89
I15991
tp4937
sS'-0490'
p4938
(g46
I29
I15881
tp4939
sS'WESTMINSTER R1102'
p4940
(g35
I89
I15991
tp4941
sS'-0824 1-8234'
p4942
(S'12TH ST'
p4943
I26
I16870
tp4944
sS'& BROADWAGR'
p4945
(g397
I82
I15794
tp4946
sS'-9555'
p4947
(g46
I58
I15881
tp4948
sS'-264 WEYBOSSET,'
p4949
(g258
I91
I15992
tp4950
sS'E TRANSIT'
p4951
(S'EAST TRANSIT ST'
p4952
I100
I16954
tp4953
sS'-9776'
p4954
(g46
I29
I15881
tp4955
sS"STEI'ENS"
p4956
(S'STERLING AVE'
p4957
I65
I18055
tp4958
sS'-0476 AND GASPEE'
p4959
(g939
I78
I15863
tp4960
sS'BATH'
p4961
(S'BATH ST'
p4962
I100
I17396
tp4963
sS'FOUNTAIN V'
p4964
(g223
I94
I15853
tp4965
sS'POST RD, APPONAUG, TEL REGENT 7-9100'
p4966
(g4159
I48
I15832
tp4967
sS'-6062'
p4968
(g96
I29
I16872
tp4969
sS'DANIEL AV'
p4970
(S'DANIEL AVE'
p4971
I100
I17817
tp4972
sS"; BILL'S DINER 705I CRANSTON"
p4973
(g717
I71
I15817
tp4974
sS'R18'
p4975
(S'CYR ST'
p4976
I33
I16634
tp4977
sS'PAWTUCKET AV, EAST PROVIDENCE,'
p4978
(g661
I76
I17299
tp4979
sS'PAWTUCKET AV, EAST PROVIDENCE.'
p4980
(g661
I76
I17299
tp4981
sS'38 DIKE LST FL'
p4982
(g1060
I72
I17827
tp4983
sS'610 PLAINFIELD'
p4984
(g777
I91
I17994
tp4985
sS'CRANSTON,'
p4986
(g1778
I100
I15817
tp4987
sS'CRARV'
p4988
(g1749
I80
I15818
tp4989
sS'WOMENS AUXILIARY 176 BENEFIT'
p4990
(S'HILARY DR'
p4991
I48
I17529
tp4992
sS"POTTE'R'S AV"
p4993
(g3471
I77
I17294
tp4994
sS'CHAPMAN'
p4995
(S'CHAPMAN ST'
p4996
I100
I16617
tp4997
sS'WESTMINSTER R519'
p4998
(g35
I90
I15991
tp4999
sS'WESTMINSTER R511'
p5000
(g35
I90
I15991
tp5001
sS'WESTMINSTER R510'
p5002
(g35
I90
I15991
tp5003
sS'WESTMINSTER R512'
p5004
(g35
I90
I15991
tp5005
sS'WESTMINSTER R515'
p5006
(g35
I90
I15991
tp5007
sS'WESTMINSTER R514'
p5008
(g35
I90
I15991
tp5009
sS'WESTMINSTER R517'
p5010
(g35
I90
I15991
tp5011
sS'WESTMINSTER R516'
p5012
(g35
I90
I15991
tp5013
sS'RIGHT BOTTOM NAPS)'
p5014
(g1419
I56
I15762
tp5015
sS'PARSONAGE'
p5016
(S'PARSONAGE ST'
p5017
I100
I15927
tp5018
sS'PONTIAC AV'
p5019
(g628
I100
I17292
tp5020
sS'OLNEYVILLE SQ R4'
p5021
(g218
I95
I17978
tp5022
sS'PITMAN, TELS UNION 1-3960, 1-3961'
p5023
(g2151
I66
I17073
tp5024
sS'-85 WESTMINSTER R25'
p5025
(g35
I88
I15991
tp5026
sS'EXCHANGE TEL GASPEE'
p5027
(g55
I85
I15846
tp5028
sS'-9870'
p5029
(g46
I29
I15881
tp5030
sS'WESTMINSTER 4THF1'
p5031
(g35
I89
I15991
tp5032
sS'SNOW R207'
p5033
(g2611
I81
I15957
tp5034
sS'EMPIRE R301'
p5035
(g204
I85
I15840
tp5036
sS'NINIGRET AV'
p5037
(S'NINIGRET AVE'
p5038
I100
I17275
tp5039
sS'SPRAGUE'
p5040
(S'SPRAGUE ST'
p5041
I100
I17327
tp5042
sS'CROSS'
p5043
(S'CROSS ST'
p5044
I100
I16129
tp5045
sS'WEYBOSSET TEL GASPEE'
p5046
(g14
I81
I15992
tp5047
sS'345 CANAL'
p5048
(g2026
I85
I15798
tp5049
sS'PRAIR IE AV'
p5050
(g1882
I88
I16787
tp5051
sS'BATTEY'
p5052
(g2423
I100
I15778
tp5053
sS'LYNDHURST AV'
p5054
(S'LYNDHURST AVE'
p5055
I100
I17581
tp5056
sS'ATWELLS AV'
p5057
(g196
I100
I15775
tp5058
sS'ATWEUS AV'
p5059
(g196
I77
I15775
tp5060
sS'-7333'
p5061
(g1641
I29
I16873
tp5062
sS'70 WESTMINSTER R503'
p5063
(g35
I86
I15991
tp5064
sS'-243 WESTMINSTER, TEL GASPEE 1-4900'
p5065
(g35
I75
I15991
tp5066
sS'POCASSET'
p5067
(g854
I100
I17995
tp5068
sS'WESTMINSTER R337'
p5069
(g35
I90
I15991
tp5070
sS'RIGHT TOP LINES RIGHT SIDE LINES)'
p5071
(g585
I56
I17781
tp5072
sS"ABOR'N"
p5073
(S'NORTH CT'
p5074
I83
I15918
tp5075
sS'ACADEMY AV'
p5076
(g2524
I100
I17365
tp5077
sS'-4795'
p5078
(g46
I58
I15881
tp5079
sS'RESERVOIR AV, CRANSTON TEL HOPKINS 1-9380'
p5080
(g26
I68
I17303
tp5081
sS'KNIGHT'
p5082
(g452
I100
I15890
tp5083
sS'-219 RICHMOND'
p5084
(g1214
I90
I15946
tp5085
sS'& WILLARD AV'
p5086
(g1314
I100
I16545
tp5087
sS'DALE'
p5088
(S'DALE ST'
p5089
I100
I17816
tp5090
sS'CRANSTON, CRANSTON, RI, TEL UNION 1-0215'
p5091
(g717
I68
I15817
tp5092
sS'ANSEL AV'
p5093
(g1657
I100
I17154
tp5094
sS'AURORA'
p5095
(S'AURORA AV'
p5096
I100
I16570
tp5097
sS'STATE'
p5098
(S'STATE ST'
p5099
I100
I17672
tp5100
sS'DORRANCE'
p5101
(g711
I100
I15829
tp5102
sS"KINSLEY AV, TEL GASPEE 1-5065; QUARRY DIVISION, FIRST STREET, BERKELEY, RI, TEL PAWTUCK'ET 3-3300"
p5103
(g3701
I58
I17828
tp5104
sS'WESTMINSTER TEL JACKSON'
p5105
(g35
I82
I15991
tp5106
sS'RANKIN AV'
p5107
(S'RANKIN AVE'
p5108
I100
I17636
tp5109
sS'CVARRINGTON AV'
p5110
(S'CARRINGTON AVE'
p5111
I95
I16918
tp5112
sS'CHARLES,'
p5113
(S'CHARLES ST'
p5114
I100
I16096
tp5115
sS'-8094.'
p5116
(g46
I29
I15881
tp5117
sS'DRYDEN 1A'
p5118
(g23
I90
I16156
tp5119
sS'-0476 GASPEE 1-7376'
p5120
(g167
I75
I15863
tp5121
sS'-45 SEEKONK'
p5122
(g3340
I91
I17097
tp5123
sS'WESTMINSTER R727.'
p5124
(g386
I90
I15991
tp5125
sS'FOREST'
p5126
(S'FOREST ST'
p5127
I100
I16972
tp5128
sS'WEYBOSSET R57'
p5129
(g14
I91
I15992
tp5130
sS'PINE. TEL UNION 1-1000'
p5131
(g590
I69
I15977
tp5132
sS'WADSWORTH'
p5133
(S'WADSWORTH ST'
p5134
I100
I17346
tp5135
sS'EMEOOD AV'
p5136
(g671
I77
I17207
tp5137
sS'WESTMINSTER R6 04'
p5138
(g35
I89
I15991
tp5139
sS'WESTMINSTER R6 05'
p5140
(g35
I89
I15991
tp5141
sS"LEFT TOP '1INES)"
p5142
(g3276
I55
I15933
tp5143
sS'WARREN AV, EAST PROVIDENCE, TELS GENEVA 4-0570. 4-0571'
p5144
(g103
I69
I17631
tp5145
sS'CHALKSTONE'
p5146
(g199
I100
I17433
tp5147
sS'-12 ARCADE'
p5148
(g2568
I90
I15773
tp5149
sS'CO MAIN OFFICE'
p5150
(S'POST OFFICE CT'
p5151
I82
I15938
tp5152
sS'NORWICH AV'
p5153
(S'NORWICH AVE'
p5154
I100
I16753
tp5155
sS'EXCHANGE. TEL GASPEE 1-1860'
p5156
(g55
I79
I15846
tp5157
sS'MELROSE, TEL STUART 1-9400'
p5158
(g4003
I72
I17263
tp5159
sS'LIPPITT'
p5160
(S'LIPPITT ST'
p5161
I100
I17024
tp5162
sS'-264 WEYBOSSET, TEIS GASPIAE 1-8200, 1-8201'
p5163
(g14
I68
I15992
tp5164
sS'BENEDICT'
p5165
(g3039
I100
I16053
tp5166
sS'WAYLAND AV'
p5167
(g3297
I100
I17125
tp5168
s.