(dp0
S'CUSTOM HOUSE, TELS GASPEE 1-9856; GASPEE 1-9857'
p1
(S'CUSTOM HOUSE ST'
p2
I73
I15820
tp3
sS'PRINCETON AV 1MM ALF M 111 WESTMINSTER R822'
p4
(S'WESTMINSTER ST'
p5
I71
I15991
tp6
sVORMS
p7
(VORMS ST
p8
I86
I16384
tp9
sS'), TE1421-9022'
p10
(S'TEW PL'
p11
I39
I17111
tp12
sS"POTTER'S AV  SIGNALING DEVICES AND"
p13
(S'STERLING AVE'
p14
I50
I18055
tp15
sVFEDERAL BLDG
p16
(VFEDERAL ST
p17
I86
I15848
tp18
sS'RICH- MOND ST'
p19
(S'RICHMOND ST'
p20
I81
I15946
tp21
sS'WESTMINSTER R1109, TEL JACKSON 1 - 1 100'
p22
(g5
I75
I15991
tp23
sVAND LEFT SIDE LINES) ADVERTISING AGENCIES
p24
(VANDERTON AVE
p25
I50
I16018
tp26
sVWEYBWSET, TEL DEXTER 1-8200
p27
(VWEYBOSSET ST
p28
I64
I15992
tp29
sS'PAWTNCKET AV'
p30
(S'PAWTUXET AV'
p31
I74
I16771
tp32
sS"EMPIRE, 'TEL GASPEE 1-72 56"
p33
(S'EMPIRE PLAZA'
p34
I74
I15839
tp35
sS"POINT  'ADVERTISING-RADIO AND"
p36
(S'ANDERTON AVE'
p37
I52
I16018
tp38
sVDORCHESTER AV MOTION PICTURE APPARATUS AND SUPPLIES
p39
(VDORCHESTER AVE
p40
I71
I17831
tp41
sS'WEST- MLNSTER, TEL JACKSON 1-9700'
p42
(S'WESTMINSTER ST'
p43
I60
I15991
tp44
sS'SMITH R6 RMITAGE JOHN C 15 WESTMINSTER R724'
p45
(g5
I71
I15991
tp46
sVWALCOTT,
p47
(VWOLCOTT ST
p48
I78
I17722
tp49
sS'ELMGROVE AV PHILLIPS GYMNASIUM QUARTERS 357 WEST- MINSTER R307 PROVOST HEALTH BATHS &. GYMNASIUM 11 PECK'
p50
(S'NASHUA ST'
p51
I34
I16353
tp52
sS'WEYBOSSET R706 T JAMES L, JR, 58 WEYBOSSET R701, TEL GASPEE 1-1300, RES TEL REGENT 7-1528'
p53
(S'WEYBOSSET ST'
p54
I62
I15992
tp55
sV1\u000aWILLARD AV
p56
(VWILLARD AVE
p57
I93
I16863
tp58
sVWEST- MINSTER, TEL JACKSON 1-9700; BRANCHESZ 62 DORRANCE; 100 WEST- MINSTER
p59
(VBRANCH AVE
p60
I51
I16067
tp61
sVWESTMINSTER R619
p62
(VWESTMINSTER ST
p63
I90
I15991
tp64
sVSTEWART LUCOMBINA'L'ION STORM WINDOWS AND DOORS
p65
(VCOLUMBIA AV
p66
I49
I16627
tp67
sS'WEVBOSSET ST'
p68
(S'WEYBOSSET ST'
p69
I90
I15992
tp70
sVHONE
p71
(VTHORNE ST
p72
I71
I17682
tp73
sVWEST- MINSTER R312
p74
(g63
I77
I15991
tp75
sVAND LEFT TOP LINES) APPRAIBERS
p76
(VEAST APPROACH
p77
I47
I15832
tp78
sVMAIN, PAWTUCKET, TEL PAWTUCKET 3-2100 ;
p79
(VPAWTUXET AVE
p80
I62
I16772
tp81
sS'KOAPITAI TRUST BLDG 15 WESTMINSTER, TEL GASPEE 1-8940'
p82
(g5
I69
I15991
tp83
sVWELLINGTON AV, CRANSTON, TEL HOPKINS 1-3400
p84
(VWELLINGTON AVE
p85
I75
I17352
tp86
sS'FOUNTAIN STAPURE PRODUCTS INC 385 WESTMINSTER'
p87
(g5
I68
I15991
tp88
sVEDDY AND 71 WILLARD AV
p89
(g57
I80
I16863
tp90
sS'CHESTNUT. TELS 1)ER 1-0254 AHA DEXTER 1-2253'
p91
(S'CHESTNUT ST'
p92
I70
I15807
tp93
sVSOPHIA.
p94
(VSOPHIA ST
p95
I90
I18045
tp96
sVEDDY R308 *WEDDING CANOPIES FOR RENT
p97
(VCOES ST
p98
I48
I16108
tp99
sVNORTH BROADWAY, RUMFORD. TEL EAST 7 PROVIDENCE 1-6522
p100
(VPROVIDENCE ST
p101
I67
I17299
tp102
sVWESTMINSTER R915-16
p103
(g63
I86
I15991
tp104
sVWASH *TRANSPORTATION COMPANIES
p105
(VUNION STATION ST
p106
I55
I15978
tp107
sVI LINEWOOD AV
p108
(VLINWOOD AVE
p109
I88
I17249
tp110
sS'-1177'
p111
(S'11TH ST'
p112
I43
I16869
tp113
sVWESTMINSTER R3OA * REFINERS-GOLD, SILVER AND PLATINUM
p114
(g63
I72
I15991
tp115
sVSABIN 6TH FL
p116
(VSABIN ST
p117
I85
I15950
tp118
sVUNION AV, TEL ELMHURST 1-1515
p119
(VELMHURST AVE
p120
I72
I17482
tp121
sS'CARPENTER, TALE GASPEE 1-0476 AID GAAPEE 147378'
p122
(S'CARPENTER ST'
p123
I69
I15801
tp124
sVAMHERST BRANCHES 863 BROAD, 1052 CHALKSTONE AV, 486 CRANSTON, 297 ELMWOOD AV, 727 HOPE, 917 MANTON AV, 283 AND 536 PLAINFIELD, 28 PONTIAC, 165 AND 472 SMITH, 291 THAYER AND 55 WALLING
p125
(VCHALKSTONE AVE
p126
I57
I17433
tp127
sVWEVBOSSET B19
p128
(g28
I80
I15992
tp129
sS'SUM. TEL R 1-0644'
p130
(S'SUMTER ST'
p131
I28
I17333
tp132
sS'PLAINFIELD WILFRED 184 WATERMAN MICHL G 1254 BROAD'
p133
(S'PLAINFIELD ST'
p134
I69
I17994
tp135
sVWASHINGTON
p136
(VWASHINGTON PL
p137
I93
I15986
tp138
sVBENEFIT *DRUGGISTS-RETAIL-WHOLE- SALE
p139
(VFRUIT HILL AVE
p140
I53
I16192
tp141
sVTO 372 PLAIN- FIE 1D
p142
(VPLAIN ST
p143
I72
I15934
tp144
sVATWELLS AV CINDER BLOCKS
p145
(VATWELLS AVE
p146
I81
I15775
tp147
sS'GANO  BOAT DEALERS-REPAIR AND'
p148
(S'ALVERSON AVE'
p149
I51
I17743
tp150
sVTHAYER R8
p151
(VTHAYER ST
p152
I89
I17112
tp153
sS'WARREN'
p154
(S'WARREN WY'
p155
I90
I16851
tp156
sVWESTMINSTER R1007
p157
(g63
I88
I15991
tp158
sS') TELEPHONE 272-1314'
p159
(S'STEPHANIE DR'
p160
I57
I16474
tp161
sVRICHMOND L"ELECTRIC REFRIGERATION
p162
(VCREIGHTON ST
p163
I50
I16935
tp164
sS'OLNEYVILLE SQ RM 11'
p165
(S'OLNEYVILLE SQ'
p166
I90
I17978
tp167
sVWESTMINSTER,
p168
(g63
I94
I15991
tp169
sVWESTMINSTER.
p170
(g63
I94
I15991
tp171
sS'WEYBOSSET, TEL GASPEE 1-8255, NIGHTS AND HOLIDAYS TEL GABPEE 1-8255'
p172
(S'WEYBOSSET ST'
p173
I65
I15992
tp174
sS"WEST- MINSTER R 10 19 TITLE GUARANTEE CO OF RHODE ' ISLAND, 66 S MAIN"
p175
(S'GRANT ST'
p176
I46
I17870
tp177
sVWAMPANOAG TRAIL, EAST PROVIDENCE, TEL
p178
(g101
I75
I17299
tp179
sS'RICHMOND. TEL GASPEE 1-7840'
p180
(S'RICHMOND ST'
p181
I77
I15946
tp182
sVRESERVOIR AV
p183
(VRESERVOIR AVE
p184
I98
I17303
tp185
sVHOSPITAL TRUST BLDG 15 WESTMINSTER, TEL GASPEE 1-9870
p186
(g63
I69
I15991
tp187
sVBROAD- WAY
p188
(VBROAD ST
p189
I85
I15793
tp190
sS'LINCOLN, BOSTON 11, MASS'
p191
(S'LINCOLN AVE'
p192
I77
I16283
tp193
sVSILVER SPRING, TELS UNION 1-1350 AND 1-2641 AND CENTREDALE 1-7488
p194
(VCENTRAL ST
p195
I52
I16616
tp196
sVAND 156
p197
(VANDY ST
p198
I71
I16020
tp199
sVEXCHANGE. TEL GASNER 1-1860
p200
(VEXCHANGE TER
p201
I81
I15846
tp202
sS'HARRIET'
p203
(S'HARRIET ST'
p204
I91
I16687
tp205
sS'BLNEYVILLE SQUARE'
p206
(g166
I85
I17978
tp207
sV'FEDERAL
p208
(g17
I91
I15848
tp209
sVELMWBOD AV
p210
(VELMWOOD AVE
p211
I86
I17207
tp212
sVMIDWAY RD, GARDEN CITY, TEL'STUART 1-2521
p213
(VMEDWAY ST
p214
I58
I17040
tp215
sVEMPIRE R325
p216
(VEMPIRE ST
p217
I85
I15840
tp218
sS"BROAD M WM P 145 WATERMAN MM CARON M 225 WATERMAN WM MAURICE L 102 WATERMAN R10 M BHNLEV D 295 GOVERNOR W EDM'OND B 84 BROWN BUN CURA-LOTUNM MRS 281 OLNEY"
p219
(S'WATERMAN ST'
p220
I56
I15988
tp221
sS'HARRISAV2DFL'
p222
(S'HARRIS AVE'
p223
I70
I15869
tp224
sVROUNDS AV CREDIT REPORTING AGENCIES
p225
(VCOLD SPRING ST
p226
I54
I16927
tp227
sVBUCKLIN, TEL DEXTER 1-2666
p228
(VBUCKLIN ST
p229
I75
I17171
tp230
sV126 BE LLEVUE AV
p231
(VBELLEVUE AVE
p232
I82
I16051
tp233
sS'17 RANDALL, TEL GASPEE 1-1981'
p234
(S'RANDALL SQ'
p235
I73
I16416
tp236
sS"WEYBOSSET. TEL STUART 1-0100; SERVICE 280' MELRODE"
p237
(g173
I70
I15992
tp238
sS"ELM- N IV. TEL BODKINS 1-7100 AND 381 ANUS; TEL DE'XTER 1-4498"
p239
(S'HOPKINS ST'
p240
I48
I15876
tp241
sVSABIN  ARTIFICIAL LIMBS-MANUFAC- TURERS
p242
(VFINANCIAL PLAZA
p243
I52
I15851
tp244
sVWESTMIN- SUM, TELS GASPEE'1-194Z, 1-4450
p245
(g63
I62
I15991
tp246
sVPOCASSET AV AND 247 PRAIRIE AV
p247
(VPOCASSET AVE
p248
I78
I17995
tp249
sS"SMITH WATEI', TEL UNLON 1-1700"
p250
(S'SMITH HILL ST'
p251
I74
I15956
tp252
sS'SPRING  L"BUCKLES-LADIES\' BELTS AND'
p253
(S'BUCKLIN ST'
p254
I54
I17171
tp255
sVBOGMAN
p256
(VBOGMAN ST
p257
I90
I16597
tp258
sVEXCHANGE R217
p259
(g201
I90
I15846
tp260
sVEXCHANGE R214
p261
(g201
I90
I15846
tp262
sVASHBURTON
p263
(VASHBURTON ST
p264
I93
I16032
tp265
sVEDDY, TEL GASPEE 1-9022
p266
(VGASPEE ST
p267
I72
I15863
tp268
sS"DELA'ME"
p269
(S'DELTA ST'
p270
I78
I15826
tp271
sS'BOX 883, TEL PAWTUCKET 2-0565'
p272
(g31
I61
I16771
tp273
sVSPRING AND 40 SUMMER
p274
(VSPRING ST
p275
I77
I16465
tp276
sS'-7211'
p277
(S'11TH ST'
p278
I43
I16869
tp279
sV-64 WEY- BOSSET, TELS GASPEE 1-8200, 1-8201
p280
(g28
I61
I15992
tp281
sVGODDARD
p282
(VGODDARD ST
p283
I91
I17515
tp284
sS'A THAVER ST'
p285
(S'THAYER ST'
p286
I81
I17112
tp287
sS'JEFFENON BLVD, WARWICK, RI'
p288
(S'JEFFERSON ST'
p289
I63
I17548
tp290
sVAND BACKBONE) *EXECUTORS
p291
(VEXETER ST
p292
I53
I16967
tp293
sVERSTMINSTER
p294
(g63
I85
I15991
tp295
sVCAMP AND 78 PLAIN
p296
(g143
I70
I15934
tp297
sVBROAD-
p298
(g189
I88
I15793
tp299
sV-2880
p300
(V2ND ST
p301
I24
I16872
tp302
sVRICH- MEND
p303
(VRICHMOND ST
p304
I68
I15946
tp305
sS'POCASSET PROVIDENCE GRANITE CO INC 210 KINSLEY AV'
p306
(S'PROVIDENCE ST'
p307
I69
I17299
tp308
sS'BROAD AND 104 WICKENDEN'
p309
(S'WICKENDEN ST'
p310
I75
I15995
tp311
sVWEYBOSSET R905
p312
(g28
I88
I15992
tp313
sS'DOR- RANCE ST'
p314
(S'DORRANCE ST'
p315
I86
I15829
tp316
sVBROAD. TEL
p317
(g189
I91
I15793
tp318
sS"CUSTOM HOUSE STREET, TEL GASPEE 1-'9555"
p319
(S'CUSTOM HOUSE ST'
p320
I79
I15820
tp321
sVWALCOTT, PAWTUCKET. TEL PAWTUCKET 2-2110
p322
(g80
I61
I16772
tp323
sVWESTMINSTER, TEL DEXTER 1-5373
p324
(g63
I80
I15991
tp325
sVLENOX AV
p326
(VLENOX AVE
p327
I97
I17244
tp328
sS'CLIFF   WHEEL CHALRS-SOLD AND'
p329
(S'CHARLES ST'
p330
I57
I16096
tp331
sVATWOOD, TEL ELMHURST 1-8891
p332
(g120
I73
I17482
tp333
sS"), T'ELA421-8200"
p334
(S'ELMA ST'
p335
I50
I16655
tp336
sS'WESTMIN- STER R518'
p337
(g5
I77
I15991
tp338
sVWESTMINSTER R6 30
p339
(g63
I88
I15991
tp340
sV154 WATERMAN
p341
(VWATERMAN ST
p342
I85
I15988
tp343
sS'ELMWOOD AV  GRANITE AND MARBLE'
p344
(S'ELMWOOD AVE'
p345
I77
I17207
tp346
sVWESTMINSTER R6 34
p347
(g63
I88
I15991
tp348
sS'ALLEYS AV'
p349
(S'ALLENS AVE'
p350
I83
I15768
tp351
sS'MASON  RADIO AND TELEVISION EQUIPMENT-SALES AND'
p352
(S'DIVISION ST'
p353
I51
I17828
tp354
sS'BRADLEY  CONTRACTORS-PAINTING AND'
p355
(S'CONCORD ST'
p356
I52
I16119
tp357
sS'BENEFIT STR'
p358
(S'BENEFIT ST'
p359
I97
I15781
tp360
sVMATHEWSON, 7TEL GASPEE 1-5800 '
p361
(VMATHEWSON ST
p362
I77
I15904
tp363
sS"-P) 795' EDDYST"
p364
(S'EDDY ST'
p365
I71
I15834
tp366
sVCALHOUN AV
p367
(VCALHOUN AVE
p368
I97
I17176
tp369
sVWESTMINSTER, TEIS DEXTER 1-3400, 1-3401
p370
(g63
I77
I15991
tp371
sVWESTMIN- STER, TEL JACKSON 1-6700; 63 WEST- MINS'I'ER; 146 WESTMINSTER; 244 WEYBCSSET; 238 THAYER; 434 SMITH; 1 OLNEYVILLE SQ
p372
(g63
I61
I15991
tp373
sVLUCILE
p374
(VLUCILLE ST
p375
I83
I17577
tp376
sVWEST- MINSTER R23
p377
(g63
I79
I15991
tp378
sVWEYBOSSET 3229
p379
(g28
I88
I15992
tp380
sVMILL. JOHNSTON. RI. TEL JACKAON'1-27O4
p381
(VJOHNSON ST
p382
I66
I16707
tp383
sVWREYBOSSET
p384
(g28
I88
I15992
tp385
sVSHELDON
p386
(VSHELDON ST
p387
I91
I16818
tp388
sVMENI CT "  TRUCKS
p389
(VTURKS HEAD PL
p390
I51
I15976
tp391
sS"ALLEN'S AV. TEL WILLIAMS 1-0050'"
p392
(S'BETSEY WILLIAMS DR'
p393
I75
I16590
tp394
sV9
p395
(VI 95
p396
I53
I15881
tp397
sV-4000
p398
(V4TH ST
p399
I24
I16874
tp400
sVWESTMINSTER R420 L"INSULATING MATERIALS- ELECTRICAL
p401
(g63
I72
I15991
tp402
sVEMPIRE. TEL GABDEE 1-9000
p403
(VEMPIRE PLAZA
p404
I75
I15839
tp405
sS'HOPE, TEL GASPEE 1-9231'
p406
(S'GASPEE ST'
p407
I72
I15863
tp408
sVABORN
p409
(VABORN ST
p410
I88
I15763
tp411
sVMEETS LST TUESDAY 170 SESSION
p412
(VTURNESSA GREEN
p413
I52
I16502
tp414
sVCUSTOM HOUSE R514 PAPER STOCK
p415
(VCUSTOM HOUSE ST
p416
I84
I15820
tp417
sVWEYBOSSET, TEL STUART 1-0100
p418
(g28
I81
I15992
tp419
sS"SHEPLEY INC. 17 CTSTOM HOUSE, TEL GASPEE 1-69'00"
p420
(S'STEEPLE ST'
p421
I50
I15962
tp422
sVEMPIRE R406 CLOTHING MANUFACTURERS- CHILDREN S
p423
(VLAWNACRE DR
p424
I45
I16273
tp425
sVATWELLS AV WATCHMAN SERVICE
p426
(g342
I58
I15988
tp427
sS'WILLIAMS'
p428
(S'WILLIAMS ST'
p429
I92
I15997
tp430
sS'WAY LAND'
p431
(S'WAYLAND SQ'
p432
I75
I17126
tp433
sVDOUGLAS AV
p434
(VDOUGLAS AVE
p435
I97
I16154
tp436
sVPOTTER'S AV *SHEET METALS
p437
(VPOTTERS AVE
p438
I74
I16786
tp439
sS'EXCHANGETER'
p440
(S'EXCHANGE TER'
p441
I90
I15846
tp442
sVFALES
p443
(VFALES ST
p444
I88
I17211
tp445
sS'WEVBOSSET. TEL ELMHURST 1-3600'
p446
(g54
I71
I15992
tp447
sS'ATWELLS AV ADMIRAL FOOD CENTER 828 ADMIRAL ST'
p448
(S'ATWELLS AVE'
p449
I69
I15775
tp450
sS'CHARLES  *BELTS-CONVEYOR, TIMING AND'
p451
(S'FALCONER ST'
p452
I52
I17210
tp453
sVFUNERAL HDME 260 ELMWOOD AV
p454
(VMINERAL SPRING AV
p455
I56
I16343
tp456
sS'-8313'
p457
(S'I 195'
p458
I25
I15880
tp459
sV; ATWELLS AV ARTIFICIAL FLOWERS AND FRUIT MANUFACTURERS
p460
(VMANCHESTER FARM RD
p461
I46
I16308
tp462
sS'FOUNTAIN BLOCK 44 FRANKLIN 1- BUILDING 40-50 FOUNTAIN'
p463
(S'FOUNTAIN ST'
p464
I66
I15853
tp465
sVG MATHEWSON
p466
(g362
I89
I15904
tp467
sVSEEKONK R6
p468
(VSEEKONK ST
p469
I90
I17097
tp470
sS"WESTMINSTER, TELS GASPEE 1-1942,'1-4450"
p471
(g5
I75
I15991
tp472
sVCOLLEGE
p473
(VCOLLEGE ST
p474
I91
I15812
tp475
sS'ALTHEA'
p476
(S'ALTHEA ST'
p477
I90
I17152
tp478
sS', MANTON AVE'
p479
(S'MANTON AVE'
p480
I100
I17947
tp481
sS'CUSTOM HOUSE R20 AND 10 DORRANCE R601'
p482
(S'DORRANCE ST'
p483
I69
I15829
tp484
sVEAGLE CLUBS-ATHLETIC
p485
(VATLANTIC AVE
p486
I56
I16035
tp487
sVHAVRRIS AV
p488
(VHARRIS AVE
p489
I91
I15869
tp490
sVN MAIN R112
p491
(VN MAIN ST
p492
I89
I15916
tp493
sS'ALTHER'
p494
(S'MATHER AV'
p495
I75
I16728
tp496
sVW
p497
(VWEST ST
p498
I86
I15990
tp499
sS"','WESTMINSBER ST"
p500
(S'WESTMINSTER ST'
p501
I92
I15991
tp502
sVW RIVER MACHINERY MANUFACTURERS
p503
(g461
I51
I16308
tp504
sVHARTFORD AV COAL DEALERS-RETAIL
p505
(VHARTFORD AVE
p506
I78
I17889
tp507
sV03 WESTMINS TER
p508
(g63
I80
I15991
tp509
sVCANAL R807
p510
(VCANAL ST
p511
I83
I15798
tp512
sS'-5200'
p513
(S'I 95'
p514
I29
I15881
tp515
sVEXCHANGE PL 63 WASHINGTON AND 130 WEYBOSSET
p516
(VWASHINGTON ST
p517
I73
I15987
tp518
sVWEST- MINSTER, TEL GASPEE 1-2154
p519
(g63
I68
I15991
tp520
sVCUSTOM HOUSE R202
p521
(g416
I90
I15820
tp522
sVCUSTOM HOUSE R203
p523
(g416
I90
I15820
tp524
sVD CORNER BOOK SHOP 4G WEY- BOSSET
p525
(VACORN ST
p526
I54
I15764
tp527
sVMANTON AV
p528
(VMANTON AVE
p529
I97
I17947
tp530
sS'FARMINGTON AV PANA PHILIP J 87 WEYBOSSET R321 LEY ROBT J 509 WESTMINSTER R44 MPEAU NORMAND 87 WEYBOSSET R527 ISTHMEN & CO 111 WESTMINSTER RMS 612- 14 LARDIELLO AUGUST 711 ATWELLS AV 10111 A & CO 685 HARTFORD AV LEGS GEO B 49 WESTMINSTER RMS 613-615 FMAN MORRIE & ASSOCIATES 111 WEST- MINATER R816 HN NEWTON B 97 FOUNTAIN'
p531
(g5
I54
I15991
tp532
sS'POCASSET AV LE CENTER 253 N MAIN TOWN 1048 CHALKSTONE AV'
p533
(S'CHALKSTONE AVE'
p534
I67
I17433
tp535
sVROSLYN AV
p536
(VROSLYN AVE
p537
I97
I17655
tp538
sVDELAINE
p539
(VDELAINE ST
p540
I91
I17822
tp541
sV-0600, 1-0601
p542
(V6TH ST
p543
I26
I16876
tp544
sVBROADWAV R6
p545
(VBROADWAY ST
p546
I80
I15794
tp547
sVMARSHALL
p548
(VMARSHALL ST
p549
I92
I17951
tp550
sS'MANTON, PAWTUCKET'
p551
(S'PAWTUXET AV'
p552
I67
I16771
tp553
sS"WELLINGTON AIR. CRANSTON. TEL S'I'IART 1-5420"
p554
(S'WELLINGTON AVE'
p555
I71
I17352
tp556
sS"EMPIRE'ST"
p557
(S'EMPIRE ST'
p558
I100
I15840
tp559
sS'WESTMINSTER R428 ELMER E, JR'
p560
(g5
I82
I15991
tp561
sS'WESTMINSTER. TEL UNION 1-4000'
p562
(g5
I81
I15991
tp563
sVS WATER
p564
(VS WATER ST
p565
I94
I15949
tp566
sVALLEN,S AV, TEL GASPEE 1-6079
p567
(g267
I67
I15863
tp568
sS'ALLEWS AV, TEL WMMMS 1-0050'
p569
(g350
I66
I15768
tp570
sVCRANSTON AND 1061 E LMW 00D AV
p571
(VCRANSTON ST
p572
I75
I15817
tp573
sVWESTMINSTER R621
p574
(g63
I90
I15991
tp575
sS'WHITTIER AV'
p576
(S'WHITTIER AVE'
p577
I98
I18107
tp578
sVWESTMINSTER R1013
p579
(g63
I88
I15991
tp580
sVCHALK- STONE AV
p581
(g126
I80
I17433
tp582
sVLLOVD AV
p583
(VLLOYD AVE
p584
I81
I17025
tp585
sVHOPE AND 883 MANTON AV
p586
(g529
I78
I17947
tp587
sVWEYBOSSET. TEL ELMHURST 1-3800
p588
(g28
I79
I15992
tp589
sS'UNION R209'
p590
(S'UNION ST'
p591
I83
I15977
tp592
sS'WATER- MAN ST'
p593
(S'WATERMAN ST'
p594
I86
I15988
tp595
sS'N MALN, TEL GASPEE 1-9595'
p596
(g407
I69
I15863
tp597
sS'BROAD DONNELLY HALL 333 EATON FREE MASONS HALL 127 DORRANCE FROEBEL HALL 80 BROWN GARFIELD HALL 320 VEAZIE GUZMAN HALL 333 EATON HEGEMAN HALL'
p598
(S'OCONNELL ST'
p599
I44
I16760
tp600
sVBATH. TELS DEXTER 1-0230 AND DEXTER 1-4940
p601
(VDEXTER ST
p602
I66
I17198
tp603
sVDORRANCE, TEL DEXTER 1-8320'
p604
(VDORRANCE ST
p605
I77
I15829
tp606
sS'WATERMAN AND EAST RIVER, TELS PLAN- TATIONS 1-2260. PLANTATLOXIS 1-2261'
p607
(S'ANSTIS ST'
p608
I39
I16563
tp609
sS'JACKSON WALKWAY, SUITE 15'
p610
(S'JACKSON WALKWAY'
p611
I88
I15884
tp612
sVWATERMAN AV. EAST PROVIDENCE. TM; GENEVA 4-6700
p613
(g101
I71
I17299
tp614
sVHOSPITAL TRUST BLDG 15 WESTMINSTER, TEL JACKSON 1-1100-
p615
(g63
I69
I15991
tp616
sS'WESTMIN- ITER R711'
p617
(g43
I74
I15991
tp618
sVPOWER RD; FACTORY 310 OWEN AV, PAWTUCKET. TEL PAWTUCKET 2-3386
p619
(g80
I55
I16772
tp620
sS'GEORGE WASHINGTON HWY'
p621
(S'WASHINGTON PL'
p622
I82
I15986
tp623
sVPOTXD.
p624
(VPOST RD
p625
I67
I16785
tp626
sVI ATWELIS AV
p627
(g146
I82
I15775
tp628
sS'WESTMINSTER, TEL 11LE 1-5400'
p629
(g5
I81
I15991
tp630
sVWOOLWORTH BLDG 187 WESTMINSTER, TEL GASPEE 1-3434 * LOANS -AU TOMOBILE
p631
(g63
I67
I15991
tp632
sS'OVERHILL RD   VENETIAN BLIND CLEANERS AND'
p633
(S'OVERHILL RD'
p634
I72
I17066
tp635
sVEDDY 4TH FL 'SILVERWARE-RETAIL
p636
(VSILVER LAKE AVE
p637
I60
I18039
tp638
sS"WELLINGTON A'V, CRANLLAL. TEL MT 1-5420"
p639
(S'WELLINGTON AVE'
p640
I77
I17352
tp641
sS'CANAL PACIFIC & ATLANTIC SHIPPERS INC 210 CANAL PROVIDENCE PHILADELPHIA DISPATCH 200 CANAL'
p642
(S'ADELPHI AVE'
p643
I46
I16882
tp644
sVEMPIRE R316
p645
(g217
I85
I15840
tp646
sVEMPIRE R311
p647
(g217
I85
I15840
tp648
sS'-1345 LIC FINANCE CORP'
p649
(S'FINANCE WAY'
p650
I75
I15850
tp651
sVCANAL, TEL DEXTER 1,-0400'
p652
(g602
I72
I17198
tp653
sVMATHEWSON, TEL GABPEE 1-2526
p654
(g362
I78
I15904
tp655
sVCAMP
p656
(VCAMP ST
p657
I86
I16917
tp658
sVWESTMINSTERIRAILB
p659
(g63
I75
I15991
tp660
sS"HOSPITAL BLDG 15 1'SSTMINSTER, TEL GASPEE 1-8940"
p661
(g5
I61
I15991
tp662
sVCHESTNUT,
p663
(VCHESTNUT ST
p664
I92
I15807
tp665
sVAND LEFT TOP LINES) 'LIFE INSURANCE COMPANIES
p666
(VFINANCE WAY
p667
I54
I15850
tp668
sV, TELS GASPEE 1-5654 AND 1-8080
p669
(g267
I68
I15863
tp670
sVROCHAMBOAU AV
p671
(VROCHAMBEAU AVE
p672
I89
I17088
tp673
sS'FORD  CONTRACTORS-ROOFING AND'
p674
(g356
I52
I16119
tp675
sVHIGH,
p676
(VHIGH ST
p677
I86
I16233
tp678
sS'WEST- RMMTER R402'
p679
(S'WEST RIVER ST'
p680
I58
I16541
tp681
sVWEVBOSSET
p682
(g28
I82
I15992
tp683
sVWEY- BOSSET R 29
p684
(g28
I77
I15992
tp685
sS'N MAIN BLUE CROSS BUILDING 31 CANAL'
p686
(S'GOULDING ST'
p687
I53
I16982
tp688
sVPOCASSET AV AND 49 WEST- MINSTER R711
p689
(g248
I75
I17995
tp690
sVI ATWELLS AV
p691
(g146
I93
I15775
tp692
sS'S&IONS ST'
p693
(S'S MAIN ST'
p694
I92
I15948
tp695
sVAND FRONT COVER)
p696
(VFREMONT ST
p697
I65
I16975
tp698
sVHOSPITAL *USED CAR DEALERS
p699
(VHOSPITAL ST
p700
I78
I15878
tp701
sVEAGLE RUBBER GOODS-WHOLESALE
p702
(VHOPEDALE RD
p703
I53
I17001
tp704
sVCARPENTER, TEIS GASPEE 1-0476 AND GASPEE 1-7376
p705
(VCARPENTER ST
p706
I69
I15801
tp707
sVBROADWAY R129 AND JUSTICE 515 PROV COUNTY COURT HOUSE
p708
(g546
I67
I15794
tp709
sS'BROAD R5  HAY AND STRAW DEALERS-'
p710
(S'DALLAS ALLEY'
p711
I50
I15821
tp712
sVWESTMINSTER R8 30
p713
(g63
I88
I15991
tp714
sS'WESTMINSTER STRM 402'
p715
(S'WESTMINSTER ST'
p716
I91
I15991
tp717
sS'INDUSTRIAL BANK BLDG 111 WESTMINSTER, TEL GAS- PEE 1-85F0'
p718
(g5
I69
I15991
tp719
sS"). TE1'831-6900"
p720
(S'I 195'
p721
I32
I15880
tp722
sS'WEYBOSSET, TEL GASPEE 1-2700; 280 ATIVELLS AV, TEL GASPEE'
p723
(g173
I68
I15992
tp724
sVWESTMINSTER R9 37
p725
(g63
I88
I15991
tp726
sVSEEKONK R5
p727
(g469
I90
I17097
tp728
sVCHARLES, TEL DEXTER 1-4496V
p729
(VCHARLES ST
p730
I75
I16096
tp731
sVWESTMINSTER R933
p732
(g63
I90
I15991
tp733
sS'), TEL 678-2855, IN PROVIDENCE TEL 336-6111'
p734
(S'PROVIDENCE ST'
p735
I73
I17299
tp736
sS'CHESTNUT AVES BRONZE MOUND CO'
p737
(S'CHESTNUT ST'
p738
I75
I15807
tp739
sS'CRANSTON CONTI HENRY A 13 IROQUOIS'
p740
(S'CRANSTON ST'
p741
I72
I15817
tp742
sVWESTMIN- STER R502
p743
(g63
I77
I15991
tp744
sVINDUSTRIAL BANK BLDG, TEL GASPEE 1-7345, IF NO ANSWER CALL CENTREDALE 1-9236
p745
(VINDUSTRIAL DR
p746
I65
I16249
tp747
sS'-1981'
p748
(g458
I50
I15880
tp749
sVS ANGELL WELL DRILLERS AND BORERS
p750
(VDRILL ST
p751
I54
I17474
tp752
sVWEY- BOSSET
p753
(g28
I81
I15992
tp754
sS'BURRINGTON EAGLE FOOD PRODUCTS CO 36-38 RANDALL'
p755
(S'BURLINGTON ST'
p756
I63
I16914
tp757
sS'BROAD ST, MINMN SHOPINGG'
p758
(S'COLD SPRING DR'
p759
I57
I14321
tp760
sS'JEWETT'
p761
(S'JEWETT ST'
p762
I90
I17549
tp763
sVWEST PARK, TEL GASPEE 1-2386
p764
(g267
I69
I15863
tp765
sVSACKETT 3D FL
p766
(VSACKETT ST
p767
I85
I17314
tp768
sVMAIN, PAWTUCKET, TEL PAWTUCKET 5-3 520
p769
(g80
I62
I16772
tp770
sS'BENEFIT LOPEZ JOHN F 14 WICKENDEN MACERONI BERNARDO & SONS 453 ATWELLS AV'
p771
(g310
I64
I15995
tp772
sVBOCHAMBEAU AV
p773
(g672
I89
I17088
tp774
sS'MEND- ON AV'
p775
(S'MENDON AVE'
p776
I85
I7324
tp777
sVWASH R218
p778
(VWASHBURN ST
p779
I58
I17712
tp780
sS'POINT  ELECTRIC MOTORS AND'
p781
(S'LECIA DR'
p782
I49
I17930
tp783
sVWASH R217
p784
(g779
I58
I17712
tp785
sS'HUNTING- TON AVE'
p786
(S'HUNTINGTON AVE'
p787
I89
I17236
tp788
sV221 ANGELL
p789
(VANGELL RD
p790
I81
I16022
tp791
sVWASH R213
p792
(g779
I58
I17712
tp793
sVTHOMAS AND VINCENT LUONGO MEMORIAL SQ
p794
(VLUONGO MEMORIAL SQ
p795
I82
I15896
tp796
sVOLNEYVILLE SQ R5-6
p797
(VOLNEYVILLE SQ
p798
I92
I17978
tp799
sVHAMILTON 2D FL
p800
(VHAMILTON ST
p801
I86
I17223
tp802
sVATWELLS AV 2D FL
p803
(g146
I87
I15775
tp804
sVFRUIT HILL AV
p805
(g140
I98
I16192
tp806
sVBLACKSTONE, TEL DEXTER 1-2853
p807
(VBLACKSTONE BLVD
p808
I80
I16904
tp809
sS'CABOT'
p810
(S'CATO ST'
p811
I67
I17430
tp812
sV02
p813
(g301
I32
I16872
tp814
sVS MAIN 2D FL
p815
(VS MAIN ST
p816
I88
I15948
tp817
sS'SMITH ST.'
p818
(S'SMITH ST'
p819
I100
I18708
tp820
sVSPRAGUE * ME TAL LATH
p821
(VSPRAGUE ST
p822
I81
I17327
tp823
sVALLEN'S
p824
(VALDEN ST
p825
I77
I17737
tp826
sS'LAUREL HILL AV'
p827
(S'LAUREL HILL AVE'
p828
I98
I17926
tp829
sS'GREENVILLE AV, JOHNSTON, R I'
p830
(S'GREENE ST'
p831
I63
I15866
tp832
sVCHESTNUT, TELS DEXTER 1-2253 AND 1-0254
p833
(g664
I72
I15807
tp834
sS"WESTMIN- LTER, TEL TEMPLE 1-750'0"
p835
(g5
I65
I15991
tp836
sVWEVBOSSET R327
p837
(g28
I79
I15992
tp838
sS"ALLEYS AV. TEL WLLUAMS 1-0050'"
p839
(g393
I64
I16590
tp840
sS'BROAD  ANTHUES-DEALERS AND'
p841
(S'IANTHE ST'
p842
I59
I16248
tp843
sS'MENTION AVE'
p844
(S'MANTON AVE'
p845
I81
I17947
tp846
sVEDDY. TEL JACKSON 1-6762
p847
(VJACKSON ST
p848
I74
I16253
tp849
sVDYER COR WESTMINSTER, TELS DEXTER 1-8313 AND 1-8314
p850
(g63
I72
I15991
tp851
sS'MATHEWSON. TEL GASNEE 1-0250'
p852
(S'MATHEWSON ST'
p853
I78
I15904
tp854
sVPINE, TEL DEXTER 1-6024, NIGHTS, SUNDAYS AND HOLI- DAYS TELS TELEE 1-3038 AND DEXTER 1-2087
p855
(VSUNSET TER
p856
I41
I16828
tp857
sVWES'T EXCHANGE. TEL GASPEE 1-7333
p858
(VW EXCHANGE ST
p859
I81
I15982
tp860
sVWEYBOSSET R43A
p861
(g28
I88
I15992
tp862
sS"KINSLEY AV. TEL GAANEE 1-5035; AN-Y MIMO'N-RU-ST STREET. BERKELEY, R I.VTEL PAWTUCKET 3- 3300 '"
p863
(g552
I49
I16771
tp864
sS'DIAMOM'
p865
(S'DIAMOND ST'
p866
I70
I17199
tp867
sVPAWTUCKET AV, PAWTUCKET TEL PAWTUCKET 2-1960
p868
(g80
I61
I16772
tp869
sS'ORCHARD AV CHURCH'
p870
(S'ORCHARD AVE'
p871
I85
I17063
tp872
sVAND RI H PLI
p873
(g198
I64
I16020
tp874
sVUCHALKSTONE AV
p875
(g126
I94
I17433
tp876
sS'EDDY, TEL DEXTCR 14300'
p877
(S'DEXTER ST'
p878
I61
I17198
tp879
sVMASONF TEL PLANTATIONS 1-9776
p880
(g106
I55
I15978
tp881
sS'. WESTMINSTER'
p882
(g43
I94
I15991
tp883
sS'WESTMINSTER. TEL GASPEE 1-2232'
p884
(g43
I80
I15991
tp885
sVCANAL 7TEL DEXTER
p886
(g602
I73
I17198
tp887
sVANGELL CLUBS -SOCIAL
p888
(VANGELL CT
p889
I78
I16889
tp890
sV-174 N MAIN *HOSPITAL BEDS-SOLD AND RENTED
p891
(g700
I70
I15878
tp892
sS"WASHINGTON  'ERHING-CHILDREN'S AND"
p893
(S'WASHINGTON ST'
p894
I76
I15987
tp895
sVALLEN'S AV, TEL GASPEE 1-6079
p896
(g267
I67
I15863
tp897
sS'AN- GELL  GLASS DEALERS-STAINED AND'
p898
(S'DALE ST'
p899
I54
I17816
tp900
sS'WESTMINSTER R920, TEL JACKSON 1-9287'
p901
(g5
I76
I15991
tp902
sVWEST- MINSTER
p903
(g63
I81
I15991
tp904
sVBROAD, TEL STUART 1-4858
p905
(VSTEWART ST
p906
I56
I15963
tp907
sVWEYBOSSET R32
p908
(g28
I90
I15992
tp909
sVWEYBOSSET R31
p910
(g28
I90
I15992
tp911
sVS COURT
p912
(VSOUTH CT
p913
I92
I15959
tp914
sVWESTMINSTER. TEL TEMPLE 1-7500
p915
(g63
I80
I15991
tp916
sVWEYBOSSET R39
p917
(g28
I90
I15992
tp918
sS"SOUTH WATE'R, TEL UNION 1-1700"
p919
(S'S WATER ST'
p920
I80
I15949
tp921
sVWESTMINSTER R8
p922
(g63
I93
I15991
tp923
sVWESTMINSTER, TEL GASPEE 1-6010
p924
(g63
I80
I15991
tp925
sVMAIN, PAWTUCKET, TEL PAWTUCKET 2-0080
p926
(g80
I62
I16772
tp927
sS'WESTMINSTER R1009 LES HAROLD E 15 WESTMINSTER R1030 LES RICHD F 15 WESTMINSTER R1030 LETON ALFRED'
p928
(g5
I62
I15991
tp929
sS'UHINUM AND'
p930
(S'CUSHING ST'
p931
I56
I16130
tp932
sS'W EXCHANGE, TEL GASPEE - 1-1383'
p933
(S'W EXCHANGE ST'
p934
I82
I15982
tp935
sVBENE- FIT R25 2D FL
p936
(VBENEFIT ST
p937
I65
I15781
tp938
sS"HAWES LAVINA DISTRIBUTORS INC 27 DRYDEN LA LEE'S TELEVISION SERVICE 414 ATWELLS AV MADSEN'S RADIO SALES & SERVICE 864 BROAD"
p939
(S'CONSTITUTION HILL ST'
p940
I36
I16121
tp941
sS"TERRACE AV RADIO & ELECTRIC CENTER 967 MANTON AV RAY'S T V SERVICE 127 SPRUCE RHODY T V SALES & SERVICE 936 BRANCH AV ROYAL RADIO SHOP 222 LAUREL HILL AV S GR. W TELEVISION CO 104 PRAIRIE AV SHAWMUT TELEVISION CO INC 743 N MAIN SMITH HILL T V CO 257 SMITH SOCK'S RADIO 8; TELEVISION SERVICE 266 HAWKINS"
p942
(S'DIVISION ST'
p943
I37
I17828
tp944
sV290 SHARON
p945
(VSHARON DR
p946
I81
I16447
tp947
sS'CHARLA ST'
p948
(S'HARLAM ST'
p949
I86
I17885
tp950
sVCUSTOM HOUSE R301
p951
(g416
I90
I15820
tp952
sS'WEST EXCHANGE, TEL GASPEE 147333'
p953
(g934
I82
I15982
tp954
sVWESTMINSTER R614
p955
(g63
I90
I15991
tp956
sVBEACH AND UNION STATION  TEA AND COFFEE-RETAIL
p957
(g106
I74
I15978
tp958
sVPUBLIC
p959
(VPUBLIC ST
p960
I90
I15942
tp961
sV-5500
p962
(g396
I29
I15881
tp963
sS'51 CRANSTON, TEL GASPEE 1-0788'
p964
(S'CRANSTON ST'
p965
I75
I15817
tp966
sS"'911), TEL 353-9872"
p967
(S'9TH ST'
p968
I28
I16879
tp969
sVHOSPITAL
p970
(g700
I92
I15878
tp971
sVWEYBOSSET R422B
p972
(g28
I87
I15992
tp973
sS'WEST- MINSTER R304  ASBESTOS GOODS AND'
p974
(g5
I49
I15991
tp975
sVADMIRAL
p976
(VADMIRAL ST
p977
I91
I16005
tp978
sS'HARTFORD AV, RTE 6'
p979
(S'HARTFORD AVE'
p980
I91
I17889
tp981
sVWATERMAN ROOMS 21 AND 24
p982
(g342
I78
I15988
tp983
sVAMICA BLDG 10 WEYBOSSET, TEL GASPEE 1-3 500
p984
(g28
I70
I15992
tp985
sS'OLNEYVILLE SQ  TRAFFIC BUREAUS AND'
p986
(S'OLNEYVILLE SQ'
p987
I78
I17978
tp988
sS'WEST EXCHANGE. TEL GAS- PEE 1-7333'
p989
(S'W EXCHANGE ST'
p990
I81
I15982
tp991
sS'DORA  CIGARS AND TOBACCO-'
p992
(S'SANTOMARCO DR'
p993
I51
I16444
tp994
sS"PLAINFIELD GUY 449 SMITH LBA-RUNCI BARBER SHOP 277 THAYER EXANDER'S BARBER SHOP 376 ELMWOOD AV ORE CARMINE 123 ATWELLS AV NGELO'S BARBER SHOP 228 HARTFORD AV ESE SALVATORE 1288 CHALKSTONE AV HONY'S BARBER SHOP 856 BROAD ONY'S BARBER SHOP 141 ELMGROVE AV ONY'S BARBER SHOP 964 MANTON AV HONY'S TONSORIAL PARLOR 40 CANDACE"
p995
(g134
I53
I17994
tp996
sVPILSUDSKI' 28
p997
(VPILSUDSKI ST
p998
I91
I17993
tp999
sVARCADE BLDG PHOTOGRAPHIC APPARATUS AND SUPPLIES
p1000
(VPROCTOR PL
p1001
I40
I17081
tp1002
sVWEYBWSET, TEL ELMHURST 1-3800
p1003
(g28
I66
I15992
tp1004
sS'INDUSTRIAL BANK BLDG 111 WESTMINSTER, TEL GASPEE 1-5768'
p1005
(g43
I69
I15991
tp1006
sVWESTMINSTER R311 *FURNACES-ELECTRIC HEAT TRE ATING
p1007
(g63
I72
I15991
tp1008
sVEMPIRE R308
p1009
(g217
I85
I15840
tp1010
sVEMPIRE R309
p1011
(g217
I85
I15840
tp1012
sVEMPIRE R303
p1013
(g217
I85
I15840
tp1014
sVEMPIRE R301
p1015
(g217
I85
I15840
tp1016
sVG ATWELLS AV
p1017
(g146
I93
I15775
tp1018
sS'OXLOFD. TEL STLLART MM'
p1019
(S'STELLA ST'
p1020
I58
I18054
tp1021
sS'WESTMINSTER R704  ELECTRONIC EQUIPMENT AND'
p1022
(g5
I73
I15991
tp1023
sS'NARRAGANSETT BLVD BARREL AND DRUM'
p1024
(S'NARRAGANSETT BLVD'
p1025
I84
I16745
tp1026
sS'WEYBOUET, TEL STUART 1-01OO'
p1027
(g54
I67
I15992
tp1028
sV-633 ATWELIS AV, TEL GASPEE 1-0680
p1029
(g146
I66
I15775
tp1030
sVBROAD AND 600 N MA IN  IUTUTOMOBILE ASSOCIATIONS
p1031
(VBUTTONHOLE DR
p1032
I46
I17790
tp1033
sS'NARRAGANSETT AVE'
p1034
(S'NARRAGANSETT AV'
p1035
I98
I17270
tp1036
sVVALE BAIT DEALERS
p1037
(VALBERT AVE
p1038
I57
I16557
tp1039
sVANGELI
p1040
(VANGELA CT
p1041
I75
I16021
tp1042
sVFRIENDSHIP
p1043
(VFRIENDSHIP ST
p1044
I93
I15858
tp1045
sVATRWELLS AV
p1046
(g146
I92
I15775
tp1047
sVTHAYER, TEL GABPEE 1-3905 PHO TOGRAPHE RS -COMME RCIAL
p1048
(VGRAPE ST
p1049
I50
I17517
tp1050
sS'CARRINGTON AV ARSON PHILIP 19 CARRINGTON AV OHN HYMAN 150 LANCASTER NLEY SALES STABLE 15 IANTHE'
p1051
(S'CARRINGTON AVE'
p1052
I63
I16918
tp1053
sS'RESERVOIRAV'
p1054
(S'RESERVOIR AVE'
p1055
I91
I17303
tp1056
sVSTEVVART
p1057
(g906
I73
I15963
tp1058
sV-4580
p1059
(g396
I29
I15881
tp1060
sVTHAYER AND 225 WEYBOSSET
p1061
(g28
I75
I15992
tp1062
sVTORONTO AV  METALLIZERS
p1063
(VNELLIE ST
p1064
I52
I16355
tp1065
sVEDDY, TEL DEXTER 1-8292' BEE YELLOW PANE 106)
p1066
(g602
I63
I17198
tp1067
sVW EXCHANGE. TEL GASDEE 1-7333
p1068
(g859
I82
I15982
tp1069
sVDUDLEV
p1070
(VDUDLEY ST
p1071
I75
I15830
tp1072
sVCRANSTON CARBIDE
p1073
(g572
I83
I15817
tp1074
sVWES TMINSTER
p1075
(g63
I84
I15991
tp1076
sVMATHEW SON
p1077
(VMATTHEW ST
p1078
I86
I17587
tp1079
sS'BROAD AND 600 N MAIN'
p1080
(S'BROAD ST'
p1081
I72
I15793
tp1082
sS'BRANCH AV  WERIIINAIB FOR ELECTRIC'
p1083
(S'TERMINAL RD'
p1084
I44
I16838
tp1085
sS"ALLEN'S AV, TEL DEXTER 1-0051"
p1086
(g878
I67
I17198
tp1087
sVAIWELLS AV
p1088
(g146
I86
I15775
tp1089
sS'KNIGHT HALL BARBER SHOP INC 62 WASHINGTON RC JOSEPH N 642 BROAD'
p1090
(g894
I66
I15987
tp1091
sVCARPENTER'
p1092
(g706
I93
I15801
tp1093
sS"WESTMINSTER T'R306"
p1094
(g5
I90
I15991
tp1095
sVWESTMINSTER R301, TEL GASPEE 1-6010
p1096
(g63
I77
I15991
tp1097
sVI POCASSET AV CLEANING COMPOUNDS-MANU- F ACTURERS
p1098
(VCOMPTON ST
p1099
I51
I17450
tp1100
sS'ANGELL LEWIS B 199 THAYER BRADFORD M S 672 BROAD ALF L 171 ANGELI'
p1101
(S'BRADFORD ST'
p1102
I64
I15790
tp1103
sS'WESTMMS- TER ST'
p1104
(g501
I76
I15991
tp1105
sS'HEDWNY, TEL UNLON 1-6800'
p1106
(S'HENRY ST'
p1107
I56
I16691
tp1108
sVWESTMINSTER R8 24
p1109
(g63
I88
I15991
tp1110
sVMASON, TEL PLANTATIONS 1-9776
p1111
(g106
I56
I15978
tp1112
sVCAN-
p1113
(g511
I65
I15798
tp1114
sS'BRODWAY, TELS UNION - 1-5713 SLID JACKBON 1-9452'
p1115
(S'BROADWAY ST'
p1116
I62
I15794
tp1117
sVAND RIGHT TOP LINES ..
p1118
(VBRIGHTON ST
p1119
I65
I17781
tp1120
sS'PUTNAM  *AIR CONDITIONING SALES AND'
p1121
(S'CONSTITUTION HILL ST'
p1122
I54
I16121
tp1123
sS'WESTMINSTER R1030 MAS ARTH A 170 WESTMINSTER R1002 MAS RAYMOND H 49 WESTMINSTER R314 PSON C WILLIS 66 S MAIN MPSON RICHD L 15 WESTMINSTER R1030 RUN ROBT O 111 WESTMINSTER R1231 GHLST, COLLINS & TANNER, 1030 HOSPI- TALITRUST BLDG 15 WESTMINSTER, TEL TEMPLE 1-7400'
p1124
(g5
I55
I15991
tp1125
sS'CHARLTON, EVE- RETT, MASS, TEL DUNKIRK 9-0076'
p1126
(S'CARLETON ST'
p1127
I63
I17427
tp1128
sVMATHEWSON R1
p1129
(g362
I91
I15904
tp1130
sV-27 HEWES  *FURNITURE MANUFACTURERS- WROUGHT IRON
p1131
(g461
I48
I16308
tp1132
sVF OUNT AIN  I'CHILDREWS AND INFANTS' CLOTHING-RETAIL
p1133
(VHILLCREST AVE
p1134
I48
I17898
tp1135
sVPECK, TEL GASPEE 1-1358
p1136
(g267
I72
I15863
tp1137
sVBROADWAY. TEL GASPEE 1-0456 *TITLE INSURANCE
p1138
(g667
I49
I15850
tp1139
sVEDDY OSTEOPATHIC PHYSICIANS
p1140
(VJOSEPHINE ST
p1141
I50
I16262
tp1142
sVWEST- MINSTER R8 10
p1143
(g63
I76
I15991
tp1144
sVKINSLEY AV, TEL GASPEE 1-5065
p1145
(VKINSLEY AVE
p1146
I78
I15889
tp1147
sS'VAILEY ST. 02909. TEL 421-9382'
p1148
(S'VALLEY ST'
p1149
I63
I17693
tp1150
sVWESTMINSTER R733 HOUSEHOLD EQUI PMEN T
p1151
(g63
I77
I15991
tp1152
sS'ONTARIO NATURE FOOD CENTERS OF RHODE ISLAND INC'
p1153
(S'ONTARIO ST'
p1154
I66
I17277
tp1155
sVELMWOOD'AV. TEL HOPKINS 1-0086
p1156
(g211
I77
I17207
tp1157
sS"MAN- 'TONAV"
p1158
(S'MANTON AVE'
p1159
I69
I17947
tp1160
sVPALMER  *PERSONAL LOANS
p1161
(VPATERSON ST
p1162
I65
I17069
tp1163
sS"ALLEN'S AV, GZE; GASPEE 1-6079"
p1164
(g407
I67
I15863
tp1165
sVS WEYBOGSET, TEL
p1166
(g28
I77
I15992
tp1167
sS"EDDY RT'S BARBER SHOP 71 MANTON AV"
p1168
(S'BARBERRY HILL RD'
p1169
I59
I16896
tp1170
sS'BASWOOD AVE'
p1171
(S'BASSWOOD AVE'
p1172
I94
I17395
tp1173
sVWEYBOSSET R607
p1174
(g28
I88
I15992
tp1175
sV; MIDDLEBROOK INC. ROOM 14.
p1176
(VMIDDLE DR
p1177
I60
I16339
tp1178
sS'IANTHE  AUTOMOBILE TRIMMERS AND'
p1179
(S'BUTTONHOLE DR'
p1180
I48
I17790
tp1181
sS'DORRANCE 10TH FL'
p1182
(g483
I87
I15829
tp1183
sS"CUSTOM HOUSE. TEL GASNEE 1-69'00"
p1184
(g2
I80
I15820
tp1185
sVAND RIGHT BOTTOM NINES)
p1186
(VBLOOM ST
p1187
I56
I16062
tp1188
sVATWELLS AV 3D FL
p1189
(g146
I87
I15775
tp1190
sVBURNETT
p1191
(VBURNETT ST
p1192
I91
I17172
tp1193
sS'JACKSON WALKWAY SUITE 18'
p1194
(g611
I88
I15884
tp1195
sVELM-
p1196
(VELM ST
p1197
I83
I15837
tp1198
sV1500 BROAD
p1199
(g189
I78
I15793
tp1200
sVMATHEWSON. TEL GASPEE 1-58M '
p1201
(g362
I79
I15904
tp1202
sVWESTMINSTER; MT PLEAS ANT OFFICE 1082 CHALK- STONE, SIX OTHER CONVENIENT COM- MUNITY OFFICES IN BARRINGTON, CRANSTON, CENTREDALE, PAWTUCKET AND GREENVILLE
p1203
(g63
I58
I15991
tp1204
sVCRAN- 5 TON
p1205
(g572
I67
I15817
tp1206
sVTROY 3D
p1207
(VTROY ST
p1208
I85
I18078
tp1209
sVMATHEWSON, TEL JACKSON 1-9800; BRANCH 475 ANGELL CHINA, CROCKERY, GLASSWARE AND EARTHENWARE-RETAIL
p1210
(VCARTERET ST
p1211
I40
I17428
tp1212
sVCLEMENCE
p1213
(VCLEMENCE ST
p1214
I92
I15810
tp1215
sVWEYBOS- SET, TEL GASPEE 1-7255
p1216
(g28
I67
I15992
tp1217
sVWEYBOSSET R328
p1218
(g28
I88
I15992
tp1219
sVAND LEFT TON LINES)
p1220
(VLINDEN AVE
p1221
I58
I17247
tp1222
sS'-0100'
p1223
(S'10TH ST'
p1224
I43
I16868
tp1225
sVAND LEFT SIDE LILIES)
p1226
(g1064
I57
I16355
tp1227
sVDRANSTON
p1228
(g572
I81
I15817
tp1229
sS'WEYBOSSET R701 VAN HENRY R 87 WEYBOSSET R428'
p1230
(g54
I71
I15992
tp1231
sV610 PLAINFIELD IMPORTERS
p1232
NsS"FOUNTAIN. TEL DEXTEI' 1-0600"
p1233
(S'FOUNTAIN ST'
p1234
I77
I15853
tp1235
sVBROAD LEATHER DEALERS
p1236
(VSLATER AVE
p1237
I64
I17100
tp1238
sVAFL C10 86 WEYBOSSET ROOMS 58-59
p1239
(g28
I75
I15992
tp1240
sVCUSTOM HOUSE R202 HO USE FURNISHING GOODS- RETAIL
p1241
(VCUSHING ST
p1242
I52
I16130
tp1243
sS'CHESTNUT. TELS DXXTER 1-0254 AID DEXTER 1-2253'
p1244
(g92
I69
I15807
tp1245
sS"WESTMIN- .- LTER, TEL TEMPLE 1-750'0"
p1246
(g5
I65
I15991
tp1247
sVAD-
p1248
(VADA ST
p1249
I65
I16003
tp1250
sVEDDV
p1251
(VEDDY ST
p1252
I65
I15834
tp1253
sVPLAINFIELD *WALL COVERINGS-CLOTH, SANITAS, WALL-TEX AND WALL CANVAS
p1254
(VPLAINFIELD ST
p1255
I67
I17994
tp1256
sVDOUG- LAS
p1257
(g435
I73
I16154
tp1258
sS"ARCADE BLDG MEN'S BARBER SHOP 6809; CRANSTON CIOLLA JOHN 1110 CHALKSTONE AV ESSA NICHOLAS 191 PRAIRIE AV ESSA'S BARBER SHOP 939 BROAD ESSA'S BARBER SHOP 976 WESTMINSTER RBERETTE THE 5 ARCADE BLDG SILE ORAZIO M 165 PINE ROSIAN PETER H 46 CRANSTON NNY'S HAIR DRESSING PARLOR 223 PLAIN- FIELD"
p1259
(g43
I54
I15991
tp1260
sVINDIANA AV
p1261
(VINDIANA AVE
p1262
I97
I16702
tp1263
sVALLEN'S AV, TEL WILLIAMS 1-7600
p1264
(VBETSEY WILLIAMS DR
p1265
I75
I16590
tp1266
sVATWELLS AV BLUE PRINTS
p1267
(g146
I83
I15775
tp1268
sS'CHARLES. TE TEMPLE 1-6233'
p1269
(g330
I76
I16096
tp1270
sVWEST- MINSTER R215
p1271
(g63
I77
I15991
tp1272
sVLIVINGSTON *ICE CREAM-RETAIL AND WHO LESALE
p1273
(VLIVINGSTON ST
p1274
I72
I16287
tp1275
sVWEYBOSSET R25
p1276
(g28
I90
I15992
tp1277
sS'WASHING- TON R311'
p1278
(S'WASHINGTON PL'
p1279
I79
I15986
tp1280
sVAND 200 WASH
p1281
(g779
I51
I17712
tp1282
sVPOE ENGRAVERS-COMMERCIAL
p1283
(VCOMMERCIAL DR
p1284
I77
I16114
tp1285
sVEDDY 2D FL
p1286
(g1252
I79
I15834
tp1287
sS'7 WESTMINSTER'
p1288
(g5
I90
I15991
tp1289
sVWATERMA'N
p1290
(g342
I84
I15988
tp1291
sS'HOSPITAL TRUST BLDG, TEL GASPEE 1-6202'
p1292
(S'HOSPITAL ST'
p1293
I73
I15878
tp1294
sS'JUNL'
p1295
(S'JUNE ST'
p1296
I65
I16264
tp1297
sVWEYBWSET, TEL GASPEE 1-6047
p1298
(g28
I64
I15992
tp1299
sVHUNTINGTON AV
p1300
(VHUNTINGTON AVE
p1301
I98
I17236
tp1302
sVDORANCE R502
p1303
(g605
I81
I15829
tp1304
sVPARADE, TEL
p1305
(VPARADE ST
p1306
I92
I17278
tp1307
sS'HOSPITAL TRUST BLDG 15 WESTMINSTER STREET'
p1308
(g501
I75
I15991
tp1309
sVCONVENT APT 2
p1310
(VCONVENT ST
p1311
I89
I17451
tp1312
sS'NIS- BET'
p1313
(S'NISBET ST'
p1314
I71
I17055
tp1315
sV3 2 VINTON
p1316
(VVINTON ST
p1317
I81
I15981
tp1318
sV, 37-39 NARRANGANSETT
p1319
(VNARRAGANSETT ST
p1320
I83
I16747
tp1321
sS'CARO- LINA AV'
p1322
(S'CAROLINA AVE'
p1323
I79
I16085
tp1324
sS'), TEL- 831-1599'
p1325
(g721
I46
I15880
tp1326
sVWESTMINSTER R606
p1327
(g63
I90
I15991
tp1328
sVWESTMINSTER R601
p1329
(g63
I90
I15991
tp1330
sVWESTMINSTER R603
p1331
(g63
I90
I15991
tp1332
sVPRAIRIE
p1333
(VPRAIRIE AVE
p1334
I89
I16787
tp1335
sS'OXFORD. TEL SMART 1-4145'
p1336
(S'OXFORD ST'
p1337
I78
I16764
tp1338
sS"INDUSTRIAL BANK BLDG, TEL GASPEE 1-8723  'ASSOCIATIONS AND CLUBS-"
p1339
(S'UNION STATION ST'
p1340
I47
I15978
tp1341
sVANGEU
p1342
(VORANGE ST
p1343
I65
I15921
tp1344
sS'WATERMAN R104 ) GNU MILTON G 210 ANGELM I LWASIGMXLJ. VINCENT P AM BROADWAY MEMW'
p1345
(S'WASHINGTON AVE'
p1346
I37
I16854
tp1347
sS'WOONS- - AVE'
p1348
(S'WOODLAWN AVE'
p1349
I69
I16551
tp1350
sVCRANSTON, TEL GASPEE 1-0788
p1351
(g572
I77
I15817
tp1352
sS'DOMNCE. TEL GASPEE 1-0909'
p1353
(S'DOME ST'
p1354
I59
I17469
tp1355
sVC10 241 WEYBOSSET R313
p1356
(g28
I79
I15992
tp1357
sS'WESTMINV STER R42  AUTOMOBILE ACCESSORIES AND'
p1358
(S'ACCESS RD 3'
p1359
I50
I16002
tp1360
sS'WEYBOSSET, TEL GASPEE 1- 5074'
p1361
(g54
I78
I15992
tp1362
sS'JACKSON AND 254 WASHINGTON  L*ORNAMENTAL IRON AND STEEL'
p1363
(g894
I69
I15987
tp1364
sVWASH-
p1365
(g779
I60
I17712
tp1366
sS'WESTMINSTEWL'
p1367
(g5
I82
I15991
tp1368
sS'DORRANCE ST, R718'
p1369
(g315
I90
I15829
tp1370
sS"ALLEN'S AV. TEL WILLINMS 1-7600"
p1371
(g393
I67
I16590
tp1372
sS'-59 CHE STNUT  STAMPING WORKS AND DIE'
p1373
(S'COLD SPRING ST'
p1374
I54
I16927
tp1375
sVBUCKLIN
p1376
(g229
I91
I17171
tp1377
sVWEYBOSSET TELEVISION EQUIPMENT-SALES AND SERVICE
p1378
(VNELSON TERR
p1379
I47
I16356
tp1380
sVBROAD AND 195 WAYLAND AV
p1381
(VWAYLAND AVE
p1382
I78
I17125
tp1383
sV99 830 WESTMINSTER
p1384
(g63
I84
I15991
tp1385
sS"MIN, CRUSTAL, R 1, MAIL AD- TALL-P'O BOX 905; PRDVLDENCE 1. R I. TIL LT-RT 1-0100"
p1386
(S'PROVIDENCE ST'
p1387
I51
I17299
tp1388
sVWESTMIN- STER R32
p1389
(g63
I79
I15991
tp1390
sVRANDALL  DISINFECTANTS
p1391
(VALICANT ST
p1392
I51
I17369
tp1393
sS'-5400'
p1394
(S'I 95'
p1395
I29
I15881
tp1396
sS'CHARLEOST'
p1397
(S'CHARLES ST'
p1398
I86
I16096
tp1399
sS"SPRAGUE  'INFANTS' AND CHILDREWS"
p1400
(S'LANCASHIRE ST'
p1401
I48
I17559
tp1402
sS'POWEJ RD, FACTORY 310 OWEIX AV'
p1403
(S'OBSERVATORY AVE'
p1404
I53
I17058
tp1405
sVGEORGIA AV, TELS STUART 1-1134, 1-1135
p1406
(VGEORGIA AVE
p1407
I73
I16671
tp1408
sVSMITH, IELS DEXTER 1-0569, EVENINGS DEXTER 1-1119 AND JACKSON 1-0072
p1409
(VMEETING ST
p1410
I45
I15907
tp1411
sVWASH R214  * TAPES- PRESSURE SENSITIVE
p1412
(VEASTER ST
p1413
I45
I16161
tp1414
sVKIMBAU
p1415
(VKIMBALL ST
p1416
I70
I17556
tp1417
sVPRAIRIE AV, TEL GASPEE 1-9182
p1418
(g1334
I78
I16787
tp1419
sS"S MAIN HADASSAH BARGAIN OUTLET 226 BROAD IDEAL SECOND HAND STORE 230 PLAIN IZZO'S SECOND HAND STORE 269 THURBERS AV JIM,S USED FURNITURE 298 BLACKSTONE LADD FURNITURE & MOVING CO INC 929-939 WESTMINSTER MEDWIN BENJ B 678 WESTMINSTER NYE RAYMOND G 89 BROOK"
p1420
(g5
I55
I15991
tp1421
sS"), TELS' 467-2765 942-8571"
p1422
(S'ATWELLS AVE'
p1423
I51
I15775
tp1424
sVPROMENADE, TEL DEXTER 1-4200
p1425
(VPROMENADE ST
p1426
I78
I17630
tp1427
sVTRANS IT
p1428
(VTRANSIT ST
p1429
I80
I15975
tp1430
sS'STEVENS ..'
p1431
(S'STEUBEN ST'
p1432
I71
I18056
tp1433
sV0
p1434
(V10TH ST
p1435
I32
I16868
tp1436
sS'MILL. JOHNSTON. R 1, TEL WNNAMS 2-21000'
p1437
(S'JOHNSON ST'
p1438
I66
I16707
tp1439
sVROCHAMBEAU AV
p1440
(g672
I98
I17088
tp1441
sVWESTMINSTER, TEL DEXTER 1-4542
p1442
(g63
I80
I15991
tp1443
sVEMPIRE R202
p1444
(g217
I85
I15840
tp1445
sVWEYBOSSET 6TH FL
p1446
(g28
I89
I15992
tp1447
sVEMPIRE R207
p1448
(g217
I85
I15840
tp1449
sVEMPIRE R206
p1450
(g217
I85
I15840
tp1451
sVCNARLES
p1452
(g730
I78
I16096
tp1453
sS'HIG- GINSON AVE'
p1454
(S'HIGGINS AVE'
p1455
I75
I17528
tp1456
sVWEST- MINSTER; 146 WESTMINSTER; 244 WEYBOSSET; 238 THAYER; 434 SMITH AND 1 OLNEYVILLE SQ
p1457
(g63
I64
I15991
tp1458
sS'WESTMINSTER STRM609'
p1459
(g716
I92
I15991
tp1460
sVWESSER
p1461
(VMESSER ST
p1462
I75
I17961
tp1463
sVAND 51 BASSETT  LACES AND EMBROIDE RIES- MANUFACTURERS
p1464
(g461
I47
I16308
tp1465
sVCROOIN
p1466
(VCAROLINE ST
p1467
I65
I16086
tp1468
sVALLEN'S AV. TEL WNUAMS 1-0050
p1469
(g1265
I46
I16590
tp1470
sVWEMET. TEL STUART 1-0100
p1471
(VSTATE HWY 10
p1472
I59
I17332
tp1473
sS'WESTMINSTER   *PAYROLL AND CHECK CASAN ;'
p1474
(g43
I76
I15991
tp1475
sVBATH, TEL JACKSON 1-2670
p1476
(g848
I74
I16253
tp1477
sS'&TV 10'
p1478
(S'RUTHVEN ST'
p1479
I42
I17092
tp1480
sVBRIDGHAM. TEL GASPEE 1-1214
p1481
(VBRIDGHAM ST
p1482
I77
I17169
tp1483
sS'S WATER PROVIDENCE SFEAMBOAT CO 1 INDIA  WIPE AND BOILER'
p1484
(g1387
I68
I17299
tp1485
sVRODNEY CT
p1486
(VBARONE CT
p1487
I72
I16045
tp1488
sVCHAPMAN *GENERAL CONTRACTORS
p1489
(VCONCORD ST
p1490
I52
I16119
tp1491
sS'CANAL UNIVERSAL CARLOADING & DISTRIBUTING CO 210 CANAL'
p1492
(g1122
I45
I16121
tp1493
sVEXCHANGE PL
p1494
(VEXCHANGE ST
p1495
I91
I15845
tp1496
sVWESTMINSTER, ROOM 603, TEL'S GASPEE 1-8284 AND 1-8285 '
p1497
(g63
I70
I15991
tp1498
sVCHALKSTONE AV
p1499
(g126
I98
I17433
tp1500
sVBENEFIT *SAFE DEALERS- RETAIL
p1501
(g937
I77
I15781
tp1502
sVCUSH- ING AND 216 HOPE  SCIENTIFIC INSTRUMENTS- MANUFAC TURERS
p1503
(VPOINT STREET BRG
p1504
I45
I16403
tp1505
sVWASH R307
p1506
(g779
I58
I17712
tp1507
sS"MILES FRON'L MES). B'EAUU'MNY FURNISHED.  HAM. 3 1. TEL PAWTUCKET Z- 5800"
p1508
(S'CROWNINSHIELD ST'
p1509
I44
I17811
tp1510
sVGOVERNOR 7
p1511
(VGOVERNOR ST
p1512
I93
I16983
tp1513
sS'-134 FOUNTAIN, TEL GASPEE 1-9785'
p1514
(g1234
I74
I15853
tp1515
sS'DUAEY, TEL DEXTER 1-7880'
p1516
(S'DEXTER ST'
p1517
I72
I17198
tp1518
sVATWELLS
p1519
(g146
I89
I15775
tp1520
sVKNIGUT
p1521
(VKNIGHT ST
p1522
I75
I15890
tp1523
sVWEYBOSSET R5
p1524
(g28
I91
I15992
tp1525
sVWEYBOSSET R4
p1526
(g28
I91
I15992
tp1527
sVWEYBOSSET R1
p1528
(g28
I91
I15992
tp1529
sVWESTMINSTER R904A  *MASTER BUILDERS PRODUCTS
p1530
(g63
I75
I15991
tp1531
sVWEYBOSSET R2
p1532
(g28
I91
I15992
tp1533
sS"-27 HEWES  'FURNITFJRE PACKERS AND"
p1534
(S'FURNACE ST'
p1535
I49
I15860
tp1536
sVCLIFFORD ENGRAVERS-JEWELRY
p1537
(VTRAVERSE ST
p1538
I54
I17117
tp1539
sV-5450; WASHINGTON
p1540
(g137
I85
I15986
tp1541
sS'HARRISAV'
p1542
(g223
I87
I15869
tp1543
sS'EXCHANGE R408'
p1544
(S'EXCHANGE TER'
p1545
I90
I15846
tp1546
sVMATHEWSON, TEL
p1547
(g362
I94
I15904
tp1548
sS'WESTMINSTER ST. RM 915'
p1549
(g501
I90
I15991
tp1550
sV127 DORRANCE
p1551
(g605
I85
I15829
tp1552
sVN MAIN COR WASHING- TON PL
p1553
(g137
I72
I15986
tp1554
sVINC
p1555
(VFINCH AVE
p1556
I62
I16180
tp1557
sVWEYBOSSET
p1558
(g28
I93
I15992
tp1559
sS'SMITHFIELD AV, LINCOLN. RI'
p1560
(S'SMITHFIELD AVE'
p1561
I84
I16458
tp1562
sVDORRANCE R3 05
p1563
(g605
I86
I15829
tp1564
sVWASHINGTON AV INFORMATION BUREAUS
p1565
(VNORMAN DR
p1566
I54
I16362
tp1567
sVWESTMINSTER, PROVIDENCE, TEL ELMHURST 1-5800; DOWNTOWN OFFICE 20 WESTMINSTER; MT PLEASANT OFFICE 1082 CHALKSTONE, SIX OTHER CONVENIENT COMMUNITY OFFICES IN HARRINGTON, CRANSTON, CENTREDALE, PAWTUCKET AND GREENVILLE
p1568
(g63
I56
I15991
tp1569
sVBROWNE CO, INC, 2 ALLENS AV, TEL GASPEE 1-6079
p1570
(VBROWN ST
p1571
I61
I16073
tp1572
sVMATHEWSON 3D FL L'BURGLAR AND FIRE ALARM NOTIFICATION, WATCHMAN'S SUPERVISORY SERVICE
p1573
(g106
I44
I15978
tp1574
sVW EXCHANGE PL, TEL GASPEE 1-7333
p1575
(g859
I80
I15982
tp1576
sS"FRA'NCISST"
p1577
(S'FRANCIS ST'
p1578
I76
I17503
tp1579
sS'WATERMAN *UTTRER HENRY E 122 WATERMAN), UTTER WILSON F 1224WATERMAM *VLALENTINO- ANGELO G 354 BROADWAY *VARGAS LESTER L 154 WATERMAN WEMM ANTHONY C 185 BROADWAY VCRSACI ARMAND D 314 ANGEUL VESEY JOHN M 1196 ELMWOOD AV VIGIFAM MARIO US SMITH.'
p1580
(g220
I39
I15988
tp1581
sS'BROAD. RI DEXTER 1-9200'
p1582
(g878
I72
I17198
tp1583
sS'-5TH  CONTRACTORS-EXCAVATING AND GRADING'
p1584
(g356
I50
I16119
tp1585
sVGASPEE 1-1091
p1586
(g267
I82
I15863
tp1587
sV131 WASHINGTON R313
p1588
(g137
I84
I15986
tp1589
sVWELLING-
p1590
(g85
I74
I17352
tp1591
sS'STANTON AV. TEL F GASPEE 1-3229'
p1592
(S'STANTON ST'
p1593
I72
I18051
tp1594
sVUATLANTIC AV  *TOWEI.S AND HAND DRYERS- ELECTRIC
p1595
(g486
I66
I16035
tp1596
sS"1'- ELTMINSTER R1130"
p1597
(g5
I74
I15991
tp1598
sS'BATH, TEL DEXTER 1-0400'
p1599
(g1517
I72
I17198
tp1600
sVEXCHANGE PL TELE PHONE GASPEE 1-6822 *CITY DIRECTORY PUBLISHERS
p1601
(VNOT A PUBLIC WAY
p1602
I44
I17057
tp1603
sVWAMPANOAG TRAIL, EAST PROVIDENCE, TEL GENEVA 4-7400
p1604
(g101
I69
I17299
tp1605
sVINDUSTRIAL BANK BLDG 111 WEST- MINSTER, TELS GASPEE 1-9800, 1-4263
p1606
(g746
I67
I16249
tp1607
sS'IONA AND 118 CENTRAL AV'
p1608
(S'CENTRAL AV'
p1609
I80
I18833
tp1610
sVMATHEWSON
p1611
(g362
I93
I15904
tp1612
sVFORD AND 157 WATERMAN
p1613
(g342
I75
I15988
tp1614
sVCRANSTON SCALP TREATME NTS
p1615
(g572
I79
I15817
tp1616
sVMILL , JOHNSTON. M. TEL JACKSON 1-2704 BEE YELLOW' PAG'E45 AND LEFT BOTTOM LINES)
p1617
(g382
I58
I16707
tp1618
sVWASHINGTON AV CLERGYMEN
p1619
(VWASHINGTON AVE
p1620
I88
I16854
tp1621
sS'). TEL 484-3453'
p1622
(S'I 95'
p1623
I29
I15881
tp1624
sVBRANCH AV, TEL DEXTER 1-5731
p1625
(g60
I77
I16067
tp1626
sS'BROAAWAY'
p1627
(g1116
I81
I15794
tp1628
sVBROAD, TEL UNIM 1-3883
p1629
(g189
I74
I15793
tp1630
sS'), TEL 881-0248'
p1631
(S'4TH ST'
p1632
I25
I16874
tp1633
sS'WESTMIN- STER, TEL TEMPLE 1-7500'
p1634
(g5
I68
I15991
tp1635
sV-44 CHARLES
p1636
(g730
I85
I16096
tp1637
sVWESTMINSTER CLOTHING-WOMEN,S-WHOLE- SALE
p1638
(g63
I74
I15991
tp1639
sS'ATWELLS AV HFRANCESCO GIACOMO 501 CRANSTON LARDO HENRY R 898G. ATWELLS AV LETTI FELICE 101 SPRUCE LUMBIA BARBER SHOP 738 BROAD'
p1640
(S'FRANCIS AVE'
p1641
I43
I16187
tp1642
sVSHERBURRFE
p1643
(VSHERBURNE ST
p1644
I78
I16819
tp1645
sS'CHALK- STONE AVE'
p1646
(S'CHALKSTONE AVE'
p1647
I82
I17433
tp1648
sVWESTMINSTER, TEL GASPEE 1-6111
p1649
(g63
I80
I15991
tp1650
sVBUCKLIN  PICTURE FRAMES AND PICTURES- DEALERS
p1651
(g390
I49
I15976
tp1652
sS'SABIN'
p1653
(S'SABIN ST'
p1654
I88
I7024
tp1655
sS'1'
p1656
(g458
I41
I15880
tp1657
sV93 LAURA
p1658
(VLAURA ST
p1659
I81
I17243
tp1660
sS'WATE RMAN  *LABORATORY APPARATUS AND'
p1661
(S'LIBRARY RD'
p1662
I56
I17565
tp1663
sS'WESTMINSTER R917 TCHER HAROLD W 76 WESTMINSTER R911'
p1664
(g5
I70
I15991
tp1665
sVTHAVER
p1666
(g152
I75
I17112
tp1667
sS'AT- WELLS AVE'
p1668
(g449
I89
I15775
tp1669
sS'NMAINST'
p1670
(S'MARVIN ST'
p1671
I68
I17952
tp1672
sVWEYBOSSE'I', TEL GASPEE 1-5074'
p1673
(g28
I74
I15992
tp1674
sV-2051
p1675
(g396
I29
I15881
tp1676
sVCRANSTDN
p1677
(g572
I81
I15817
tp1678
sS'CO 15 WESTMINSTER'
p1679
(g43
I85
I15991
tp1680
sVC0 387 CHARLES BLDG 4 4TH FL
p1681
(g730
I73
I16096
tp1682
sS'VALLEY, TEL 1-5530'
p1683
(S'VALLEY ST'
p1684
I81
I17693
tp1685
sVPOWER ORGANIZATIONS-LABOR
p1686
(VCOMMUNICATIONS PL
p1687
I59
I15813
tp1688
sVPAPER CO 49 RATHBONE
p1689
(VRATHBONE ST
p1690
I76
I17637
tp1691
sVDYER AV. CRANSTON, TEL ELMHURST 1-5200 '
p1692
(g572
I73
I15817
tp1693
sS'WATERMAN 1MM F 485 BROADWAY 3 MAM 462 BROADWAY 1 WHEN FRANCISCO 170 WATERMAN IGMKMEZSSGOMOR IMMN 201ME'
p1694
(S'MESSENGER ST'
p1695
I34
I15909
tp1696
sS'WASHINGTON R215  DRESS TRIMMINGS AND BRAIDS-'
p1697
(S'WASHINGTON ST'
p1698
I73
I15987
tp1699
sVEDDY 25 FL
p1700
(g1252
I79
I15834
tp1701
sV& MANTON AV
p1702
(g529
I97
I17947
tp1703
sVUNION TRUST BUILDING 170 WESTMINSTER
p1704
(g63
I72
I15991
tp1705
sVWEST- MINSTER R719
p1706
(g63
I77
I15991
tp1707
sS"SHEPLEY INC. 17 CUSTOM HOUSE, TEL GASPEE 1-69'00"
p1708
(S'STEEPLE ST'
p1709
I50
I15962
tp1710
sVCANAL 3D FL
p1711
(VCANAL WALK
p1712
I83
I15799
tp1713
sVWAMPANOAG TRAIL TRAIL. EAST PROVIDENCE, TEL GENEVAI 4-7400
p1714
(g101
I67
I17299
tp1715
sVWESTMINSTER R701
p1716
(g63
I90
I15991
tp1717
sS"WESTMINSTER, TEL GASPEE 1-1141'"
p1718
(g43
I80
I15991
tp1719
sS'WEST- NULTER'
p1720
(S'CENTER PL'
p1721
I58
I15804
tp1722
sVCANAL, TEL DEXTER 1-0466
p1723
(g602
I72
I17198
tp1724
sS'FOUNTAIN STRMSOL'
p1725
(S'FOUNTAIN ST'
p1726
I90
I15853
tp1727
sS'WELTMINSTER ST'
p1728
(g716
I92
I15991
tp1729
sVEXCHANGE PL, TEL GASPEE 1-8625 LETTER SHOPS
p1730
(g201
I72
I15846
tp1731
sS'MORITAN AV, JOHNSTON, R 1, TEL ELMHURST 110700 FEDERAL DAIRY CO INC 83 GREENWICH'
p1732
(S'GREENWICH ST'
p1733
I60
I17220
tp1734
sS'ACORN, TEL GASPEE 1- 5812'
p1735
(g407
I72
I15863
tp1736
sVWESTMINSTER, TEL GASPEE 1-0566
p1737
(g63
I80
I15991
tp1738
sS'EDDY  CORDAGE AND TWINE-'
p1739
(S'ORANGE ST'
p1740
I61
I15921
tp1741
sS'HARRIS AV  ELECTRICAL EQUIPMENT AND'
p1742
(g782
I50
I17930
tp1743
sVDOR- RANCE COR WASHINGTON, TEL GASPEE 1-9200
p1744
(g1620
I73
I16854
tp1745
sS'811- NX- LPRLLX, TEL UNLON 1-1356'
p1746
(S'PARNELL ST'
p1747
I46
I17987
tp1748
sS'LONGFELLOW TER  LAUNDRY SUPPLIES AND'
p1749
(S'LONGFELLOW TER'
p1750
I78
I17252
tp1751
sS'EN- FIELD AV AND 518 VALLEY'
p1752
(S'VALLEY ST'
p1753
I67
I17693
tp1754
sVWESTMINSTER R837
p1755
(g63
I90
I15991
tp1756
sVWEST- MINSTER R609
p1757
(g63
I77
I15991
tp1758
sVBRDADWAY
p1759
(g546
I81
I15794
tp1760
sVJEFFERSON
p1761
(VJEFFERSON ST
p1762
I93
I17548
tp1763
sS'BROADWAY *TMTT RAYMOND H 213 WATER- *TURNER HOWARD K 199 THAYER- WM JOHN II 154 WATERMAN'
p1764
(S'GRAND BROADWAY'
p1765
I61
I16209
tp1766
sVFRANKLIN R101
p1767
(VFRANKLIN SQ
p1768
I87
I15856
tp1769
sVHEMLOCK
p1770
(VHEMLOCK ST
p1771
I91
I17525
tp1772
sVELMWOOD AND 8 0 MANTON AV
p1773
(g211
I78
I17207
tp1774
sVATWELLS AV, TEL DEXTER 1-9550; BRANCH 2895 POCASSET AV, TEL TEMPLE 1-4785
p1775
(g248
I64
I17995
tp1776
sVSIMS AV, TEL GASPEE 1-0173
p1777
(g267
I70
I15863
tp1778
sS'PLAINFIELD  ICE CREAM AND FROZEN'
p1779
(S'PLAINFIELD ST'
p1780
I75
I17994
tp1781
sVEMPIRE R210
p1782
(g217
I85
I15840
tp1783
sVBEVERLY AND 101 SABIN
p1784
(VBEVERLY ST
p1785
I79
I15783
tp1786
sVPEAC
p1787
(VPEACE ST
p1788
I78
I17286
tp1789
sVPINIE 3D FL
p1790
(VPINE ST
p1791
I72
I15933
tp1792
sVDELAINLE
p1793
(g540
I85
I17822
tp1794
sS'WALDO. TEL STUART 1-5050'
p1795
(S'STEWART ST'
p1796
I56
I15963
tp1797
sS'TROV ST'
p1798
(S'TROY ST'
p1799
I80
I18078
tp1800
sS'*COPPER WIRE AND CABLE'
p1801
(S'OPPER ST'
p1802
I66
I16379
tp1803
sVAND 118 DORRANCE
p1804
(g605
I79
I15829
tp1805
sVWEYBOSSZ'R, ROOM 29. TEL GA'LM 9909.2
p1806
(g28
I60
I15992
tp1807
sVWESTMINSTER R936A
p1808
(g63
I88
I15991
tp1809
sS'MASONST'
p1810
(S'MADISON ST'
p1811
I76
I17255
tp1812
sVBROAD R10
p1813
(g189
I85
I15793
tp1814
sS'WESTNILUTER, TEL JACHON 1-8700; COR- NET DORRANCB AND WESTMINSTER, 244 WEYBOUET, 238 THXYER, 1 OLNEYVULE SQ AND 434 SMITH'
p1815
(g43
I47
I15991
tp1816
sVABBOTT
p1817
(VABBOTT ST
p1818
I90
I16880
tp1819
sS"DORRANCE AND 11 ARCADE BLDG. TEL'GAADEE 1-1064"
p1820
(S'DORRANCE ST'
p1821
I68
I15829
tp1822
sV-24 RANDALL
p1823
(VRANDALL RD
p1824
I85
I16415
tp1825
sVALEPPO  * LUGGAGE -RE TAIL
p1826
(VGAGE ST
p1827
I57
I17861
tp1828
sVANTHONV AV
p1829
(VANTHONY AVE
p1830
I86
I17155
tp1831
sS'EMPIRE R319  LWBOOKS, NEWSPAPERS AND'
p1832
(S'NAPLES AVE'
p1833
I47
I17602
tp1834
sVWESTMINSTER R 214 ORGANIZATIONS-PATRIOTIC
p1835
(g1687
I52
I15813
tp1836
sVWESTMINSTER RIOOG
p1837
(g63
I88
I15991
tp1838
sVVALLEY BLDG 2
p1839
(VVALLEY GREEN CT
p1840
I82
I16512
tp1841
sVPECK, TEL DEXTER 1-1400
p1842
(g602
I72
I17198
tp1843
sVEOMWOOD AV
p1844
(g211
I86
I17207
tp1845
sS'REFRIGERATING CONTRACTORS 25 BATH, TEL EIUMHURST 1-6396'
p1846
(S'MEETING ST'
p1847
I44
I15907
tp1848
sS"INDUSTRIAL BANK BLDG. TEL GASNEE ' 1-8723"
p1849
(S'INDUSTRIAL DR'
p1850
I73
I16249
tp1851
sS'DOUGLAS AV LECLLFFE FOUNDRY CO 153 PUBLIC'
p1852
(S'ELLEN LN'
p1853
I45
I16168
tp1854
sS'A WATERMAN ST'
p1855
(g594
I96
I15988
tp1856
sVHOPE, TEL GASPEE 1-9879
p1857
(g267
I72
I15863
tp1858
sVGORDON AV CANNERS
p1859
(VOLD TANNERY RD
p1860
I61
I17060
tp1861
sVPAVILION AV
p1862
(VPAVILION AVE
p1863
I98
I16770
tp1864
sVNARRA GANSE TT AV
p1865
(VNARRAGANSETT AV
p1866
I76
I17270
tp1867
sVEDDY TOYS AND GAMES-RETAIL
p1868
(VORIENTAL ST
p1869
I51
I17613
tp1870
sVBRANCH AV
p1871
(g60
I97
I16067
tp1872
sVEDDY
p1873
(g1252
I86
I15834
tp1874
sVTORONTO AV, TEL STUART 1-3050  *METAL SPECIALTIES
p1875
(VMONTE CARMELE ST
p1876
I43
I16347
tp1877
sS"RICH- MEND, TEL GASPEE 1-6242'"
p1878
(g407
I69
I15863
tp1879
sVRIVER AV, TEL GASPEE 1-0610
p1880
(g267
I70
I15863
tp1881
sVWESTMINSTER R133
p1882
(g63
I90
I15991
tp1883
sVPECASSET AV
p1884
(g248
I87
I17995
tp1885
sVTAMER
p1886
(VTABER AVE
p1887
I68
I17107
tp1888
sS'ACORN. TVEL GASNEE . 1-5800'
p1889
(S'GASPEE ST'
p1890
I59
I15863
tp1891
sVCRANSTON  *LADIES' AND MISSEW READY-TO- WEAR CLOTHING-RETAIL
p1892
(g572
I66
I15817
tp1893
sV; BROADWAY
p1894
(g546
I92
I15794
tp1895
sS'WED; SHORE RD, WARWICK, RI'
p1896
(S'WARWICK AV'
p1897
I74
I16852
tp1898
sVATWELLS AV AND 477 BROADW AY
p1899
(g146
I75
I15775
tp1900
sVJACKSON *HABERDASHERS
p1901
(VCHAMBERS ST
p1902
I56
I17180
tp1903
sS'), TEL 401-5800'
p1904
(S'I 195'
p1905
I32
I15880
tp1906
sV19
p1907
(VI 195
p1908
I68
I15880
tp1909
sVBENEFIT, TEL GASPEE 1-9887
p1910
(g937
I75
I15781
tp1911
sVBROAD- WAY. 68 DORRANFZE, 191 WASH AND 785 WESTMINSTER
p1912
(g63
I67
I15991
tp1913
sS"CRARY SM'"
p1914
(S'CRARY ST'
p1915
I94
I15818
tp1916
sVSILVER SPRING, TEL UNION 1-6289'
p1917
(VSILVER SPRING ST
p1918
I82
I16454
tp1919
sVHOWARD DETROIT 31 , MICHIGAN "'AVIATION INSURANCE
p1920
(g667
I48
I15850
tp1921
sVBROAD, EDGEWOOD, TEL HOPKINS 1-5400
p1922
(VEDGEWOOD AVE
p1923
I72
I16651
tp1924
sVCONGION
p1925
(VCONGDON ST
p1926
I78
I16932
tp1927
sS'WESTMINSTER. TEL JACK- SON 1-6706'
p1928
(g5
I79
I15991
tp1929
sS'WESTMINSTER STRM921'
p1930
(g716
I92
I15991
tp1931
sVANGELL COSTUMERS
p1932
(VFOSTER ST
p1933
I57
I15852
tp1934
sVMASOR'Z. TEL PLANTATIONS 1-9776
p1935
(g106
I53
I15978
tp1936
sVBROADWAV
p1937
(g546
I81
I15794
tp1938
sS'-351 SOUTH MAIN, TEL GASPOE 1-1614'
p1939
(g407
I56
I15863
tp1940
sS'RMRVOIR AVE'
p1941
(S'RESERVOIR AVE'
p1942
I79
I17303
tp1943
sVCUSTOM HOUSE R202 REFRIGERATORS- WHO LESALE
p1944
(VCARRINGTON AVE
p1945
I44
I16918
tp1946
sVABBOTT PARK PL 4TH FL
p1947
(VABBOTT PARK PL
p1948
I90
I15762
tp1949
sVPRISCILLA AV
p1950
(VPRISCILLA AVE
p1951
I98
I18000
tp1952
sV17 HALSEY
p1953
(VHALSEY ST
p1954
I83
I16989
tp1955
sV034
p1956
(V3RD ST
p1957
I27
I16873
tp1958
sS'WESTMINSTER COR GREENE. TELS GALPEE 1-1934, GANPEE 1-335'
p1959
(g43
I69
I15991
tp1960
sVWESTMINSTER, TEL GASPEE 1-2232
p1961
(g63
I80
I15991
tp1962
sVWESTMIN- STER R1003
p1963
(g63
I76
I15991
tp1964
sVBROAD HOUSE FURNISHING GOODS- MANUFACTURERS
p1965
(g461
I47
I16308
tp1966
sS'MATHEWSON R702  BEARINGS-BALL AND ROLLER-'
p1967
(g853
I71
I15904
tp1968
sV-53 EDDV
p1969
(g1252
I59
I15834
tp1970
sS'BEACON AV LEMIEUX ARTH 5 MT PLEASANT AV LENTINI VINCENT 15 WESTMINSTER R621'
p1971
(g5
I63
I15991
tp1972
sVINDUSTRIAL BANK BLDG 111 WEST- MINSTER, TELS GASPEE 1-9800 AND 1-4263
p1973
(g746
I66
I16249
tp1974
sVHOSPITAL TRUST BLDG 15 WESTMINSTER, TEL GABDEE 1-8666
p1975
(g63
I69
I15991
tp1976
sS'CUSTOM HOUSE, TEL GASPEE 145500'
p1977
(g320
I81
I15820
tp1978
sV-291 WEYBOSSET
p1979
(g28
I86
I15992
tp1980
sS'MATTHEWSON'
p1981
(g853
I88
I15904
tp1982
sS"MELROSE, TEL S'PUART 1-9408"
p1983
(S'MELROSE ST'
p1984
I75
I17263
tp1985
sVSHERBURNE, TEL DEXTER 1-0464
p1986
(g1644
I78
I16819
tp1987
sVWICKEHDEN
p1988
(VWICKENDEN ST
p1989
I82
I15995
tp1990
sS'WASHINGTON AV  CORDAGE AND TWINE-'
p1991
(g1346
I81
I16854
tp1992
sVLABAN,
p1993
(VLABAN ST
p1994
I88
I17924
tp1995
sVPAWTUCKET AV. PAWTUCKET, TEL PAWTUCKET 5-4422
p1996
(g80
I61
I16772
tp1997
sVBR'OAD. TEL WILLIAMS
p1998
(VROGER WILLIAMS CT
p1999
I83
I17307
tp2000
sS'JACKSON WALKWAY SUIT 17'
p2001
(g611
I89
I15884
tp2002
sS'21 -6700'
p2003
(S'10TH ST'
p2004
I27
I16868
tp2005
sS'BERLIN'
p2006
(S'BERLIN ST'
p2007
I90
I17403
tp2008
sS'ZCO285GEORGEMCOHAN BLVD'
p2009
(S'GEORGE M COHAN BLVD'
p2010
I65
I15864
tp2011
sVSOUTH
p2012
(g913
I88
I15959
tp2013
sS'BURDEN. TELS DEXTER 1-0243. DEX- TAR 1-0244'
p2014
(S'VAN BUREN ST'
p2015
I61
I16844
tp2016
sVCHARLTON, EVERETT, TEL EVERETT 9-0076
p2017
(VCARLETON ST
p2018
I63
I17427
tp2019
sVDORRANCE COR WASHING- TON, TEL GASPEE 1-9200
p2020
(g605
I71
I15829
tp2021
sVMAGNOLIA
p2022
(VMAGNOLIA ST
p2023
I92
I17944
tp2024
sVBRANCH AV  CLEANERS AND DYERS
p2025
(VLEANDER ST
p2026
I61
I17929
tp2027
sVWESTMINSTER, PROVIDENCE, TEL ELMHURST 1-5800; DOWNTOWN OFFICE 20 WESTMINSTER; MT PLEASANT OFFICE 1082 CHALK- STONE, SIX OTHER CONVENIENT COMMUNITY OFFICES IN EARRING- TON, CRANSTON, CENTREDALE , PAWTUCKET AND GREENVILLE)
p2028
(g63
I56
I15991
tp2029
sVJACKSON ORGANIZATIONS-RELIEF
p2030
(g1687
I60
I15813
tp2031
sS'PLAINFIELD ST,'
p2032
(S'PLAINFIELD ST'
p2033
I100
I17994
tp2034
sS'PLAIN5ELD ST'
p2035
(g2033
I86
I17994
tp2036
sVWEST- MINSTER R702
p2037
(g63
I77
I15991
tp2038
sVWEST- MINSTER R705
p2039
(g63
I77
I15991
tp2040
sVWEST- MINSTER R704
p2041
(g63
I77
I15991
tp2042
sVPRINT ERY
p2043
(VPRINTERY ST
p2044
I78
I16408
tp2045
sV, MASS
p2046
(VMASSO DR
p2047
I78
I16322
tp2048
sS'-5775'
p2049
(g1395
I29
I15881
tp2050
sVEDDY R712A
p2051
(VRAY DR
p2052
I44
I17084
tp2053
sVAND RIGHI TOP LINES)
p2054
(g1119
I57
I17781
tp2055
sS'WEST- MMSTER'
p2056
(g5
I65
I15991
tp2057
sVWESTMINSTER. TEL UNION 1-5400
p2058
(g63
I81
I15991
tp2059
sVGORDON AV. TEL WILLIAMS 14111
p2060
(g1999
I79
I17307
tp2061
sVWESTMINSTER R510 BED SPRING MANUFACTURERS
p2062
(g461
I49
I16308
tp2063
sVATWELLS AV *SBEET LEAD
p2064
(g146
I84
I15775
tp2065
sS'DORRANCE. TEL GASPEE 1-7600'
p2066
(g1821
I77
I15829
tp2067
sS'WEY- BUNT RBI, TEL GASPEE 1-1020'
p2068
(g1890
I68
I15863
tp2069
sVJASTROM
p2070
(VJASTRAM ST
p2071
I78
I17547
tp2072
sVWICKENDEN
p2073
(g1989
I93
I15995
tp2074
sS'INC. A 130 MENTAL AV, TEL UNLON 1-7472'
p2075
(S'CENTRAL AVE'
p2076
I60
I16095
tp2077
sS'WESTMINSTER 111410'
p2078
(g43
I87
I15991
tp2079
sS'FEDERAL BLDG UAPO'
p2080
(S'FEDERAL ST'
p2081
I79
I15848
tp2082
sVEMPIRE R425
p2083
(g217
I85
I15840
tp2084
sS'WALD TEL STUART 1-5050'
p2085
(g1796
I57
I15963
tp2086
sVPLAINFIELD, EFL ELMHURST 1-5513
p2087
(g1255
I80
I17994
tp2088
sS'LH- DUSTRIAL BANK BLCG, 111 WIESTMINSTER ST, TEL 521-3900'
p2089
(g501
I68
I15991
tp2090
sVALIEN AV. TEL WLLLIAMS 1-0056
p2091
(g1265
I70
I16590
tp2092
sV217 PRAIRIE AV
p2093
(g1334
I90
I16787
tp2094
sVMILL, JOHNSTON. RI. TEL JACKSON'1-2704
p2095
(g382
I66
I16707
tp2096
sS'HOWARD STREET DETROIT , MICHIGAN 48231'
p2097
(S'MICHIGAN AVE'
p2098
I69
I16732
tp2099
sS'GORDON 3'
p2100
(S'GORDON AVE'
p2101
I89
I16675
tp2102
sS'CUSTOM HOUSE. TELL GASPEE 1-9850; GASPAE 1-9857'
p2103
(g2
I73
I15820
tp2104
sV883 EDDVY
p2105
(g1252
I69
I15834
tp2106
sS'-8 HARRIS AV'
p2107
(S'HARRIS AVE'
p2108
I93
I15869
tp2109
sVWESTMINSTER R821
p2110
(g63
I90
I15991
tp2111
sS'-39 NARRAGAN- SETT AVE'
p2112
(g1035
I83
I17270
tp2113
sS'WESTMINSTER ST-RM 403'
p2114
(g501
I90
I15991
tp2115
sS"'0 DCRRAN-CE'ST F RM 725"
p2116
(g315
I65
I15829
tp2117
sVWESTMINSTER, TEL GASPEE 1-8510
p2118
(g63
I80
I15991
tp2119
sS'3'
p2120
(S'3RD ST'
p2121
I39
I16873
tp2122
sS'WATER- MAN AVE'
p2123
(g594
I76
I15988
tp2124
sVEXCHANGE PL. R416
p2125
(g201
I85
I15846
tp2126
sS'BROAD DENTON PRECISION CASTING CO 276 WASHING-'
p2127
(S'PRESTON ST'
p2128
I54
I17080
tp2129
sVHOMER
p2130
(VHOMER ST
p2131
I88
I16694
tp2132
sVHOSPITAL TRUST BLDG 15 WESTMINSTER, TEL GASPEE 1-5232  CHAIN MANUFACTURERS
p2133
(g461
I42
I16308
tp2134
sVWESTMINSTER R11, TEL DEXTER 1-9609
p2135
(g63
I77
I15991
tp2136
sS"-39 NARRAGAN- SETT AV'"
p2137
(g1035
I84
I17270
tp2138
sS"ATWELLS AV INTRAUB'A SILK & FABRIC SHOPS INC 135 WEYBOSSET ' 3 CR. SONS"
p2139
(g54
I64
I15992
tp2140
sVDOYLE AV
p2141
(VDOYLE AVE
p2142
I97
I16946
tp2143
sVR111
p2144
(V11TH ST
p2145
I43
I16869
tp2146
sV-352 MANTON AV
p2147
(g529
I89
I17947
tp2148
sS', 37-739 NARRAGANSETT AV, TEL STUART 1-0600'
p2149
(S'NARRAGANSETT ST'
p2150
I77
I16747
tp2151
sVRICHMOND R307
p2152
(g304
I87
I15946
tp2153
sS'. ATWELLS AVE'
p2154
(g449
I100
I15775
tp2155
sVBROAD R4
p2156
(g189
I87
I15793
tp2157
sV-6399
p2158
(g396
I29
I15881
tp2159
sS'BEVERLY 32 PROVIDENCE RUBBER GLOVE CO 286 BROWN'
p2160
(S'PROVIDENCE PL'
p2161
I70
I17631
tp2162
sVWESTMIN- ST ER
p2163
(g63
I79
I15991
tp2164
sVPOINT SCHOOIS- PUBLIC
p2165
(VSCHOOL ST
p2166
I59
I18031
tp2167
sVSTEVENS 2D FL
p2168
(VSTEUBEN ST
p2169
I61
I18056
tp2170
sVCIALKSTONE AV
p2171
(g126
I89
I17433
tp2172
sS'AND 1247 CHALKSTONE B & C CLEANSERS 223 ADMIRAL BEST-WAV CLEANSERS 951 HOPE'
p2173
(g534
I66
I17433
tp2174
sV-83 CARPENTER, TEL GASPEE 1-1025  'ROOMS
p2175
(g706
I73
I15801
tp2176
sVPARSONAGE *CUTTERS-MILLING
p2177
(VPARSONAGE ST
p2178
I79
I15927
tp2179
sS'WEYBOSSET, TEL SRUART 1-0100'
p2180
(g54
I81
I15992
tp2181
sVLLO'YD AV
p2182
(g584
I82
I17025
tp2183
sVMT PLEASANT AV
p2184
(VPLEASANT AV
p2185
I94
I16399
tp2186
sVWEST-
p2187
(g498
I86
I15990
tp2188
sVMAN TON AV
p2189
(g529
I78
I17947
tp2190
sS'WATERMAN AV'
p2191
(g220
I91
I15988
tp2192
sS"WESTMNSTER'; TEL JACKSON 1-6700; CORNER DORRANBE AND WESTMINSTER, 244 WEYBOSSET, 238 THAYER. 434 SMITH AND 1 OLNEVVIILE SO"
p2193
(g5
I61
I15991
tp2194
sS'PUTNAM PIKE'
p2195
(S'PUTNAM ST'
p2196
I85
I18003
tp2197
sVCRAN- STON
p2198
(g572
I73
I15817
tp2199
sVGEORGIA AV
p2200
(g1407
I97
I16671
tp2201
sVCUSTOM HOUSE, TEL GASPEE 1-6900 GEE YELLOW PAGE 54, FRONT EDGE AND BASE 2)
p2202
(g416
I67
I15820
tp2203
sS'- CROMWELL ST'
p2204
(S'CROMWELL ST'
p2205
I100
I17190
tp2206
sS'ATWELLS AV DICOLA GUISEPPE SCHIANO 266 KNIGHT DIFUSCO VIRGINIO 11 LAWN DONSTAN CORP 166 VALLEY BLDG 3'
p2207
(S'STEPHEN HOPKINS CT'
p2208
I37
I16475
tp2209
sS'STEVENS  RADIO AND TELEVISION'
p2210
(g353
I54
I17828
tp2211
sS'PUB- LIC  FOUNDRY SUPPLIES AND'
p2212
(S'JULIE ANN CT'
p2213
I48
I16263
tp2214
sVEXCHANGE R420
p2215
(g201
I90
I15846
tp2216
sVCHARLES, TEL DEXTER 1-5482; FUNERAL HOME, BRANCH AVENUE AT HAWKINS
p2217
(g730
I62
I16096
tp2218
sVWEST- MNSTER, TELS ELMHURST 1-1098 AND 1-0570
p2219
(g120
I68
I17482
tp2220
sVCHARLES BLDG 10
p2221
(g730
I82
I16096
tp2222
sVAND 591 DOUGLAS AV
p2223
(g435
I84
I16154
tp2224
sVCHARLES BLDG 15
p2225
(g730
I82
I16096
tp2226
sVWESTMINSTER R17 SCREW MACHINE PRODUCTS
p2227
(g63
I77
I15991
tp2228
sS'EXCHANGE R300 GAVIN FRANCIS P, 49 WEYBOSSET, TEL GASPEE 1-6047 GAVIN & JOHNSON INC, 49 WEYBOSSET, TEL GASPEE 1-6047 GOULD WM E JR 111 WESTMINSTER R412'
p2229
(g43
I58
I15991
tp2230
sVWESTMINSTER AMUSEMENTS-PLACES OF
p2231
(g63
I80
I15991
tp2232
sS'WEHTTNINSTER ST'
p2233
(g501
I80
I15991
tp2234
sVTHUR- BERS AV
p2235
(VTHURBERS AVE
p2236
I79
I16839
tp2237
sVWIL- LARD AV
p2238
(g57
I82
I16863
tp2239
sVWEST- MINSTER R 26
p2240
(g63
I77
I15991
tp2241
sVWEST- MINST ER R 1004
p2242
(g63
I67
I15991
tp2243
sS"WESTMIN- STAR, TOLL GAAPEE 1-7821, 1-7822, 1-7833 AND 692 MAIN. WAKEFIELD. RI. 501 BTERNNG 3-8081 '"
p2244
(S'WAKEFIELD AVE'
p2245
I60
I18093
tp2246
sVBROAD LAUNDRIES-SELF SERVICE
p2247
(VLAUREL AVE
p2248
I57
I17018
tp2249
sVG PRAIRIE AV
p2250
(g1334
I93
I16787
tp2251
sS'WESTMINSTER R303 WARBURTON WILLIAM R AGENCY, 170 WESTMINSTER SUITE 1010. TELS GASNEE 1-0824 AND 1-8234'
p2252
(g43
I62
I15991
tp2253
sVRICH- MOND, TEL GASPEE'1-6242
p2254
(g267
I69
I15863
tp2255
sS'WESTMINSTER, TEL GAS- PEE 1-2232'
p2256
(g43
I79
I15991
tp2257
sS'DORRANCE R305 GI A L CO. 15 WUTMLNSTER R727. TEL'
p2258
(g5
I54
I15991
tp2259
sV-2816
p2260
(g1908
I25
I15880
tp2261
sS'EDDY, TEL HOPKINS 1-0855'
p2262
(S'HOPKINS ST'
p2263
I74
I15876
tp2264
sVBROOK
p2265
(VBROOK ST
p2266
I88
I15795
tp2267
sVFOUNTAIN, TEL UNION 1-5000'
p2268
(VFOUNTAIN ST
p2269
I78
I15853
tp2270
sS'BAKER, TEL HOPKINB 7-8278'
p2271
(g2263
I63
I15876
tp2272
sVCUSTOM 71101188
p2273
(g1435
I25
I16868
tp2274
sS'FOUNTAIN  0BUS AND TRUCK BATTERIES-'
p2275
(S'BETTERIDGE CT'
p2276
I52
I17772
tp2277
sVBENEDICT * FUMIG ATING
p2278
(VBENEDICT ST
p2279
I82
I16053
tp2280
sVALLEN'S AV  DANCING TEACHERS
p2281
(VDUTCHESS AVE
p2282
I48
I16158
tp2283
sS'VIRGNLA AV, TEL HOPKINS 1-1500  TRAMPS-RUBBER, STEEL AND'
p2284
(S'VIRGINIA AVE'
p2285
I55
I16849
tp2286
sVMATHEWSON AND 109 WASHINGTON
p2287
(g137
I74
I15986
tp2288
sVWESTMINSTER 2D
p2289
(g63
I93
I15991
tp2290
sS"'DEXTER. TEL MUMS 1-6900 '  WATCH. CLOCK AND JEWELRY"
p2291
(S'JEWELL ST'
p2292
I49
I17911
tp2293
sVCUSTOM HOUSE, TEL GASPEE 1-9555
p2294
(g416
I81
I15820
tp2295
sS'DORCHESTER AV BABYHOOD DISTRIBUTOR OF RHODE ISLAND 87 WEYBOSSET R448'
p2296
(g1122
I43
I16121
tp2297
sVWEYBOSSET. TELS GASPEE 1-8488 AND GASPEE 1'-8213
p2298
(g28
I69
I15992
tp2299
sS'VALLEY 0 CASTING CO 669 ELMWOOD AV N WHITE FOUNDRY CO INC 42 DODGE YLOR CASTING CO'
p2300
(S'CUSHING ST'
p2301
I45
I16130
tp2302
sS'PHITH 5; SONS 196 N MAIN EIBER WHOLESALE CO 203 CAMP ER BROS 200 N MAIN -'
p2303
(S'HOPEDALE RD'
p2304
I44
I17001
tp2305
sS'WESTMINSTER R202  JEWELERS-WHOLESALE AND'
p2306
(g43
I74
I15991
tp2307
sV-32 WEYBOS- SET
p2308
(g28
I76
I15992
tp2309
sVN MAIN R4
p2310
(g492
I92
I15916
tp2311
sVN MAIN R3
p2312
(g492
I92
I15916
tp2313
sVBROADCASTING STATION, AM, FM 8; T V, WPRO BLDG 24 MASON, TEL PLANTATIONS 1-9776
p2314
(VBROCKTON ST
p2315
I42
I16070
tp2316
sVSABIN, TEL GASPEE 1-0170
p2317
(g267
I72
I15863
tp2318
sS'JACKSON AND 254 WASHINGTON'
p2319
(g1279
I75
I15986
tp2320
sVCHAPIN AV AND 49 WEST- MINSTER
p2321
(g63
I64
I15991
tp2322
sVWEYBOSSET B420
p2323
(g28
I88
I15992
tp2324
sS'CHASMUT, TELQ SZM 1-0354 AILD DEXTER 1-2253'
p2325
(g92
I48
I15807
tp2326
sS'NRKS HEAD PL RM 1310'
p2327
(S'TURKS HEAD PL'
p2328
I67
I15976
tp2329
sVBRANCH AV * VARNISH DEALERS
p2330
(VSTANDISH AVE
p2331
I55
I17670
tp2332
sVMEDWAY
p2333
(g214
I90
I17040
tp2334
sVMCAVOY
p2335
(VMCAVOY ST
p2336
I90
I15905
tp2337
sVWEST- MINS TER
p2338
(g498
I85
I15990
tp2339
sVFRANKLIN RIOSH
p2340
(g1768
I90
I15856
tp2341
sVCHARLES, TEL DEXTER 1-4496
p2342
(g730
I75
I16096
tp2343
sV421 HOPE
p2344
(VHOPE ST
p2345
I76
I15875
tp2346
sVWASHINGTON AV
p2347
(g1620
I98
I16854
tp2348
sS'WESUNINSTER STRM906'
p2349
(g501
I77
I15991
tp2350
sVCUSTOM HOUSE R202 * WINDOWS -ALUMINUM
p2351
(VALUMNI AVE
p2352
I47
I16887
tp2353
sVPOEASSET AV
p2354
(g248
I87
I17995
tp2355
sVGROVE
p2356
(VGROVE ST
p2357
I88
I17876
tp2358
sS'RATHBONE'
p2359
(S'RATHBONE ST'
p2360
I92
I17637
tp2361
sS'PUMA. TEL JACKSON 1-6000'
p2362
(S'JACKSON ST'
p2363
I74
I16253
tp2364
sVCHEST- NUT, TEL GASPEE 1-2180
p2365
(g267
I69
I15863
tp2366
sS'WESTMINSTER COR GREENE, TELS GASPEE 1-1934, 1-1935'
p2367
(g5
I71
I15991
tp2368
sVGEORGE M COHAN
p2369
(VGEORGE M COHAN BLVD
p2370
I92
I15864
tp2371
sVWESTMINSTER R923  AIR LINE COMPANIES
p2372
(g63
I76
I15991
tp2373
sVAND RIGHT SIDE LINES)
p2374
(VWAINWRIGHT ST
p2375
I61
I17706
tp2376
sS'WICKENDEN  CARPETS, RUGS AND FLOOR'
p2377
(g310
I75
I15995
tp2378
sS"WESTMIN- STAR, TEL TEMPLE 1-750'0"
p2379
(g5
I65
I15991
tp2380
sS'TORONTO GLOBE METAL STAMPING CO 50 ALEPPO'
p2381
(g1374
I52
I16927
tp2382
sV& CHARLES
p2383
(g730
I91
I16096
tp2384
sVCHARLES, TEL TEMPLE 1-6233
p2385
(g730
I75
I16096
tp2386
sS"ATWELLS AV RLEY'S BARBER SHOP 57 BARTON RLIE'S BARBER SHOP 572 DOUGLAS AV ISTY'S BARBER SHOP 753 ELMWOOD AV RISTY'S BARBER SHOP 5 MESSER NO FRANK 65 MOOREFIELD"
p2387
(S'MOOREFIELD ST'
p2388
I56
I17965
tp2389
sVPILSUDSKI
p2390
(g998
I93
I17993
tp2391
sS'1 6 LESTER'
p2392
(S'LESTER ST'
p2393
I81
I17245
tp2394
sS'ELM- WOOD AVE'
p2395
(S'ELMWOOD AVE'
p2396
I84
I17207
tp2397
sVWESTMINSTER, TEL
p2398
(g63
I95
I15991
tp2399
sVATWELLS AV, TEL DEXTER 1-9550; BRANCH 289& POCASSET AV, TEL TEMPLE 1-4795
p2400
(g248
I65
I17995
tp2401
sVLVMAN
p2402
(VLYMAN ST
p2403
I71
I15897
tp2404
sVPOCASSET AV
p2405
(VPOCASSET AVE
p2406
I98
tp2407
sS'GESLER ELLA PETER 170 WESTMINSTER R808'
p2408
(g5
I73
I15991
tp2409
sS'WEYBOSSET R418  MA BUILDERS AND'
p2410
(g54
I76
I15992
tp2411
sVWESTMINSTER R233 AND R620
p2412
(g63
I81
I15991
tp2413
sVHARTFORD AV PLASTIC PRODUCTS-WHOLE- SALE
p2414
(g506
I73
I17889
tp2415
sVE
p2416
(VEAST ST
p2417
I86
I15833
tp2418
sS'FOM- FAIN, TEL DEXTER 1-0600'
p2419
(g1517
I70
I17198
tp2420
sVN MAIN R4 AND 15 WESTMINSTER R5 38
p2421
(g63
I73
I15991
tp2422
sVWEYBO'SSET
p2423
(g28
I76
I15992
tp2424
sS'WESTMIN- LTNR. TD TLMNLL 1-7560'
p2425
(g5
I64
I15991
tp2426
sVCLIFFORD 2D FL
p2427
(VCLIFFORD ST
p2428
I86
I15811
tp2429
sVWESTMINSTER R38
p2430
(g63
I91
I15991
tp2431
sVWESTMINSTER R33
p2432
(g63
I91
I15991
tp2433
sS'. MO GENERAL MERCHANDISE)'
p2434
(S'MECHANICS AVE'
p2435
I65
I16333
tp2436
sVALLEN'S AV, TEL WLFLIAMD 1-0812
p2437
(g1265
I58
I16590
tp2438
sVPLYMOUTH
p2439
(VPLYMOUTH RD
p2440
I92
I16401
tp2441
sVTHURBERS
p2442
(VTHURBER ST
p2443
I91
I16492
tp2444
sS'CHALKSTONE AV  SHOE DEALERS-WHOLESALE AND'
p2445
(g534
I76
I17433
tp2446
sVCHESTNUT  JEWELERS1 FINDINGS
p2447
(VJEWELL ST
p2448
I53
I17911
tp2449
sS'KENNEDY PLAN'
p2450
(S'KENNEDY PLZ'
p2451
I93
I15887
tp2452
sS'MEBCALF ST'
p2453
(S'METCALF ST'
p2454
I88
I16337
tp2455
sVELMW 00D AV ME THODIST
p2456
(VTHOMAS OLNEY COMMON ST
p2457
I49
I17113
tp2458
sVWESTMINSTER R821 FF
p2459
(g63
I86
I15991
tp2460
sVWESTMINSTER R100
p2461
(g63
I90
I15991
tp2462
sS'BENEFIT R1'
p2463
(S'BENEFIT ST'
p2464
I90
I15781
tp2465
sVBELLEVUE AV
p2466
(g232
I98
I16051
tp2467
sS'-2253'
p2468
(g1395
I29
I15881
tp2469
sS'RM 316'
p2470
(g1905
I34
I15880
tp2471
sVVALLEY AND 1489 WEST- MINSTER
p2472
(g63
I65
I15991
tp2473
sS"STA- TION, CRANSTON, TEL HOPKM'S 7-8815"
p2474
(g965
I71
I15817
tp2475
sVTMORE
p2476
(VMOORE ST
p2477
I71
I17265
tp2478
sVINDUSTRIAL BANK BLDG 111 WESTMINSTER TEL DEXTER 1 -2400
p2479
(g63
I69
I15991
tp2480
sVPROV COUNTY COURT HOUSE
p2481
(VCOUNTY ST
p2482
I75
I16126
tp2483
sVC0 403 HOPE
p2484
(g2345
I72
I15875
tp2485
sV-6010
p2486
(g1435
I43
I16868
tp2487
sVCHALKSTONE AV  BARREL DEALERS
p2488
(g126
I83
I17433
tp2489
sVWESTMINSTER R216
p2490
(g63
I90
I15991
tp2491
sS'WESTMINSTER R217'
p2492
(g43
I90
I15991
tp2493
sVHAWKINS
p2494
(VHAWKINS ST
p2495
I91
I16223
tp2496
sVCHESTNUT DEL
p2497
(g664
I89
I15807
tp2498
sVWESTMINSTER R210
p2499
(g63
I90
I15991
tp2500
sVWESTMINSTER R211
p2501
(g63
I90
I15991
tp2502
sS'ABOM. TEL DEXTER 1-1000'
p2503
(g1517
I72
I17198
tp2504
sVEDDY,
p2505
(g1252
I86
I15834
tp2506
sVSMITH
p2507
(VSMITH ST
p2508
I88
I16457
tp2509
sVWESTMINSTER R218
p2510
(g63
I90
I15991
tp2511
sVWESTMINSTER 8302
p2512
(g63
I90
I15991
tp2513
sVBROAD A *TELEVISION AND RADIOS
p2514
(VDIVISION ST
p2515
I56
I17828
tp2516
sS"ALLEN'S AV, TEL WLLLHMS 1-7600"
p2517
(g393
I53
I16590
tp2518
sVWILLARD AV
p2519
(g57
I97
I16863
tp2520
sS'CARLSBAD'
p2521
(S'CARLSBAD ST'
p2522
I92
I20741
tp2523
sVWEYBOSSETN
p2524
(g28
I88
I15992
tp2525
sVEDUCATION 49 PARK
p2526
(VDUNCAN DR
p2527
I60
I16948
tp2528
sS'HOWARD BLDG ANNEX'
p2529
(S'NORTH HOWARD AVE'
p2530
I77
I16363
tp2531
sVBROAD'
p2532
(g189
I88
I15793
tp2533
sS'.7 WESTFIELD ST'
p2534
(S'WESTFIELD ST'
p2535
I96
I17354
tp2536
sV1WAY1AND AV
p2537
(g1382
I81
I17125
tp2538
sVTROV
p2539
(g1208
I65
I18078
tp2540
sV42 KILLINGLY
p2541
(VKILLINGLY ST
p2542
I87
I17917
tp2543
sVHNSLEY AV, TEL DEXTER 1-3784  GRANITE AND MARBLE WORKERS
p2544
(VE TRANSIT ST
p2545
I53
I16954
tp2546
sS'LVER  COPPER NICKEL'
p2547
(S'OPPER ST'
p2548
I68
I16379
tp2549
sS'BH- STONE 1 CONVALESCENT HOME 159 PROSPECT HILL HOME'
p2550
(S'CONVENT ST'
p2551
I53
I17451
tp2552
sS'CLIFFORD, TEL GASPEE 1-5776'
p2553
(S'CLIFFORD ST'
p2554
I77
I15811
tp2555
sVALLERFS AV
p2556
(VALLENS AVE
p2557
I78
I15768
tp2558
sVWEYBOSSET, TEL TEMPLE 1-8800
p2559
(g28
I78
I15992
tp2560
sVGEORGE MI. COHAN BLVD
p2561
(g2370
I98
I15864
tp2562
sVELMWOOD AV
p2563
(g211
I97
I17207
tp2564
sVPOTTER'S AV WOOL COM'BERS
p2565
(g438
I73
I16786
tp2566
sVI MANTON AV
p2567
(g529
I93
I17947
tp2568
sVMELROSE TRUC--MOTOR
p2569
(VMELROSE ST
p2570
I82
I17263
tp2571
sVKINSLEY AV, TEL GASPEE 1-5065; QUARRY DIVISION. LS'R STREET, BERKELEY, R1, TE'L PAWTUCKET 3-3300
p2572
(VPAWTUXET AV
p2573
I49
I16771
tp2574
sS'CHESTNUT. 52131 GASPEE 1-2180'
p2575
(g92
I75
I15807
tp2576
sV-7500
p2577
(g396
I29
I15881
tp2578
sS'MAS- SASOIT AVE'
p2579
(S'MASSASOIT AVE'
p2580
I88
I16726
tp2581
sVFRANKLIN
p2582
(g1768
I92
I15856
tp2583
sVDORCHESTER AX; AND 111 WESTMINSTER R 1707
p2584
(g63
I72
I15991
tp2585
sVGOVERNOR AND 99 HOPE
p2586
(VGOVERNOR NOTTE PKWY
p2587
I81
I16206
tp2588
sS'NMAIN ST'
p2589
(g1671
I77
I17952
tp2590
sS'BFOAD ST'
p2591
(S'BROAD ST'
p2592
I84
I15793
tp2593
sS'ANGELL MMGIMWATEZ-MM MIN JOHN C 730 BROAD'
p2594
(S'MATTEO DR'
p2595
I39
I16324
tp2596
sVMT PLEASANT
p2597
(VMOUNT PLEASANT AVE
p2598
I88
I17599
tp2599
sS'WESTMINSTER 31516'
p2600
(g5
I88
I15991
tp2601
sVBENEFIT
p2602
(g937
I91
I15781
tp2603
sVEURNSIDE
p2604
(VBURNSIDE ST
p2605
I81
I16606
tp2606
sS'RANDALL, TELAGASPEE 1-1981'
p2607
(g407
I58
I15863
tp2608
sS'ALDRICH  GLASS DEALERS-WINDOW AND'
p2609
(S'ALDRICH TER'
p2610
I73
I16883
tp2611
sV'WESTMINSTER 3D FL
p2612
(g63
I88
I15991
tp2613
sVHOSPITAL TRUST BLDG 15 WEST- MINSTER, TEL GASPEE 1-6630
p2614
(g700
I67
I15878
tp2615
sVRIVER AV. TEL
p2616
(VRIVER AVE
p2617
I93
I16423
tp2618
sS'BROADWAY  PMCUNS AND SUMMONS-'
p2619
(g1116
I76
I15794
tp2620
sVOLNEYVILLE SQ * PRINTERS
p2621
(g798
I87
I17978
tp2622
sVCHESTNUT TOILET ARTICLES AND SUPPLIES
p2623
(g664
I71
I15807
tp2624
sVELMWOOD AV AUTOMOBILE WASHING AND POLISHING
p2625
(VWOODBINE ST
p2626
I44
I16550
tp2627
sVDVER
p2628
(VDOVER ST
p2629
I78
I17473
tp2630
sV-197 WILLARD AV
p2631
(g57
I90
I16863
tp2632
sS'HOSPITAL TRUST BLDG 15 WESTMINSTER, TEL GASPEE 1-8940 JORDAN RAYMOND E'
p2633
(g5
I66
I15991
tp2634
sVG CAMP
p2635
(g657
I81
I16917
tp2636
sVG CRANSTON
p2637
(g572
I88
I15817
tp2638
sS'KNIGHTS OF COLUMBUS 1835 MINERAL SPRING AVE'
p2639
(S'COLUMBUS AVE'
p2640
I72
I18510
tp2641
sV& POCASSET AV
p2642
(g248
I98
I17995
tp2643
sVATWELLS AV AND 9135 CHALKSTONE AV
p2644
(g126
I77
I17433
tp2645
sV,2 WEYBOSSET
p2646
(g28
I89
I15992
tp2647
sVASHTON LST FL
p2648
(VASHTON ST
p2649
I91
I16033
tp2650
sV1396 BROAD
p2651
(g189
I78
I15793
tp2652
sVTHAYER
p2653
(g152
I90
I17112
tp2654
sVEDDY L'ELECTROPLA'I'ING
p2655
(VMETROPOLITAN RD
p2656
I53
I17591
tp2657
sVBISHOP
p2658
(VBRISTOW ST
p2659
I56
I16069
tp2660
sS'WEST- MINSTER  AUTOMOBILE ACCESSORIES AND PARTS-WHOLESALE AND'
p2661
(g1359
I48
I16002
tp2662
sVLINDEN AND 469 PINE
p2663
(g1221
I81
I17247
tp2664
sVBENEVOLENT
p2665
(VBENEVOLENT ST
p2666
I93
I16902
tp2667
sVSLATER AV
p2668
(g1237
I97
I17100
tp2669
sVATWELLS AV R4
p2670
(g146
I91
I15775
tp2671
sVGANO, TEL GASPEEL 1-9312
p2672
(g267
I68
I15863
tp2673
sVWESTMINSTER R 1612
p2674
(g63
I87
I15991
tp2675
sVRANDALL, TEL GASPEE 1-198'1
p2676
(VRANDALL SQ
p2677
I75
I16416
tp2678
sS'CLEMENCE 2D FL'
p2679
(S'CLEMENCE ST'
p2680
I86
I15810
tp2681
sS'CRANSTON  HAY AND STRAW DEALERS-'
p2682
(g965
I77
I15817
tp2683
sS'V; HOPE ST'
p2684
(S'HOPE ST'
p2685
I94
I15875
tp2686
sV89 BROADWAY
p2687
(g546
I86
I15794
tp2688
sS'WATERMAN SIT'
p2689
(S'WATERMAN ST'
p2690
I98
I15988
tp2691
sVWESTMINSTER. TEL GASPEE 1-6010
p2692
(g63
I80
I15991
tp2693
sS'WEYBOSSET R519'
p2694
(g54
I88
I15992
tp2695
sVS MAINF TEL GASPEE 1-4057; BRANCHES; EMPIRE-ABORN STREETS 87-93 EM'- PIRE; 22-30 ABORN. TEL GASDEE 1-381'0; OLNEYVILL'E BRANCI-F 1917- 1921 WESTMINSTER, TEL ELMHURST 1-9830; ELMWOOD BRANCH 520 ELM- WOOD AV, TEL STUART 1-2050; NORTH
p2696
(g63
I56
I15991
tp2697
sVDOR- RANGE COR WASHINGTON. TEL GASDEE
p2698
(g1620
I76
I16854
tp2699
sVN MAIN * PUMPS -GOULDS
p2700
(VGOULDING ST
p2701
I53
I16982
tp2702
sV-633 ATWELLS AV, TEL GASPET-I 1-0680
p2703
(g146
I74
I15775
tp2704
sVCR'ANSTON
p2705
(g572
I83
I15817
tp2706
sS',70 WESTMINSTER'
p2707
(g43
I89
I15991
tp2708
sS'WESTMIN- STAR, TEL TEMPLE 1-7500'
p2709
(g5
I66
I15991
tp2710
sS'SANGELLST'
p2711
(S'ANGELL ST'
p2712
I84
I16890
tp2713
sS'HOWARD BLDG. TEL GAS- PEE 1-7020'
p2714
(S'NORTH HOWARD AVE'
p2715
I69
I16363
tp2716
sVV5 PRIPNDQMN
p2717
(VPIEDMONT ST
p2718
I51
I15931
tp2719
sS'LINCOLN DR, JOHNSTON, RI'
p2720
(S'JOHNSON ST'
p2721
I71
I16707
tp2722
sVCUSTOM HOUSE R20 BROKERS-FOOD PRODUCTS
p2723
(VPROSPECT ST
p2724
I46
I16409
tp2725
sS'BUCK- 1111 ST'
p2726
(S'BUCKLIN ST'
p2727
I68
I17171
tp2728
sS'), TEL, 725-2100'
p2729
(S'10TH ST'
p2730
I35
I16868
tp2731
sS'LUNA W'
p2732
(S'LUNA ST'
p2733
I94
I16299
tp2734
sS'WALDO  BRUSH AND BROOM'
p2735
(S'WALDO ST'
p2736
I74
I16526
tp2737
sS'WESTMINSTER R633 MARCELFO A 111 WESTMINSTER R409 Y GEO F 40 COLONIAL RD R STUART H'
p2738
(g43
I64
I15991
tp2739
sVCUSTOM HOUSE R31
p2740
(g416
I92
I15820
tp2741
sVGALLUP
p2742
(VGALLUP ST
p2743
I90
I16668
tp2744
sVPHENIX BLDG 17 EXCHANGE, TEL GASPEE 1-7062; CEMETERY OFFICE, RHODE ISLAND AVENUE, CENTRE- DALE, TEL CENTREDALE 1-9120
p2745
(VCENTRAL AVE
p2746
I49
I16095
tp2747
sVATWELIS AV, TEL ELMHURST 1-9112
p2748
(g120
I71
I17482
tp2749
sS'GORDON AV, TEL HOPKINS 1-2560'
p2750
(g240
I71
I15876
tp2751
sS"ARGOL CALITRI DONATA MRS 126 ALMY CARRIE'S DRY GOODS STORE 190 ATWELLS AV 1L CEDAR CHEST SHOW ROOM THE 40 DEPASQU CHARREN MAX & SON 30 N COURT 32A CONSOLIDATED BUYING CORP 111 WESTMINST"
p2752
(S'COUNTRYSIDE DR'
p2753
I36
I16125
tp2754
sVWESTMINSTER R1216
p2755
(g63
I88
I15991
tp2756
sS'INDUSTRIAL BANK BLDG'
p2757
(S'INDUSTRIAL DR'
p2758
I86
I16249
tp2759
sS'EMPIRE, TEL GASPEE 1-7256'
p2760
(g34
I75
I15839
tp2761
sS'WESTMINSTER R417  WINE AND CORDAGE'
p2762
(g5
I75
I15991
tp2763
sS'HONE ST'
p2764
(S'THORNE ST'
p2765
I84
I17682
tp2766
sVHEALTH & WELFARE FUND 511 WESTMINSTER R303
p2767
(g63
I72
I15991
tp2768
sVWESTMINSTER R1218
p2769
(g63
I88
I15991
tp2770
sVWASHINGTON AV CORDAGE AND TWINE-WHOLE- SALE
p2771
(g1620
I75
I16854
tp2772
sS'SIM- AVE'
p2773
(S'SIMS AVE'
p2774
I89
I18041
tp2775
sS'BRAD, TIL JACHON 1-9600'
p2776
(S'JACKSON ST'
p2777
I57
I16253
tp2778
sS'ACADEMY AV  ARTIFICIAL FLOWERS AND FRUIT'
p2779
(S'PATRICIA DR'
p2780
I51
I16392
tp2781
sS"MINERAL SP'RING AV"
p2782
(S'MINERAL SPRING AV'
p2783
I98
I18640
tp2784
sV131 ORMS
p2785
(g8
I76
I16384
tp2786
sS', 347-351 SOUTH MAIN, TEL GASPEE 1-1614'
p2787
(g1890
I65
I15863
tp2788
sVC-IT-
p2789
(VOAK POINT
p2790
I51
I16369
tp2791
sVELM- WOOD AV
p2792
(g211
I82
I17207
tp2793
sVWEST- MINSTER. TEL GASNEE 1-1200
p2794
(g63
I68
I15991
tp2795
sVPOCASSET AV, TEL TEMPLE 1-5421
p2796
(g248
I79
I17995
tp2797
sS'BROADWAY ONAIUTO CARMINE 290 PLAIN'
p2798
(g1116
I72
I15794
tp2799
sS'W EXCHANGE, TGL GASPEE 1-7333'
p2800
(g990
I82
I15982
tp2801
sS'STENTON AV. TEL GASPEE 1-3229'
p2802
(S'STENTON AVE'
p2803
I78
I17104
tp2804
sVWHIPPLE
p2805
(VWHIPPLE ST
p2806
I91
I17716
tp2807
sVALLEN'S AV, TEL WILLIAMS 1-0050
p2808
(g1265
I75
I16590
tp2809
sV14 GREENE
p2810
(VGREENE ST
p2811
I83
I15866
tp2812
sVRUGBV
p2813
(VRUGBY ST
p2814
I71
I16803
tp2815
sVCRANSION
p2816
(g572
I81
I15817
tp2817
sVS MAIN
p2818
(g816
I93
I15948
tp2819
sVN MAIN, TEL DEXTER 1-8420
p2820
(g602
I69
I17198
tp2821
sVWEST- MINSTER 1 AND 81 EXCHANGE PL AND 176 MATHEWSON
p2822
(g362
I64
I15904
tp2823
sVWESTMINSTER R735
p2824
(g63
I90
I15991
tp2825
sS'WEYBOS- SET'
p2826
(g54
I81
I15992
tp2827
sVWESTMINSTER R22
p2828
(g63
I91
I15991
tp2829
sS"PINE DRY ICE-MANUFACI'URERS AND"
p2830
(S'MAYFAIR RD'
p2831
I53
I16729
tp2832
sS'WASHINGTON R402'
p2833
(S'WASHINGTON PL'
p2834
I89
I15986
tp2835
sV7 LEDGE
p2836
(VLEDGE ST
p2837
I83
I16275
tp2838
sVMATHEWSON R701
p2839
(g362
I88
I15904
tp2840
sVMATHEWSON R703
p2841
(g362
I88
I15904
tp2842
sVMATHEWSON R702
p2843
(g362
I88
I15904
tp2844
sVMATHEWSON R705
p2845
(g362
I88
I15904
tp2846
sS'WATERMAN M JACK 295 ANGELL HER CARL 1) M4 WATERMAN'
p2847
(S'WATERMAN ST'
p2848
I66
I15988
tp2849
sVACADEMV AV
p2850
(VACADEMY AVE
p2851
I86
I17365
tp2852
sVWESTMINSTER R1110 * FARM AGENCIES
p2853
(g63
I79
I15991
tp2854
sV& RIDGE
p2855
(VRIDGE ST
p2856
I88
I18010
tp2857
sS'8 MAIN'
p2858
(S'MAIN ST'
p2859
I81
I6905
tp2860
sS'STATION'
p2861
(S'STATION ST'
p2862
I91
I18409
tp2863
sVWASH- INGTON AV
p2864
(g1620
I84
I16854
tp2865
sVADELAIDE AV
p2866
(VADELAIDE AVE
p2867
I98
I17148
tp2868
sVTABER
p2869
(g1887
I85
I17107
tp2870
sVWESTMINSTER, PROVI- DENCE, TEL ELMHURST 1-5800; DOWN- TOWN OFFICE 20 WESTMINSTER; MT PLEASANT OFFICE 1082 CHALK- STONE, SIX OTHER CONVENIENT COMMUNITY OFFICES IN HARRINGTON, CRANSTON, CENTREDALE, PAW- TUCKET AND GREENVILLE
p2871
(g63
I56
I15991
tp2872
sS'CHRLEL'
p2873
(g330
I70
I16096
tp2874
sVWEST- MINSTER R1004
p2875
(g63
I76
I15991
tp2876
sVN MAIN
p2877
(g492
I93
I15916
tp2878
sS"CHARLES  HACHINIBTB' SUPPLIES AND"
p2879
(S'HYACINTH ST'
p2880
I52
I16246
tp2881
sS'ELMWOOD AVALM'
p2882
(S'ELMWOOD AVE'
p2883
I91
I17207
tp2884
sVWESTMINSTER R840
p2885
(g63
I90
I15991
tp2886
sVWESTMINSTER, TEIS ELMHURST 1-1098 AND 1-0570
p2887
(g63
I74
I15991
tp2888
sVWESTMINSTER R420  MACHINIS TS
p2889
(g63
I83
I15991
tp2890
sVWESTNHN- STER, TEL JACKSON 1-6700; 63 WEST- MINSTER; 146 WESTMINSTER; 244 WEYBOSSET; 238 THAYER; 434 SMITH; 1 OLNEYVILLE SQ
p2891
(g63
I61
I15991
tp2892
sS') TELEPHONE 521-6700'
p2893
(g160
I57
I16474
tp2894
sV6
p2895
(g543
I39
I16876
tp2896
sS'WEST- TWITTER 7TH N'
p2897
(S'WHITTAKER ST'
p2898
I61
I15994
tp2899
sS'WESTMINSTER 3D FL'
p2900
(g5
I88
I15991
tp2901
sV), NEW ENGLANDG LARGEST PET
p2902
(VKENTLAND AVE
p2903
I62
I16266
tp2904
sVWESTMINSTER R209
p2905
(g63
I90
I15991
tp2906
sS'ABBOTTST'
p2907
(S'ABBOTT ST'
p2908
I90
I16880
tp2909
sVRIDGE
p2910
(g2856
I88
I18010
tp2911
sS'MATHEWSON, TEL GASPEE 1-0250'
p2912
(g853
I78
I15904
tp2913
sVWESTMINSTER R202
p2914
(g63
I90
I15991
tp2915
sVWESTMINSTER R204
p2916
(g63
I90
I15991
tp2917
sVWESTMINSTER
p2918
(g63
I94
I15991
tp2919
sVC RANS TON
p2920
(VRYANS LN
p2921
I78
I18022
tp2922
sS'ALGER AV. TEL HODKINS 1-7371'
p2923
(g2263
I62
I15876
tp2924
sVWASHINGTON. TELS GASNEE 1-4710. 1-4711, 1-4712
p2925
(g1620
I73
I16854
tp2926
sVBROAD- AN
p2927
(g189
I87
I15793
tp2928
sS'WESTMINSTER, TEL JACKSON 1-6700; CORNER DORRANCE AND WESTMINSTER, 244 WEYBOSSET, 238 THAYER, 434 SMITH, 1 OLNEYVULE SQ'
p2929
(g43
I61
I15991
tp2930
sS'RES- ERVOIR AVE'
p2931
(S'RESERVOIR AVE'
p2932
I88
I17303
tp2933
sS"HOSPITAL TRUST BLDG 15 WESTMIN- 'MR, TEL JACKSON 1-1100"
p2934
(S'HOSPITAL ST'
p2935
I67
I15878
tp2936
sS"CUSTOM HOUSE, TEL GASPEE 1-69'00"
p2937
(g320
I80
I15820
tp2938
sS"' CIANSTON, TEL GASPEE 1-6788"
p2939
(g741
I68
I15817
tp2940
sS'WEIATMINSTER ST'
p2941
(g501
I88
I15991
tp2942
sVFOUNTAIN
p2943
(g2269
I92
I15853
tp2944
sS'CUSTOM HOUSE ST. R403'
p2945
(S'CUSTOM HOUSE ST'
p2946
I93
I15820
tp2947
sVCHALKM STONE AV
p2948
(g126
I76
I17433
tp2949
sS'TURKS HEAD BLDG 76 I. WESTMINSTER, TEL GASPEE 1-2154 HANSON KIRK'
p2950
(g5
I67
I15991
tp2951
sVEXCHANGE R5 02
p2952
(g201
I88
I15846
tp2953
sVUNION R409  DRESS TRIMMINGS AND BRAIDS
p2954
(VTERMINAL RD
p2955
I48
I16838
tp2956
sVDORREINCE
p2957
(g605
I76
I15829
tp2958
sVBROAD AND 412 LLOYD
p2959
(g189
I72
I15793
tp2960
sS'CYRV  CONTRACTORS- F IDOR'
p2961
(S'CONCORD ST'
p2962
I54
I16119
tp2963
sS'CUSTOM HOUSE LST FL'
p2964
(g2946
I94
I15820
tp2965
sS'), TEL 944-2500'
p2966
(S'I 95'
p2967
I35
I15881
tp2968
sVARCADE BLDG 777 BROAD 379 ELMWOOD AV AND 197 WEYBOSSET
p2969
(g28
I63
I15992
tp2970
sVMILL, JOHNSTON, RI, TEL JACKSON 1-2704
p2971
(g382
I66
I16707
tp2972
sS'BROAD RUESCH H J 159 CROOM SHARPE C W MACHINERY SERVICE 1100 ELM- WOOD AV'
p2973
(S'MACLAINE DR'
p2974
I46
I16303
tp2975
sVN MAIN MACARONI MANUFACTURERS
p2976
(g461
I50
I16308
tp2977
sVINDUSTRIAL BANK BLDG, TEL GASPEE 1-7345, IF N0 ANSWER CALL CENTREDALE 1-9236
p2978
(g746
I65
I16249
tp2979
sS'THMINSTER ST'
p2980
(g501
I82
I15991
tp2981
sS'WASHINGTON 4TH FL  DANCING SCHOOLS AND'
p2982
(g1279
I74
I15986
tp2983
sS'VALE BAIL BONDS'
p2984
(S'BOND ST'
p2985
I67
I15786
tp2986
sVWEYBOSSET R45 BROKERS-COTTON
p2987
(g28
I80
I15992
tp2988
sVWEYBOSSET. R1. TEL GASPEE 1-4436
p2989
(g28
I76
I15992
tp2990
sS'HARTFORD AV LYNCH RAYMOND F 81 RIVER AV'
p2991
(S'HARTFORD AVE'
p2992
I73
I17889
tp2993
sVWESTMIN- STER TSTOVES AND RANGES- GAS
p2994
(g63
I67
I15991
tp2995
sVWESLEVAN AV
p2996
(VWESLEYAN AVE
p2997
I87
I17353
tp2998
sS'BROAD, TEL JACKSON 1-9600'
p2999
(g2363
I73
I16253
tp3000
sVALLEN1S AV
p3001
(g2557
I91
I15768
tp3002
sS'WASHINGTON, TEL GASPEE 1-4436'
p3003
(g1346
I81
I16854
tp3004
sVHIGH. PAWTUCKET, TEL PAWTUCKET 2-7900'
p3005
(g80
I62
I16772
tp3006
sS'. EM- PIRE R518'
p3007
(S'EMPIRE ST'
p3008
I73
I15840
tp3009
sS'PEARL'
p3010
(S'PEARL AV'
p3011
I88
I16774
tp3012
sVHOSPITAL TRUST BLDG 15 WESTMINSTER, TEL GASPEEV1-9870
p3013
(g63
I69
I15991
tp3014
sS'WOONAS AVE'
p3015
(S'POMONA AVE'
p3016
I73
I17628
tp3017
sS'357 WESTMINSTER'
p3018
(g5
I88
I15991
tp3019
sVEXCHANGE P1R412
p3020
(g201
I87
I15846
tp3021
sVWEST- MINS TER JUNC
p3022
(VWEST VIEW AV
p3023
I76
I21346
tp3024
sVAND LEFT TOP LINES) LABORATORY APPARATUS AND SUPPLIES
p3025
(VLIBRARY RD
p3026
I51
I17565
tp3027
sV-9050, 1-9051
p3028
(g1908
I53
I15880
tp3029
sS'MINERAL SPRING AVE'
p3030
(g2783
I98
I18640
tp3031
sS'WEYBOSSET, TEL ELMHURLT 1-3800'
p3032
(g54
I77
I15992
tp3033
sS'ALGER AV, TALE 80P- LDNS 1-7370, HOPK1NH 1-7371'
p3034
(g2263
I46
I15876
tp3035
sS'FALLON'
p3036
(S'FALLON AVE'
p3037
I87
I17494
tp3038
sS'MATHEWSON, TEL JACKSON 1-9800; BRANCH 475 ANGELL, GARDEN CITY BRANCH 80 HILLSIDE RD'
p3039
(S'MATHEWSON ST'
p3040
I63
I21041
tp3041
sS'BROAD SUNLIGHT VENETIAN BLIND CO 87 WEYBOSSET'
p3042
(g173
I66
I15992
tp3043
sS"-768 -' BROAD  *HOSPITAL BEDS-WM AND"
p3044
(g2935
I74
I15878
tp3045
sS'WESTMINSTER 4TH FL'
p3046
(g5
I90
I15991
tp3047
sVS MAIN TIRE DEALERS AND REPAIRERS
p3048
(g404
I50
I15839
tp3049
sVWEST- MINSTER, TEL JACKSON 1-9700; BRANCHES1 62 DORRANCE, 100 WEST- MINSTER
p3050
(g60
I51
I16067
tp3051
sVCHARLES BLDG 34
p3052
(g730
I82
I16096
tp3053
sS'HOOEST'
p3054
(S'HOOKER ST'
p3055
I73
I17536
tp3056
sVVEAZIE 1
p3057
(VVEAZIE ST
p3058
I91
I16515
tp3059
sVAND LEFT TOP LINES)
p3060
(VALPINE CT
p3061
I58
I16885
tp3062
sVWESTMINSTER; TEL GASNEE 1-6010
p3063
(g63
I80
I15991
tp3064
sS'BRANCH AV AND 111 WEST- MINSTER R1904'
p3065
(g5
I63
I15991
tp3066
sVWASHINLZTON R214
p3067
(g137
I77
I15986
tp3068
sS'WE; BOSSET'
p3069
(g173
I78
I15992
tp3070
sV85 WHIPPLE
p3071
(g2806
I85
I17716
tp3072
sS'-264 WEYBOSSET ST'
p3073
(g69
I93
I15992
tp3074
sS'PORTER'
p3075
(S'PORTER ST'
p3076
I90
I16784
tp3077
sVBROAD
p3078
(g189
I88
I15793
tp3079
sS'WEST- MINSTER MALL'
p3080
(g501
I77
I15991
tp3081
sS'CADILLACDR'
p3082
(S'CADILLAC DR'
p3083
I92
I17174
tp3084
sVEMPIRE, TEL GABPEE 1-7256
p3085
(g404
I75
I15839
tp3086
sVWEYBOSSET R523
p3087
(g28
I88
I15992
tp3088
sS'BENEFIT  CAMERAS-DEALERS AND'
p3089
(g2464
I74
I15781
tp3090
sS'QUNTALN. TEL UNION 1- 5000'
p3091
(g1234
I53
I15853
tp3092
sVBROADWAY, TELS UNION 1-5713 AND JACKSON 1-9452 HOS PITALS AND DIS PENSARIES
p3093
(VPARKIS AVE
p3094
I42
I17282
tp3095
sS'CHESTNUT. TELS DEXTER 1-0254 AIM DEXTER 1-2253'
p3096
(g92
I69
I15807
tp3097
sVMASSASOIT AV, EAST PROVIDENCE, TELS EAST PROVIDENCEV1-3881 , 1 -2095
p3098
(g101
I62
I17299
tp3099
sV-4900,
p3100
(g396
I29
I15881
tp3101
sS'FALLON MILLAR RAYMOND I 185 BROAD MILLER WM H CO 56 BISHON'
p3102
(S'RAYMOND ST'
p3103
I63
I17639
tp3104
sS'BELMONT AV'
p3105
(S'BELMONT AVE'
p3106
I97
I17398
tp3107
sVELMWOOD
p3108
(g211
I89
I17207
tp3109
sS'WASHINGTON, TEL DEXTER 1-1234'
p3110
(g2834
I79
I15986
tp3111
sS') TELS 647- 3381, 351-1149'
p3112
(g449
I51
I15775
tp3113
sS'AT- WELLS AV'
p3114
(S'ATWELLS AVE'
p3115
I87
I15775
tp3116
sS"WICKENDEN FABRIC SHOP 29 ACADEMY AV 0 FLORENCE MRS 95 IVES Y'L DRY GOODS 337 ATWELLS AV EPH LOUIS J 55 POMONA AV EPH NASSEF 110 OLNEY E'S RETAIL TOWEL STORE 257 BROAD MM RICHD M 353 SMITH TMN H 499 CRANSTON"
p3117
(g310
I55
I15995
tp3118
sS'SEEKONK R7 6 BARRON CO'
p3119
(S'SEEKONK ST'
p3120
I75
I17097
tp3121
sS'PITMAN MUTTON ARMY-TEMPLE CORPS 27 CHESTNUT SULVATION ARMY THE CITADEL CORPS 758 WEST- MINSTER TRAVELERS AID SOCIETY OF PROVIDENCE INC UNION STATION U 8 GOVERNMENT HEALTH EDUCATION & WELFARE DEPARTMENT OF INFORMATION SERVICE FOR CHRONICALLY 111 333 GROTTO AV'
p3122
(S'NORMAN DR'
p3123
I39
I16362
tp3124
sVFARMINGTON AV
p3125
(VFARMINGTON AVE
p3126
I98
I17853
tp3127
sVMANTON AV  *' PE TROLE UM PRODUCTS
p3128
(g2724
I48
I16409
tp3129
sVWESTMINSTER 5TH FL
p3130
(g63
I90
I15991
tp3131
sVRANDALL, TELS DEXTER 1-8094. 1-8095
p3132
(VRANDALL ST
p3133
I73
I16417
tp3134
sVWASHINGTON R363
p3135
(g137
I89
I15986
tp3136
sS'CRANSTON VALLEY STREET AUTO SALES 424 VALLEY'
p3137
(g965
I70
I15817
tp3138
sS'ORMS BOND FURNITURE CO 730 WESTMINSTER BUCCI AMERICO 121 GLOVER'
p3139
(g5
I65
I15991
tp3140
sS'WEYBOSSET. TEL SMART 1-0100'
p3141
(g54
I81
I15992
tp3142
sV-5450; WASHINGTON PARK
p3143
(g137
I86
I15986
tp3144
sS'BIMS AV, TEL GASPEE 1-0173'
p3145
(g407
I70
I15863
tp3146
sVGOR-
p3147
(VGEORGE ST
p3148
I58
I16670
tp3149
sS', WESTMINSTER'
p3150
(g5
I94
I15991
tp3151
sVSILVER SPRING
p3152
(g1918
I95
I16454
tp3153
sVWEST- MINSTER, TEL JACKSON 1-9700
p3154
(g63
I68
I15991
tp3155
sS"PITMAN. TELS UNLON 1-3960 AND W101; 1-3961 '"
p3156
(S'PITMAN ST'
p3157
I66
I17073
tp3158
sVE ELM- WOOD AV
p3159
(VEAST DR
p3160
I76
I16159
tp3161
sVWEYBOSSET PIANO TUNERS AND REPAIRERS
p3162
(g28
I73
I15992
tp3163
sS'KNIGHT JOHNSON KENNETH G 6043- CAMP'
p3164
(g1438
I70
I16707
tp3165
sS'HARRIS  FRUIT BUYERS, PACKERS AND'
p3166
(S'PACKET ST'
p3167
I53
I15922
tp3168
sVWESTMINSTER R902
p3169
(g63
I90
I15991
tp3170
sVWESTMINSTER R903
p3171
(g63
I90
I15991
tp3172
sVUNION AV *CONTRAC TORS- PAINTING
p3173
(g106
I52
I15978
tp3174
sVWESTMINSTER, TEL GABPEE 1-3352
p3175
(g63
I80
I15991
tp3176
sVGORDON AV, RITLIIL HOPKINS 1-2560
p3177
(VRILL ST
p3178
I52
I17646
tp3179
sS'CANAL BEATRICE FOODS CO 1 WASHINGTON AV COOPER & SISSON INC 16 TERMINAL WAY EASTERN STATES FARMERS EXCHANGE INC'
p3180
(g1346
I61
I16854
tp3181
sS'WESTMINSTER R1 3'
p3182
(g43
I90
I15991
tp3183
sVWESTMINSTER R12
p3184
(g63
I91
I15991
tp3185
sVBICHMOND SQUARE. TELSF PLANTATIONS 142260, '1-2201
p3186
(g106
I52
I15978
tp3187
sS'ELIZA'
p3188
(S'ELIZA ST'
p3189
I88
I17843
tp3190
sVCENTRAL. TE)ZL GASPEE 1-0081
p3191
(g2746
I76
I16095
tp3192
sS'CENTER ST, SUITE 3, MIDDLEBORO. MI'
p3193
(S'MIDDLE ST'
p3194
I55
I15910
tp3195
sS'P11- SUDSLCL ST'
p3196
(S'UDELL ST'
p3197
I65
I16506
tp3198
sVWESTMINSTER R 703
p3199
(g63
I88
I15991
tp3200
sVBROAD, TEL GASNEE 1 -53 00
p3201
(g267
I59
I15863
tp3202
sVWESTMINSTER R19
p3203
(g63
I91
I15991
tp3204
sS'WEETMIMTERSTRM201'
p3205
(g716
I61
I15991
tp3206
sVCENTRAL, TEL GASPEE 1-0081
p3207
(g2746
I78
I16095
tp3208
sVALLENS AV
p3209
(g2557
I97
I15768
tp3210
sS'THE. 336 ABOM. TEL DEXTER 1-1000'
p3211
(g878
I68
I17198
tp3212
sVSPARROW
p3213
(VSPARROW ST
p3214
I91
I17669
tp3215
sVWESTMINSTER R11
p3216
(g63
I91
I15991
tp3217
sVWESTMINSTER R10
p3218
(g63
I91
I15991
tp3219
sVWESTMINSTER R1409
p3220
(g63
I88
I15991
tp3221
sVWALDO, TEL STUART 1-5050
p3222
(g906
I56
I15963
tp3223
sVWESTMINSTER R15
p3224
(g63
I91
I15991
tp3225
sVWESTMINSTER R14
p3226
(g63
I91
I15991
tp3227
sVWESTMINSTER R17
p3228
(g63
I91
I15991
tp3229
sVWESTMINSTER R16
p3230
(g63
I91
I15991
tp3231
sS'WATERMAN  ADVERTISING COUNSEL AND'
p3232
(g37
I54
I16018
tp3233
sVWEYBOSSET, R1, TEL GASPEE 144436
p3234
(g28
I76
I15992
tp3235
sVSOMERSET
p3236
(VSOMERSET ST
p3237
I92
I17325
tp3238
sVC RANST ON
p3239
(g572
I76
I15817
tp3240
sS'N MAIN R18'
p3241
(S'N MAIN ST'
p3242
I90
I15916
tp3243
sVLINCOLN
p3244
(VLINCOLN AVE
p3245
I89
I16283
tp3246
sS'AT- WOOD AVE'
p3247
(S'ATWOOD AVE'
p3248
I87
I16037
tp3249
sS'WINTHROP AV KRAFT FOODS 1500 BROAD R1'
p3250
(S'WINTHROP AVE'
p3251
I72
I17720
tp3252
sS'ABBOTT PARK PL LST F1'
p3253
(S'ABBOTT PARK PL'
p3254
I90
I15762
tp3255
sVUNION R202
p3256
(VUNION ST
p3257
I83
I15977
tp3258
sS'; LOAN'
p3259
(S'LYON CT'
p3260
I65
I15898
tp3261
sVPLAINFIELD WASTE DEALERS-COTTON. SILK AND WOOL
p3262
(g1255
I72
I17994
tp3263
sVALAB AMA NAZARE NE
p3264
(VBONAPARTE ST
p3265
I57
I16064
tp3266
sVWEYBOSSET DRY GOODS-WHOLESALE
p3267
(g28
I77
I15992
tp3268
sVMATIEWSON, TEL GASPEE 1-5800
p3269
(g362
I70
I15904
tp3270
sV-45 B R O ADWAY
p3271
(g546
I70
I15794
tp3272
sS'HOWARD STREET DETROIT, MICHIGAN 48231'
p3273
(g2098
I69
I16732
tp3274
sVDE LAME
p3275
(VEAMES ST
p3276
I60
I16955
tp3277
sS'EUDORA  LACES AND EMBROIDERLES-'
p3278
(S'CAMBRIDGE ST'
p3279
I50
I17420
tp3280
sVSEAMANS  TAILORS
p3281
(VSEAMANS ST
p3282
I86
I17662
tp3283
sVWAMPANOAG TRAIL. EAST PROVIDENCE, TEL GENEVAI 4-7400
p3284
(g101
I69
I17299
tp3285
sS'WELLINGTON'
p3286
(g555
I91
I17352
tp3287
sV84 BALBO AV
p3288
(VALBRO ST
p3289
I66
I15767
tp3290
sS"WESTMINSTER. TEL GASOEE 1-6010'"
p3291
(g43
I80
I15991
tp3292
sVCUSTOM HOUSE R202 VENETIAN BLINDS-MANUFAC- TURERS
p3293
(VGENTIAN AVE
p3294
I55
I16200
tp3295
sS'ABBOTT PARK P1 LST FL'
p3296
(S'ABBOTT PARK PL'
p3297
I90
I15762
tp3298
sVALLEN'S CONTRACTORS-SEWER AND DRAIN
p3299
(g1490
I50
I16119
tp3300
sVEMPIRE R528
p3301
(g217
I85
I15840
tp3302
sVW PARK
p3303
(VW PARK ST
p3304
I93
I17704
tp3305
sVCUSTOM HOUSE R42-43-44, TEL GASPEE 1-9856
p3306
(g416
I75
I15820
tp3307
sVCUSTOM HOUSE, TEL GABPEE 1-6900
p3308
(g416
I81
I15820
tp3309
sVEXCHANGE, TEL GASPEE 1-1860
p3310
(g201
I79
I15846
tp3311
sVROCHAMBEAU
p3312
(g672
I91
I17088
tp3313
sS'T WASHINGTON ST'
p3314
(S'WASHINGTON ST'
p3315
I96
I15987
tp3316
sVWEYBOSSET, TEL GASPEE 1-2700; 280 ATWELLS AV, TEL GASBEE 1-3244'AND 591 CHARLES, TEL GASBEE 1-5550
p3317
(g28
I61
I15992
tp3318
sVPETTIS
p3319
(VPETTIS ST
p3320
I90
I16396
tp3321
sVINDUSTRIAL BANK BLDG 111 WESTMINSTER, TEL GAAPEE 1-8510
p3322
(g63
I69
I15991
tp3323
sS'FARNUM PIKE'
p3324
(S'FARM ST'
p3325
I68
I17495
tp3326
sVEMPIRE R 6
p3327
(g217
I87
I15840
tp3328
sVINDUSTRIAL BANK BLDG 111 WEST- MINSTER, TEL DEXTER 1-9100
p3329
(g746
I69
I16249
tp3330
sVE1MWOOD AV
p3331
(g211
I86
I17207
tp3332
sS"FED- ERAL ELMGROVE GARAGE 69 ELMGROVE AV FISHER'S A1 GARAGE 14 WARRINGTON FRANK'S AUTO REPAIR 106 HARTFORD AV FRATUS BRAKE & WHEEL SERVICE INC 138 RANDALL GULLO'A GARAGE 3; MARVIN GRAY'- TOWING SERVICE 19 LIVINGSTON"
p3333
(S'WARRINGTON ST'
p3334
I55
I17350
tp3335
sS'MINERAL 3911118 AWN PROV)'
p3336
(g2783
I77
I16343
tp3337
sVWEST- MINSTER R1109
p3338
(g63
I76
I15991
tp3339
sS'GORDAL AV. TEL WMUM 1-1111'
p3340
(S'FLORAL AVE'
p3341
I56
I16663
tp3342
sS'WESTMINSTER MM M PAUL J 177 WEBDER AV I MVWJ 193MM'
p3343
(g43
I69
I15991
tp3344
sS'REGENT AV LICARPO THOMAS J 87 PIKE'
p3345
(S'CAROL CT'
p3346
I48
I17794
tp3347
sV; PRAIRIE AV
p3348
(g1334
I97
I16787
tp3349
sVWESTMINSTER R301
p3350
(g63
I90
I15991
tp3351
sVWESTMINSTER, TELS DEXTER 1-3400, 1-3401
p3352
(g63
I77
I15991
tp3353
sVWESTMINSTER R307
p3354
(g63
I90
I15991
tp3355
sVWESTMINSTER R309
p3356
(g63
I90
I15991
tp3357
sVSEEKONK, TEL UNION 1-1110
p3358
(g469
I76
I17097
tp3359
sVDORRANCE 4TH
p3360
(g605
I93
I15829
tp3361
sV471 CRANSTON
p3362
(g572
I85
I15817
tp3363
sVEAGLE CONSTABLES
p3364
(VSAYLES ST
p3365
I55
I16809
tp3366
sVAND LEFT SIDE LINES)
p3367
(VALDINE ST
p3368
I61
I17738
tp3369
sVFEDERAL BLDG * LIFE INSURANCE
p3370
(g667
I56
I15850
tp3371
sVWEST- MINSTER, TEIS ELMHURST 1-1098 AND 1-0570
p3372
(g120
I68
I17482
tp3373
sVMAIN, PAWTUCKET, TEL PAWTUCKET 3-1290; BLACKSTONE VALLEY AND THE ATTLEBOROS
p3374
(g808
I65
I16904
tp3375
sVPOTTERS AV
p3376
(g438
I97
I16786
tp3377
sS"HOSPITAL TRUST BLDG. 15 WESTININSTER S'T"
p3378
(S'WESTMINSTER ST'
p3379
I66
I15991
tp3380
sS'HARRI-'
p3381
(S'HARRIS AVE'
p3382
I79
I15869
tp3383
sVRICHMOND SQ,
p3384
(VRICHMOND SQ
p3385
I100
I17086
tp3386
sVRATHBBHE
p3387
(g1690
I69
I17637
tp3388
sS'HOSNITAL TRUST BLDG 15 WESTNIINSTER SF'
p3389
(g501
I66
I15991
tp3390
sVGEORGE M C OHAN BLVD
p3391
(g2370
I98
I15864
tp3392
sV513 DEXTER
p3393
(g602
I81
I17198
tp3394
sS'EXCHANZE ST, 11300'
p3395
(S'EXCHANGE ST'
p3396
I79
I15845
tp3397
sVWEY- BOSSET, TEL GASPEE 1-2452  *LOANS
p3398
(g28
I64
I15992
tp3399
sVELMG'ROVE AV
p3400
(VELMGROVE AVE
p3401
I79
I16960
tp3402
sS"EDDY, TELS WILLIAMS 1-7770, NIGHTS WNLIAMS 1-9082 AND WMIHMS' 2-2033"
p3403
(S'ROGER WILLIAMS GREEN ST'
p3404
I67
I16430
tp3405
sVRHODES, TEL GABPEE 1-7636; BRANCH SALESROOM AND WAREHOUSE 115 RAILROAD, WOONSOCKET, RI, TEL POPLAR 9-7636
p3406
(VWOONASQUATUCKET AV
p3407
I46
I18113
tp3408
sS'SMITH  UPHOLSTERING FABRICS AND'
p3409
(g14
I56
I18055
tp3410
sVWAVLAND AIL
p3411
(g1382
I79
I17125
tp3412
sVARCADE BLDZ
p3413
(VARCADE ST
p3414
I85
I15773
tp3415
sVPOTTER' 5 AV
p3416
(g438
I87
I16786
tp3417
sVCHARLES
p3418
(g730
I91
I16096
tp3419
sS'ROOSEVELT AVE'
p3420
(S'ROOSEVELT ST'
p3421
I90
I16432
tp3422
sS"WEST- MINSTER, TEL' TEMPLE 1-2500"
p3423
(g5
I68
I15991
tp3424
sV687 CHARLES
p3425
(g730
I83
I16096
tp3426
sS'ASHBURTON  *BOILER REPAIRS AND'
p3427
(S'ASHBURTON ST'
p3428
I77
I16032
tp3429
sV8
p3430
(V8TH ST
p3431
I39
I16878
tp3432
sVCHARLES 'CEMENT COLORS
p3433
(g730
I79
I16096
tp3434
sVRANDALL POWER PLANT EQUIPMENT AND SUPPLIES
p3435
(VCLEMENT ST
p3436
I47
I16105
tp3437
sS'WESTMINSTER, TEL JACKSON 1-6700; CORNER DORRANCE AND WESTMINSTER, 244 WEYBOSSET, 238 THAYER, 1 OLNEYVME SQ AND 434 SMITH'
p3438
(g43
I61
I15991
tp3439
sV2\u000aWEYBOSSET, TEL STUART 1-0100
p3440
(g28
I79
I15992
tp3441
sVHOPE AND 472 POTTERS AV
p3442
(g438
I79
I16786
tp3443
sVPINE, TEL GASPEE 1-1131
p3444
(g267
I72
I15863
tp3445
sVDORRANCE R518  L' TRAVELERS' CHEQUES
p3446
(g1538
I61
I17117
tp3447
sS'WESUNINSTER ST'
p3448
(g716
I84
I15991
tp3449
sVELMOREST AV
p3450
(VELMCREST AVE
p3451
I87
I17480
tp3452
sVDOUGLAS AV AND 76 WESTMINSTER R814
p3453
(g63
I75
I15991
tp3454
sVFRANKLIN R208-09
p3455
(g1768
I83
I15856
tp3456
sS'&TV10'
p3457
(g2004
I43
I16868
tp3458
sV300 PLAINFIELD
p3459
(g1255
I87
I17994
tp3460
sS'SUFFOLK'
p3461
(S'SUFFOLK ST'
p3462
I91
I17675
tp3463
sVMONTI- CELLO F10RISTS4RETAIL
p3464
(g1504
I45
I16403
tp3465
sS'D6NANCE ST'
p3466
(S'DIANE ST'
p3467
I72
I16144
tp3468
sVWESTMINSTER BOOKS-SECOND HAND
p3469
(g63
I80
I15991
tp3470
sS'HOPE, TEL DEXTER 1-2244'
p3471
(g1517
I72
I17198
tp3472
sVEDDY R407
p3473
(g1252
I81
I15834
tp3474
sS'BRANCH AV.'
p3475
(S'BRANCH AVE'
p3476
I97
I16067
tp3477
sVDEXTER AFRICAN METHODIST
p3478
(VMODESTA ST
p3479
I52
I16345
tp3480
sS'INDUSTRIAL BUNK BLDG 111 WESTMINSTER, TEL DEX- HR 1-2400'
p3481
(g5
I69
I15991
tp3482
sS'EXCHANGE TAR'
p3483
(S'EXCHANGE TER'
p3484
I96
I15846
tp3485
sS'TECTION, MOISTENING, INDUSTRIAL PIPING, HEATING AND POWER EQUIPMENT), 260 WEST EXCHANGE, TEL TEMPLE 1-7000 41'
p3486
(S'MORNING STAR ROW'
p3487
I46
I17267
tp3488
sVPEHCE
p3489
(g1788
I71
I17286
tp3490
sVFOUNTAIN COR ABORN
p3491
(g2269
I81
I15853
tp3492
sVCANDAC E
p3493
(VCANDACE ST
p3494
I89
I17422
tp3495
sS'WEY- THAT 3D FL'
p3496
(S'TAFT ST'
p3497
I56
I16832
tp3498
sVHARRIS AV SCREENS
p3499
(VCREST AVE
p3500
I56
I16128
tp3501
sV279 PLAINFIE 1D
p3502
(g1255
I76
I17994
tp3503
sS"WEYBOSSET R19 CECE'MARIE 17 EXCHANGE R321 DAVIDS LOUISE N 76 DORRANCE R504 GORDON LILLIAN 111 WESTMINSTER R419"
p3504
(g5
I61
I15991
tp3505
sS'-134 FOUNTAIN. TEL GASPEE 1-9785'
p3506
(g1234
I74
I15853
tp3507
sS'DORRANCE AM 11'
p3508
(g483
I86
I15829
tp3509
sV87 WEYBOSSET R228
p3510
(g28
I84
I15992
tp3511
sS'WEYBOSSET, TEL TEMPLE 1-7900'
p3512
(g54
I78
I15992
tp3513
sVDEXTER; TEL WILLIAMS 1-6900  WATCH MANUFACTURERS
p3514
(g424
I44
I16273
tp3515
sVINDUSTRIAL BANK BLDG 111 WESTMINSTER STREET, SERVICE OFFICE IN LOBBY, TEL JAC'KSON 1-3900
p3516
(g63
I64
I15991
tp3517
sS"-30 NARRAGANSETT AV. TELL STNART 1-0300. S'L'NART 1;0001"
p3518
(g2150
I71
I16747
tp3519
sVANGELL'
p3520
(g790
I90
I16022
tp3521
sVWEYBOSSET R225
p3522
(g28
I88
I15992
tp3523
sVW EXCHANGE, TEL GASPEE 1-7333
p3524
(g859
I82
I15982
tp3525
sS"'UTMLNLTER"
p3526
(S'UTTER ST'
p3527
I65
I16511
tp3528
sS'WEYBOUET ST'
p3529
(S'WEYBOSSET ST'
p3530
I84
I15992
tp3531
sS'WASHINGTON R310'
p3532
(g1279
I89
I15986
tp3533
sVPARSON- AGE  BUILDINGS-OFFICE AND PUBLIC
p3534
(g2701
I52
I16982
tp3535
sS"WESTMLN'STER, LAPLMM BLDG, TEL ELM- BURST 1-9280' SIMONENI VINCENT S 239 ATWELLS AV 6 0*CLOCK DISCOUNT SHOPPE 77 BROAD STRAND JEWELERS 77 WASHINGTON R211"
p3536
(g894
I57
I15987
tp3537
sVCUSTOM HOUSE R202 "MANUFACTURING JEWELERS
p3538
(VE MANNING ST
p3539
I50
I16951
tp3540
sVAND
p3541
(g198
I73
I16020
tp3542
sVLAND SHIPPING ASSOCIATION 54 CUSTOM HOUSE R42
p3543
(g106
I55
I15978
tp3544
sV602 ELMWOOD AV  ARTISTS
p3545
(g211
I80
I17207
tp3546
sV7 WE 5 TRN INS TER R4 04
p3547
(VTRENT ST
p3548
I56
I17686
tp3549
sVPLEASANT *CARPENTERS AND BUILDERS
p3550
(g706
I72
I15801
tp3551
sVAMIGA BLDG 10 WEYBOSSET, TEL GASPEE 1-3500
p3552
(g28
I71
I15992
tp3553
sS'TURKS HEAD PLRM321'
p3554
(g2328
I50
I15976
tp3555
sS'WEST- MLNSTER. TEL JACKSON 1-9700'
p3556
(g43
I60
I15991
tp3557
sVATWELLS AV,
p3558
(g146
I97
I15775
tp3559
sVWEYBOSSET R204 WOOLEN GOODS-JOBBERS
p3560
(g28
I73
I15992
tp3561
sS"WESTMINSTER CDNTF'S GRILLE 326 CRANSTON CONTINENTAL DINER 227 BROAD"
p3562
(g43
I66
I15991
tp3563
sV9  WASH R402
p3564
(g779
I56
I17712
tp3565
sVW EXCHANGE, TEL DEXTER 1-5800
p3566
(g859
I82
I15982
tp3567
sVSTORES 109 KNIGHT
p3568
(VSTOKES ST
p3569
I68
I18058
tp3570
sS'WESTMINSTER 35 STRM401'
p3571
(g501
I89
I15991
tp3572
sVWESTMINSTER R1525
p3573
(g63
I88
I15991
tp3574
sS'CORLISS, TEL GASPEE 1-4991'
p3575
(S'CORLISS ST'
p3576
I75
I16123
tp3577
sVBLACKSTONE SASH, WINDOWS, DOORS AND TRIM-DEALERS
p3578
(VBLACKSTONE ST
p3579
I72
I15785
tp3580
sVWESTMINSTER R911
p3581
(g63
I90
I15991
tp3582
sS'S ANSELL ST'
p3583
(S'S ANGELL ST'
p3584
I88
I17093
tp3585
sS'4'
p3586
(S'4TH ST'
p3587
I39
I16874
tp3588
sS'), TEL 861-6800'
p3589
(S'6TH ST'
p3590
I25
I16876
tp3591
sVL& BROAD
p3592
(g189
I83
I15793
tp3593
sVPOCASSET AV. TEL TEMPLE' '1-54Z1
p3594
(g248
I79
I17995
tp3595
sVAND RIGHT TOP LINES) ELECTROLYTIC TREATMENT
p3596
(VELMCROFT AVE
p3597
I46
I17481
tp3598
sVPOCASSVET AV
p3599
(g248
I93
I17995
tp3600
sS'BEACH AND UNION STATION  TAXIMETERS-SALEB AND'
p3601
(S'BAXTER ST'
p3602
I46
I16579
tp3603
sS'CENTRAL. TEL GASPEE 1-0081'
p3604
(S'CENTRAL AVE'
p3605
I78
I16095
tp3606
sS"CHTOM NOUN STREET. TEL GASM'AE 14M"
p3607
(S'POINT STREET BRG'
p3608
I72
I16403
tp3609
sS'CUSTOM HOUSE RM 303'
p3610
(g2946
I88
I15820
tp3611
sS'HARTFORD'
p3612
(g2992
I90
I17889
tp3613
sS'SHER- 5); M. TEL. 8131111 1-4525, 14526'
p3614
(g278
I25
I16869
tp3615
sVRICH- MOND * AUTOMOBILE FINANCING
p3616
(g1032
I46
I17790
tp3617
sS'HILL HOUSE 400 ATWELLS AV'
p3618
(S'ATWELLS AVE'
p3619
I78
I15775
tp3620
sS'PILSUDSKI  STORE FIXTURES AND FITTINGS BLOOM WM & SON INC 68 SALEM FARRON WOODWORKING MANUFACTURING CO 183 HARTFORD AV'
p3621
(S'E MANNING ST'
p3622
I40
I16951
tp3623
sVWINTER
p3624
(VWINTER ST
p3625
I90
I15999
tp3626
sVWES TMINSTE R, TEL GASPEE 1-2232
p3627
(g63
I68
I15991
tp3628
sS'CHALKSBONE AVE'
p3629
(S'CHALKSTONE AVE'
p3630
I91
I17433
tp3631
sV71 BROADWAY
p3632
(g546
I86
I15794
tp3633
sVBROOK, TEL DEXTER 1-8020 GEE'YELLOW PAGE 105)
p3634
(g602
I63
I17198
tp3635
sS'WEYBOSSET STRM3DFL'
p3636
(g3530
I90
I15992
tp3637
sS"),.'F'E1 726-8952"
p3638
(g2967
I51
I15881
tp3639
sV;4700
p3640
(g399
I24
I16874
tp3641
sS'WESTMINSTER STRM1804'
p3642
(g716
I91
I15991
tp3643
sS'WEYBOS- SET R29 HEARING INSTRUMENT CO 16 BRIDGHAM MAICO HEARING SERVICE 23 ARCADE BLDG MICROTONE HEARING AIDS CO 236 WESTMIN- STER R610 NATIONAL HEARING ASSOCIATES INC 208 WEY- BOSSET'
p3644
(g3608
I38
I16403
tp3645
sVBROAD, 147 ELMWOOD AV, 259 PRAIRIE AV, 148 W RIVER, 1025 SMITH AND 265 WATERMAN
p3646
(g342
I61
I15988
tp3647
sV1 BROADWAY L*REFRIGERATORS-ELECTRIC
p3648
(VWARRINGTON ST
p3649
I47
I17350
tp3650
sVWESTMINSTER, ROOM 506 TEL GASPEE 1-2636
p3651
(g63
I75
I15991
tp3652
sS'J WEYBMET, TEL STWU-T 1-0100'
p3653
(g54
I60
I15992
tp3654
sVSWISS
p3655
(VSWISS ST
p3656
I88
I18061
tp3657
sVPOCASSET GAUGE MANUFACTURERS
p3658
(g461
I50
I16308
tp3659
sS'FANNINAN AVE'
p3660
(S'CHANNING AVE'
p3661
I69
I16923
tp3662
sS'-3352'
p3663
(g1395
I29
I15881
tp3664
sS'GORDON AV. TEL HOPKLNA 1-2500'
p3665
(g240
I51
I15876
tp3666
sS'WATERMAN ST; RM 105'
p3667
(g594
I88
I15988
tp3668
sVSASSAFRAS PAWNBROKE RS
p3669
(VSASSAFRAS ST
p3670
I82
I17317
tp3671
sVBROAD AGRICULTURAL IMPLEMENT DEALERS
p3672
(VNATURAL HISTORY WY
p3673
I50
I16748
tp3674
sS'ALBERT AV'
p3675
(S'PALMER AV'
p3676
I72
I21105
tp3677
sVPLAINFIELD
p3678
(g1255
I93
I17994
tp3679
sS'N TEL GALPU 1-9595'
p3680
(S'NORTH ROME AVE'
p3681
I75
I16364
tp3682
sVWESTMINSTER R2 1
p3683
(g63
I90
I15991
tp3684
sVCHARLES * RE PAIR LOANS
p3685
(g730
I79
I16096
tp3686
sS'AND DEXTER 1-73381'
p3687
(g878
I76
I17198
tp3688
sS'WEXCHANGE ST'
p3689
(g3396
I95
I15845
tp3690
sVWILLARD AV AUTOMOBILE REPAIRING
p3691
(g1032
I48
I17790
tp3692
sVPOST RD. APPONAUG, TEL REGENT 7-9100
p3693
(g2178
I49
I15927
tp3694
sS'WESTMINSTER, TEL UNION 1- 5400'
p3695
(g5
I81
I15991
tp3696
sVWASH R401
p3697
(g779
I58
I17712
tp3698
sS'BROADWAY CATHEDRAL APARTMENTS 411 WEYBOSSET CENTRAL APARTMENTS 21 BURRILL'
p3699
(S'PARENTE ST'
p3700
I46
I16389
tp3701
sVPINE
p3702
(g1791
I86
I15933
tp3703
sVSMITH GLASS DEALERS-STAINED AND
p3704
(VDALE ST
p3705
I55
I17816
tp3706
sS'WESTMINSTER STRM24'
p3707
(g716
I94
I15991
tp3708
sS'HOW- ARD, DETROIT 31, MICHIGAN'
p3709
(S'MICHIGAN AVE'
p3710
I70
I16732
tp3711
sS'POCAUETAV'
p3712
(S'POCASSET AVE'
p3713
I73
I17995
tp3714
sVWESTMINSTER R313
p3715
(g63
I90
I15991
tp3716
sVWESTMINSTER R311
p3717
(g63
I90
I15991
tp3718
sVSABIN ELEV B 3D FL
p3719
(g117
I73
I15950
tp3720
sS'HOSPITAL TRUST BLDG 15 WESTMINSTER, TEL GASPEE, 1-6070; NEWPORT ENTERPRISE 3535'
p3721
(g43
I65
I15991
tp3722
sVOAK
p3723
(VOAK ST
p3724
I83
I17974
tp3725
sVWEYBOSSET, TEL ELMHURST1-3800
p3726
(g28
I80
I15992
tp3727
sS'INDUSTRIAL BANK BLDG 111 WESTMINSTER, TEL GAS- PEE 1-8510'
p3728
(g5
I69
I15991
tp3729
sS'EMPIRE 1;'
p3730
(g3008
I91
I15840
tp3731
sVWESTMINSTER R5
p3732
(g63
I93
I15991
tp3733
sVWESTMINSTER R6
p3734
(g63
I93
I15991
tp3735
sVWESTMINSTER R2
p3736
(g63
I93
I15991
tp3737
sS'I- GLOBE'
p3738
(S'GLOBE ST'
p3739
I83
I15865
tp3740
sVWESTMINSTER R 703;
p3741
(g63
I88
I15991
tp3742
sVEMPIRE NURSERYMEN
p3743
(g217
I50
I15840
tp3744
sV'C1IFFORD R5
p3745
(g2428
I80
I15811
tp3746
sVWEST- MINS TER R42 0 * FILTERS-AIR-J 'DUST STOP'
p3747
(g3625
I48
I15999
tp3748
sVMANTON LIV
p3749
(g529
I90
I17947
tp3750
sS'ETHAN AND 104 LAUREL , HILL AV'
p3751
(g828
I82
I17926
tp3752
sVA TWELLS AV
p3753
(g146
I91
I15775
tp3754
sVWESTMINSTER, 3D FLOOR, TEL DEXTER 1-1230
p3755
(g63
I75
I15991
tp3756
sS"BRANCH AV ARO RALPH 157 ATWELLS AV LDARONE GUIDO 618 BROAD INO'S BARBER SHOP 80 IVES MPINHA JOHN 154-K CHARLES PITOL BARBER SHOP 514 WESTMINSTER RDENTE MARIO 942 MANTON AV RDINALE ONORATO N 448 MANTON AV RNEVALE KENNETH D 54 BRADFORD"
p3757
(g5
I55
I15991
tp3758
sS'WATERMAN UNICHLBBISANGEN MN JAMES J 996 SINILH OHM THU F 366 ATWELLS AV MB WM J 616 HOPE MI CIRO 0 248 WATHM M1 WERNER 266 WAYLAND AV WU PRISCILLA 154 WATERMAN'
p3759
(S'NICHOLAS BROWN YARD ST'
p3760
I37
I17054
tp3761
sS'WATERMAN, TELS GASPEE 1- 5746, GASPEE 1-8432 AND GASPEE 1-8433'
p3762
(g220
I64
I15988
tp3763
sS'ACORN, TEL GASPEE 1-5800'
p3764
(g407
I72
I15863
tp3765
sV5RANCH AV
p3766
(g60
I83
I16067
tp3767
sS'VALLEY ST, WARS AND STEREO EQUIP-'
p3768
(S'VALLEY GREEN CT'
p3769
I74
I16512
tp3770
sVWEYBOSSET R322
p3771
(g28
I88
I15992
tp3772
sV12 7 DORRANCE
p3773
(g605
I83
I15829
tp3774
sVWEYBOSSET R327
p3775
(g28
I88
I15992
tp3776
sVAND 161 BENEFIT
p3777
(g937
I78
I15781
tp3778
sVWESTMINSTER R303
p3779
(g63
I90
I15991
tp3780
sS"INDUS- TRIAL BANK BLDG, TEL GASPEE 1-7345, IF NO ANSWER CAII CENTREDIILE 1-9236 '  'INBURANCE-OCEAN AND INLAND"
p3781
(g3605
I41
I16095
tp3782
sVWEYBOSSET, ROOM 29, TEL GA'SPEE 1-6062
p3783
(g28
I73
I15992
tp3784
sVHOSPITAL TRUST BLDG 15 WESTMINSTER, TEL GASPEE 1-7736
p3785
(g63
I69
I15991
tp3786
sV322 PRAIRIE AV
p3787
(g1334
I90
I16787
tp3788
sS'-3- BROAD'
p3789
(g1081
I83
I15793
tp3790
sS'RANDA11  POWER PLANT EQUIPMENT AND'
p3791
(S'CLEMENT ST'
p3792
I48
I16105
tp3793
sVWESTMINSTER R412A
p3794
(g63
I88
I15991
tp3795
sVASHBURTON BOILER AND RADIATOR DEALEIE
p3796
(g264
I72
I16032
tp3797
sS'OAKDALE AV, JOHNSTON. RI'
p3798
(g2721
I71
I16707
tp3799
sVSILVEI' LAKE
p3800
(g637
I80
I18039
tp3801
sVCUSTOM HOUSE, TEL GASPEE 1-6900
p3802
(g416
I81
I15820
tp3803
sS'DE ANGELIS DR'
p3804
(S'ANGELL RD'
p3805
I70
I16022
tp3806
sVWESTMINSTER R511
p3807
(g63
I90
I15991
tp3808
sS'WEYBOSSET. TEL MR 1-9439'
p3809
(g54
I81
I15992
tp3810
sVAND LEFT SIDE LINES
p3811
(g3368
I61
I17738
tp3812
sVALLEN'S AV, TEL WLLLIALILS 1-6812
p3813
(g1265
I54
I16590
tp3814
sS'-0250,-131 ELM- GROVE AVE'
p3815
(S'ELMGROVE AVE'
p3816
I74
I16960
tp3817
sVWESTMIN STER R 2001
p3818
(g63
I75
I15991
tp3819
sVINDUSTRIAL BANK BLDG. TEL DASPEE 1-8723  *AUTOMOBILE BATTERIES
p3820
(g746
I68
I16249
tp3821
sVHOPE
p3822
(g2345
I86
I15875
tp3823
sVWESTMINS TER
p3824
(g63
I84
I15991
tp3825
sS'70 WESTMINSTER RI 1 10'
p3826
(g5
I83
I15991
tp3827
sVGEORGE M COHAN BLVD DYERS-TEXTILE AND LEATHER
p3828
(VROYAL LITTLE DR
p3829
I51
I16438
tp3830
sVALLEN'S AV
p3831
(g2557
I83
I15768
tp3832
sVWASHINGTON R308
p3833
(g137
I89
I15986
tp3834
sS'THURBERS AV  PLATERS, SUPPLIES AND'
p3835
(S'THURBERS AVE'
p3836
I77
I16839
tp3837
sVDORRANCE R 505
p3838
(g605
I86
I15829
tp3839
sVWEYBOSSET, TEL GASPEE 1-2700; 280 ATWELIS DV, TEL GASPEE 143244 AND 591 CHARLES. FGL GASPEE 1-5550
p3840
(g28
I61
I15992
tp3841
sS'WESTMINSTER R502 M1 LIFE INSURANCE CO 10 DORRANCE 8311 NATIONWIDE INSURANCE CO 4 PONTIAC AV M ENGLAND FIRE INSURANCE RATING ASSN 198 DYER NU ENGLAND INSURANCE CO 221 WATERMAN NIL ENGLAND MUTUAL LIFE INSURANCE CO 76 VESTMLNATER R507'
p3842
(g43
I55
I15991
tp3843
sS'WATERMAN AVE'
p3844
(g594
I89
I15988
tp3845
sS'WASHINGTON R303'
p3846
(g1279
I89
I15986
tp3847
sVWEVBOSSET R509
p3848
(g28
I79
I15992
tp3849
sVATWELLS AV R23
p3850
(g146
I90
I15775
tp3851
sVCRANSTON, CRANSTON, R1, TEL UNION 1-0215
p3852
(g572
I73
I15817
tp3853
sVWEST MINSTER
p3854
(g63
I81
I15991
tp3855
sV77 FRANKLIN
p3856
(g1768
I86
I15856
tp3857
sVSPRING, PAWTUCKET. TEL PAWTUCKET 5-3394
p3858
(g80
I61
I16772
tp3859
sS'STATION STREET'
p3860
(S'UNION STATION ST'
p3861
I83
I15978
tp3862
sVLIVINGSTON
p3863
(g1274
I93
I16287
tp3864
sVLINCOLN BOSTON 11, MASS IKCIVIL INVESTIGATIONS
p3865
(g106
I53
I15978
tp3866
sVAND LEFT BOTTOM LINES) *MASON CONTRACTORS
p3867
(g1490
I48
I16119
tp3868
sVAND RIGHT TOP LINES) *BUILDING CLEANING-EXTERIOR
p3869
(g2701
I55
I16982
tp3870
sS'ATWELLS  WEAVERB AND REWEAVEBS-'
p3871
(S'BELLEVUE AVE'
p3872
I48
I16051
tp3873
sS'W R6 CHANGE ST'
p3874
(S'W EXCHANGE ST'
p3875
I85
I15982
tp3876
sS'SABIN, TELS GASPEE 1-0170 AND GASPEE 1-3962'
p3877
(g407
I65
I15863
tp3878
sV-6900
p3879
(g396
I29
I15881
tp3880
sV-106 E
p3881
(g2417
I76
I15833
tp3882
sS"WEYBOSSET, TEL S'RUART 1-0100"
p3883
(g54
I77
I15992
tp3884
sVS MAIN  TEXTILE MENDING
p3885
(g3829
I53
I16438
tp3886
sS"HOANLTNL TRUST BLDG 15 WESTMINSTER, TEL GASPEE 1-7221 '"
p3887
(g5
I69
I15991
tp3888
sS'WEYBOSSET, TEL GASPEE 1-8255, NIGHTS AND HOLIDAYS TEL GASPEE 1- 8255'
p3889
(g54
I65
I15992
tp3890
sS'WASH- INGTON'
p3891
(g1279
I79
I15986
tp3892
sVCHARLES BLDG 28 *RELIGIOUS ARTICLES
p3893
(VARLINGTON AVE
p3894
I47
I16892
tp3895
sVSTANW OOD
p3896
(VSTANWOOD ST
p3897
I78
I17331
tp3898
sVAND RIGHT TOP LINES)
p3899
(g1119
I65
I17781
tp3900
sVBOURN  AUTOMOBILE TRAILERS-DEAL- ERS
p3901
(g1032
I51
I17790
tp3902
sV2555 SMITH
p3903
(g2508
I78
I16457
tp3904
sVCANAL, TEL DEXTER 1-0400
p3905
(g602
I72
I17198
tp3906
sVBELLEVUE AV LUTHE RAN
p3907
(g232
I86
I16051
tp3908
sVJACTCSON R2 06
p3909
(g848
I69
I16253
tp3910
sVWASHINGTON AV ANTIQUES
p3911
(g1620
I89
I16854
tp3912
sV176 BENEFIT
p3913
(g937
I83
I15781
tp3914
sVDEXTER
p3915
(g602
I90
I17198
tp3916
sVPUB LIC  * PHOTOGRAPHERS-COLOR
p3917
(VHOOPER PL
p3918
I53
I17537
tp3919
sS'CUSTOM HOUSE, TEL GASPEE 1- 6900'
p3920
(g320
I81
I15820
tp3921
sS'MINERALSPRING AVE'
p3922
(g2783
I82
I18640
tp3923
sVWESTMINSTER, TEL GASPEE 1-7100 BROKERS-MONEY
p3924
(g63
I73
I15991
tp3925
sVANGELL AND 290 WESTMINSTER R402
p3926
(g63
I76
I15991
tp3927
sS'TURKS HEAD PL RM 1010'
p3928
(g2328
I88
I15976
tp3929
sVAND LEFT TOP LINES) BAG MANUFACTURERS
p3930
(g461
I49
I16308
tp3931
sS'WESTMINSTER. TOLE GASPEE 1-1942IND GASPEE 1-4450'
p3932
(g5
I71
I15991
tp3933
sVWESTMINSTER, TEL GASPEE 1-3352
p3934
(g63
I80
I15991
tp3935
sS'EX- CHANGE PL'
p3936
(S'EXCHANGE ST'
p3937
I82
I15845
tp3938
sVRESERVOIR AV, TEL WIILIDMS 1-3 500
p3939
(g184
I78
I17303
tp3940
sS'WEYBMSET STREET'
p3941
(g69
I78
I15992
tp3942
sS'SHERBURNE'
p3943
(S'SHERBURNE ST'
p3944
I93
I16819
tp3945
sVRESERVOIR AV, TEL;WILLIAMS 1-3500
p3946
(g184
I79
I17303
tp3947
sVWESTMINSTER R418
p3948
(g63
I90
I15991
tp3949
sS'BATH. TEL DEXTER 1-0400'
p3950
(g878
I72
I17198
tp3951
sVRICHMOND R301
p3952
(g304
I87
I15946
tp3953
sVWESTMINSTER R412
p3954
(g63
I90
I15991
tp3955
sVWESTMINSTER R401 CHEMISTS-MANUFAC TUBING,
p3956
(g63
I76
I15991
tp3957
sVDORRANCE' TEL GASPEE 1-7600
p3958
(g605
I77
I15829
tp3959
sS'LOCKWOOD STRM222'
p3960
(S'LOCKWOOD ST'
p3961
I90
I15895
tp3962
sVW EXCHANGE
p3963
(g859
I95
I15982
tp3964
sS"TTAYER' NORAH AMERICA J 242 BROADWAY"
p3965
(g1765
I72
I16209
tp3966
sS'STEEPLE FURNACE & DUCT SUPPLY CO 156 CEDAR'
p3967
(g421
I68
I15962
tp3968
sVWESTMINSTER R48-49 4TH FL
p3969
(g63
I83
I15991
tp3970
sVSISSON 3D FL
p3971
(VSISSON ST
p3972
I83
I18042
tp3973
sVCHESTNUT, TEL GASPEE 1-2180
p3974
(g664
I77
I15807
tp3975
sVHARRIS AV
p3976
(g489
I97
I15869
tp3977
sVEDDY AND 729 HOPE
p3978
(g1252
I71
I15834
tp3979
sS'RMSST'
p3980
(S'ORMS ST'
p3981
I75
I16384
tp3982
sVWESTMINSTER R520
p3983
(g63
I90
I15991
tp3984
sS'BROAD AND 229 WESTMINSTER'
p3985
(g5
I78
I15991
tp3986
sVCRESCENT
p3987
(VCRESCENT ST
p3988
I92
I17189
tp3989
sS'BROAD SCARINO JOSEPH 1286 EDDY'
p3990
(S'ROSARIO DR'
p3991
I58
I18016
tp3992
sVWEST- MINSTER, TEL UNION 1-54'00
p3993
(g63
I68
I15991
tp3994
sVJACKSORL
p3995
(g848
I73
I16253
tp3996
sVWASH- 3 I INGTON PL
p3997
(g137
I79
I15986
tp3998
sS'ELMWOOD AV, TEL STUART 1-2050; NORTH MAIN BRAHCH 1340 NORTH'
p3999
(S'ELMWOOD AVE'
p4000
I66
I17207
tp4001
sVALEPPO *GUTTERS AND CONDUCTOR PIPE -GALVANIZED STEEL AND COPPER
p4002
(g2867
I43
I17148
tp4003
sS'), TEL 331-2740'
p4004
(S'4TH ST'
p4005
I25
I16874
tp4006
sVEXCHANGE PL R500
p4007
(g201
I85
I15846
tp4008
sS'WESTMINSTER, TEL JACKSON 1-6700; CORNER DORRANCE AND WESTMINSTER, 244 WEYBOSSET, 238 THAYER, 434 SMITH AND 1 OLNEYVILLE SQ'
p4009
(g43
I60
I15991
tp4010
sS'ELMGROVE AW TETREANLT ALBERT F 43 ELMGROVE AV THAYER JOHN B JR 415 ANGELL *THOMPSON ERNEST D 90 WATERMAN'
p4011
(S'TRENT ST'
p4012
I42
I17686
tp4013
sVNARRAGAN- SETT AV TRADING STAMP COMPANIES
p4014
(g3539
I45
I16951
tp4015
sVMPE, TELS DEXTER 1-3094, 1-3095, RES TELS GASPEE 1-6655, DEXTER 1-8636
p4016
(g602
I62
I17198
tp4017
sS'DOR- RACE ST'
p4018
(S'HORACE ST'
p4019
I80
I17901
tp4020
sS'POWER RD. FACTORY 310 OWEIL AV'
p4021
(S'OBSERVATORY AVE'
p4022
I53
I17058
tp4023
sVPAGE 93;
p4024
(VPAGE ST
p4025
I85
I15923
tp4026
sVNARRAGAN- SETT AV
p4027
(g1866
I88
I17270
tp4028
sS'ZSALEM ST'
p4029
(S'SALEM ST'
p4030
I92
I17315
tp4031
sV-6300
p4032
(g1957
I24
I16873
tp4033
sVDORR
p4034
(VDORR ST
p4035
I86
I17471
tp4036
sVWESTMINSTER R329
p4037
(g63
I90
I15991
tp4038
sVP
p4039
(VPOE ST
p4040
I39
I16783
tp4041
sVSABIN R8
p4042
(g117
I87
I15950
tp4043
sVPLEASANT VALLEY 'PKWY
p4044
(VPLEASANT VALLEY PKWY
p4045
I100
I17627
tp4046
sVPITMAN BAKERS-RETAIL
p4047
(VPITMAN ST
p4048
I81
I17073
tp4049
sVCRAN- S TON
p4050
(g913
I82
I15959
tp4051
sS"N MAIN GAROME FURNITURE CO 422 SMITHFIELD AV COHEN MORRIS & SON 83 CHARLES COLETTI'S FURNITURE INC 52 POCASSET AV CREST FURNITURE COMPANY 202-206 PRAIRIE"
p4052
(S'SMITHFIELD AVE'
p4053
I58
I16458
tp4054
sS'ELM- WOOD AV, TEL BOPKLNS 1-71.00 AND 301 CHARLES; TEL DEXTER 1-4496'
p4055
(g2263
I46
I15876
tp4056
sVBROADWAV X
p4057
(g546
I82
I15794
tp4058
sVN MAIN INTERPRETERS
p4059
(VENTERPRISE ST
p4060
I54
I16172
tp4061
sS'), TEL 421-9284'
p4062
(g721
I32
I15880
tp4063
sS"'OIHNLUTE'R NU. TIL MAM;- 1-9609 HO YOLLUW M15)"
p4064
(S'BORINQUEN ST'
p4065
I44
I16598
tp4066
sS'WESTMINSTER R1138 UN WALTER I 15 WESTMINSTER R1138 DUT RAYMOND J 15 WESTMINSTER R1138 1 A ANTHONY 597 CHARLES AND 100 N MAIN R4'
p4067
(g43
I59
I15991
tp4068
sVWESTMIN- STER R624
p4069
(g63
I77
I15991
tp4070
sS'BARKER HOME PORTRAITS 51 ALEXANDER'
p4071
(S'MORRIS AVE'
p4072
I54
I17047
tp4073
sS'WESTMIN- STER R333'
p4074
(g5
I77
I15991
tp4075
sS'BORDEN, TELS DEXTER 1-0243 AND 1-0244'
p4076
(S'BORDEN ST'
p4077
I70
I15787
tp4078
sVWESTMINSTER, TEL TEMPLE 1-7500
p4079
(g63
I80
I15991
tp4080
sS'RIVER AV, TEL GASPEE 1-1663; THE BAT- TERY SHOP 59-61 BFOADWAYL TEL GASPEE 1-0610'
p4081
(S'GRAND BROADWAY'
p4082
I53
I16209
tp4083
sVHOSPITAL TRUST BLDG 15 WESTMINSTER. TEL GASPEE 1-6070
p4084
(g63
I69
I15991
tp4085
sS'WEYBOSSET R525 GROSS INSURANCE INC'
p4086
(g54
I74
I15992
tp4087
sVVATWE11S AV 1ST FL
p4088
(g146
I61
I15775
tp4089
sVN MAIN ORGANIZATIONS-MISCE LLANE- OUS
p4090
(g1687
I54
I15813
tp4091
sS'WESTMINSTER STRM303'
p4092
(g716
I92
I15991
tp4093
sS'WESTMINSTER HALL'
p4094
(g501
I90
I15991
tp4095
sS'REGENT  HOSIERY-WHOLESALE AND'
p4096
(g2304
I56
I17001
tp4097
sVWESTMINSTER R28 ORGANI ZATIONS - VE TE RANS
p4098
(g63
I75
I15991
tp4099
sVK MRS
p4100
(VMARISA LN
p4101
I55
I16317
tp4102
sVEDDY LST FL
p4103
(g1252
I89
I15834
tp4104
sS"DORCHESTER AV MITCHELL WM J 42 NOYES AV MULVANEY INC 155 S ANGELL MUTO PLUMBING & HEATING CO 48 NIANTIC AV NEW ENGLAND PLUMBING & HEATING CO 7 RINGGOLD NEWMAN DAVID PLUMBING & HEATING CO 68 ONTAR IO O'CONNOR JOHN F PLUMBING & HEATING CO 125 GANO"
p4105
(S'DORCHESTER AVE'
p4106
I55
I17831
tp4107
sVCAFNP AND 111 WEST- MINSTER R527
p4108
(g63
I65
I15991
tp4109
sVWASH 3D FL
p4110
(g779
I57
I17712
tp4111
sVSUPUERIOR
p4112
(VSUPERIOR ST
p4113
I87
I17334
tp4114
sVWESTMINSTER R1122 SURGICAL APPLIANCES
p4115
(g63
I75
I15991
tp4116
sS'HANISAV'
p4117
(g223
I66
I15869
tp4118
sVWESTMINSTER R 21 3
p4119
(g63
I87
I15991
tp4120
sS'WESTMINSTCL ST'
p4121
(g501
I84
I15991
tp4122
sVALMV '
p4123
(VPALM ST
p4124
I65
I16386
tp4125
sS'DUNCAN AY 2D FL'
p4126
(S'DUNCAN DR'
p4127
I83
I16948
tp4128
sVAND BACKBONE) *JOBBING AND ALTERATIONS
p4129
(g106
I54
I15978
tp4130
sV-6 KNIGHT
p4131
(g1522
I85
I15890
tp4132
sS'WASHING- TON 3214  TAPES, ENDINGS UNI NARROW'
p4133
(g1346
I64
I16854
tp4134
sVLUCITE
p4135
(g375
I70
I17577
tp4136
sS'LH- DUSTRIAL BANK BLCG, 111 WIESTMINSTER'
p4137
(g3379
I69
I15991
tp4138
sS'PROMENADE, TEL DEXTER 142001800 YELLOW PUGH 86)'
p4139
(S'PROMENADE ST'
p4140
I69
I17630
tp4141
sS'BATH, TEL ELMHM-ST 1-6396'
p4142
(S'ELM ST'
p4143
I57
I15837
tp4144
sVCANAL, TEL PLANTATIONS 1-7600
p4145
(g106
I54
I15978
tp4146
sS'STE VENS'
p4147
(S'EVELYN ST'
p4148
I59
I17850
tp4149
sV, TELS STUART 1-9050, 1-9051
p4150
(g1472
I58
I17332
tp4151
sS'RANDALL, OFFICE 448 HOPE, TELA DEXTER 1-8094, DEXTER 1-8095'
p4152
(S'RANDALL RD'
p4153
I65
I16415
tp4154
sVPOINT
p4155
(VPOINT ST
p4156
I88
I15936
tp4157
sVEM- PIRE
p4158
(g217
I77
I15840
tp4159
sVAND LEFT TOP LINES) '
p4160
(g3061
I58
I16885
tp4161
sVWAIN- WRIGHT, TEL DEXTER 1-2678
p4162
(g2375
I66
I17706
tp4163
sS'), TEL 521-3446'
p4164
(S'4TH ST'
p4165
I25
I16874
tp4166
sVFOUNTAIN NEWSPAPERS
p4167
(VVANDEWATER ST
p4168
I55
I16513
tp4169
sVVALLEY R6
p4170
(VVALLEY ST
p4171
I89
I17693
tp4172
sS'AT- M TEL LLMHNRLT 1-889F'
p4173
(S'ELMHURST AVE'
p4174
I51
I17482
tp4175
sS'BROADWAV ANNOTTI HENRY J 131 WASHINGTAN R304 ANTHONY DAVID C CO 58 WEYBOSSET R504 ANTHONY REALTY CO 85 CHRISTOPHER ARCH REALTY CO 77 WASHINGTON R308 ARGEE CORP 51 EMPIRE R423 ARGENTIERI REALTY CO 139 MATHEWSON R302 ARNOLD GEO C BUILDINGS 100 WASHINGTON 3DF1'
p4176
(S'CHRISTOPHER ST'
p4177
I55
I16102
tp4178
sVAND 178 N MAIN
p4179
(g492
I82
I15916
tp4180
sVWESTMINSTER, PROVIDENCE, TEL ELMHURST 1-5800; DOWNTOWN OFFICE 20 WESTMINS TER; MT PLEASANT OFFICE 1082 CHALK- STONE, SIX OTHER CONVENIENT COMMUNITY OFFICES IN EARRING- TON, CRANSTON, CENTREDALE, PAWTUCKET AND GREENVILLE
p4181
(g63
I56
I15991
tp4182
sVWEST- MINSTER R724 HQANGES-ELECTRIC
p4183
(VLESTER ST
p4184
I47
I17245
tp4185
sS"BROAD I 'IEGO RODRIGO P C 103 GOVERNM' IWID WM A 300 THAYER I M RICHD 124 WATERMAN 5 MON RALPH D 154 WATERMAN MUTEMERNOUW 221ANGE11"
p4186
(S'MERINO ST'
p4187
I35
I17960
tp4188
sS'WEYBOSSETT STREET'
p4189
(g69
I89
I15992
tp4190
sS'WEYBOSSET 354  DYE NUNS CHEMICALS SALES 85 TOCKWOTTON I XANAORMS & CO. 50 NORTH Y'
p4191
(S'TOCKWOTTON ST'
p4192
I64
I15973
tp4193
sVWEST- MINSTER R611
p4194
(g63
I77
I15991
tp4195
sS'SEEKONK. TEL UNION 1-1110'
p4196
(g3120
I76
I17097
tp4197
sVWEYBCBSET, TEL GASPEE 1-4436
p4198
(g28
I62
I15992
tp4199
sVRATHBON'E
p4200
(g1690
I90
I17637
tp4201
sVDORRANCE R205
p4202
(g605
I87
I15829
tp4203
sVWESTMINSTER R 704 -7 1 9
p4204
(g63
I82
I15991
tp4205
sS'SEEM ST'
p4206
(g4030
I73
I17315
tp4207
sVRICHMOND, TEL GASPEE 1-7840
p4208
(g304
I77
I15946
tp4209
sS'K CAMP ST'
p4210
(S'CAMP ST'
p4211
I94
I16917
tp4212
sS'POINT WN HOTEL BARBER SHOP 13 GARNET TOM HOUSE BARBER SHOP 52 CUSTOM HOUSE GRACA BARBER SHOP 84 BISHOP'
p4213
(g1169
I52
I16896
tp4214
sVCRANSTON
p4215
(g572
I92
I15817
tp4216
sVDYER AV, CRANSTON, TEL ELMHURST 1-8306
p4217
(g572
I73
I15817
tp4218
sV-417 FRIENDSHIO
p4219
(g1044
I78
I15858
tp4220
sS'-24 GILMORE, TELS MANNLNG 1-7986, GASPEE 1-2060'
p4221
(S'GILMORE ST'
p4222
I66
I17217
tp4223
sVHARTFORD AV
p4224
(g506
I98
I17889
tp4225
sVWESTMINSTER R403, TEL DEXTER 1-2260
p4226
(g63
I77
I15991
tp4227
sS'GORDON AV. TEL HOPKINS 1-2560'
p4228
(g2263
I71
I15876
tp4229
sS'- WESTMINSTER ST'
p4230
(g501
I100
I15991
tp4231
sVGEORGIA AV, TEL HOPKINS 1-2730
p4232
(g1407
I77
I16671
tp4233
sVWEST- MINSTER R506
p4234
(g63
I77
I15991
tp4235
sVWEVBOSSET R404
p4236
(g28
I79
I15992
tp4237
sVWASHINGTON R205
p4238
(g137
I89
I15986
tp4239
sVWASHINGTON R206
p4240
(g137
I89
I15986
tp4241
sV-88 NARRAGANSETT AV  COCKTAIL LOUNGES
p4242
(g1866
I80
I17270
tp4243
sVWASHINGTON R208
p4244
(g137
I89
I15986
tp4245
sVBROAD AND 364, 829 AND 1932 WESTMINSTER
p4246
(g63
I71
I15991
tp4247
sS"' CUSTOM HOUSE, TEL GASPEE 1-6900"
p4248
(g2
I81
I15820
tp4249
sVNIAGARA
p4250
(VNIAGARA ST
p4251
I91
I17273
tp4252
sVVIRGINIA AV
p4253
(VVIRGINIA AVE
p4254
I98
I16849
tp4255
sVEASTWOOD AV
p4256
(VEASTWOOD AVE
p4257
I98
I17839
tp4258
sS'BROADWAY  SIGN AND CARD WRITERS'
p4259
(S'BROADWAY ST'
p4260
I77
I15794
tp4261
sVCHARLES, TEL DEXTER 1-5432; FUNERAL HOME, BRANCH AVENUE AT HAWKINS
p4262
(g730
I62
I16096
tp4263
sVDORRANCE, TEL GASPEE 1-7600
p4264
(g605
I77
I15829
tp4265
sV-5800 AND PAWTUCKE'T 2-8000
p4266
(g2573
I59
I16771
tp4267
sV&WILLOW
p4268
(VWILLOW ST
p4269
I90
I18108
tp4270
sVCUSTOM HOUSE R401
p4271
(g416
I90
I15820
tp4272
sVCUSTOM HOUSE. TEL GASNEE 1-6900
p4273
(g416
I81
I15820
tp4274
sS'NHHENDPLRMOM'
p4275
(S'HENDERSON ST'
p4276
I53
I15872
tp4277
sVWEYBMSET, TEL ELMHURST 1-3800
p4278
(g28
I66
I15992
tp4279
sS'ALMY  *ASSOCIATIONS, CLUBS AND'
p4280
(S'COMMUNICATIONS PL'
p4281
I53
I15813
tp4282
sVENGROVE AV
p4283
(g3401
I81
I16960
tp4284
sS'PRINTING PAPERS'
p4285
(S'PRINCETON AV'
p4286
I65
I17298
tp4287
sVWESTMINSTER R928 *ACC OUNTS -BONUS
p4288
(g63
I78
I15991
tp4289
sVMANTON AV GROCERS' SUNDRIES
p4290
(VSUNRISE DR
p4291
I56
I17677
tp4292
sVTHURBERS I' COKE -RE TAIL
p4293
(g2236
I78
I16839
tp4294
sVUNION R407
p4295
(g3257
I83
I15977
tp4296
sS'KINSLEY HEMINGWAY BROS INTERSTATE TRUCKING CO 125 ERNEST LEAD W L INC'
p4297
(S'INTERVALE RD'
p4298
I49
I17005
tp4299
sS'WASHINGTON AV BUDD CHARLES CORP 87 WEYBOSSET R418 DUO-FAST NORTHEAST CORP 87 WEYBOSSET'
p4300
(S'WASHINGTON AVE'
p4301
I64
I16854
tp4302
sS'UNION R409'
p4303
(S'UNION ST'
p4304
I83
I15977
tp4305
sVCHARLTON. EVERETT, TEL EVERETT 9-0076
p4306
(g2018
I63
I17427
tp4307
sVWESTMINSTER R214
p4308
(g63
I90
I15991
tp4309
sS'MEDWAY, TEL UNION 1- 6800'
p4310
(S'MEDWAY ST'
p4311
I75
I17040
tp4312
sVACORN *FILING CABINETS AND OFFICE EQUIPMENT
p4313
(g3436
I45
I16105
tp4314
sS'GILLEN V'
p4315
(S'GILLEN AVE'
p4316
I94
I16202
tp4317
sS'ABORNV'
p4318
(S'ABORN ST'
p4319
I81
I15763
tp4320
sVCULVER, TELS GASPEE 1-4946, VJACKBON 1-091'7
p4321
(g848
I53
I16253
tp4322
sVCENTRAL, GIIL GASPEE 1-0081
p4323
(g2746
I77
I16095
tp4324
sS'WESTMINSTER R405'
p4325
(g5
I90
I15991
tp4326
sVWESTMINSTER R404
p4327
(g63
I90
I15991
tp4328
sVWESTMINSTER R403
p4329
(g63
I90
I15991
tp4330
sVWESTMINSTER R401
p4331
(g63
I90
I15991
tp4332
sVHIGH, PAWTUCKET, TEL PAWTUCKET 2-7900
p4333
(g80
I62
I16772
tp4334
sV219 W PARK ENGRAVERS-TEXTILE
p4335
(g1538
I57
I17117
tp4336
sVMAPLE , PAWTUCKET, TEL PAWTUCKET 5-5600
p4337
(g80
I62
I16772
tp4338
sV565 PRAIRIE AV
p4339
(g1334
I90
I16787
tp4340
sV-41 1 CHARLES, TELS TEINPLE 1-5633, 1-5634
p4341
(g730
I70
I16096
tp4342
sVTOBEV
p4343
(VTOBEY ST
p4344
I71
I18076
tp4345
sVWESTMINISTER
p4346
(g63
I90
I15991
tp4347
sVFOUNTAIN, TEL UNMN 1-5000
p4348
(g2269
I78
I15853
tp4349
sS'SOUTH MAIN. NEXT TO COURT HOUSE. TEL DEXTER 1-5331'
p4350
(g878
I62
I17198
tp4351
sVMATHEWSON, TEL GASPEE 1-5800
p4352
(g362
I78
I15904
tp4353
sVWESTMINSTER, R430 TEL GASPEE 1-8802
p4354
(g63
I77
I15991
tp4355
sVDOYLE AVU
p4356
(g2142
I94
I16946
tp4357
sVWASH AV WOMEN'S APPAREL-RETAIL
p4358
(g3265
I51
I16064
tp4359
sVCUSTOM HOUSE R202  *SECURITIES
p4360
(VCURTIS ST
p4361
I56
I17813
tp4362
sS'-72 GANSETT AV'
p4363
(S'PONAGANSETT AVE'
p4364
I74
I17997
tp4365
sS'EXCHANZIA PLACE. TEL GASPEE 1-6822'
p4366
(g1545
I57
I15846
tp4367
sVWESTMIN- STER' 3626
p4368
(g63
I77
I15991
tp4369
sV'ATWELLS AV
p4370
(g146
I97
I15775
tp4371
sVOLNEV
p4372
(VOLNEY ST
p4373
I71
I16377
tp4374
sVWGSTRHINSTER
p4375
(g63
I73
I15991
tp4376
sS'EM- PIRE R8'
p4377
(g3008
I77
I15840
tp4378
sS'WESTMINSTERSTRMM7'
p4379
(g3379
I81
I15991
tp4380
sS'CANAL INTERNATIONAL FORWARDING CO 210 CANAL LONE STAR PACKAGE CAR CO 210 CANAL'
p4381
(g1084
I44
I16838
tp4382
sVFOUNTAIN R711
p4383
(g2269
I87
I15853
tp4384
sVFOUNTAIN R710
p4385
(g2269
I87
I15853
tp4386
sS'WEST- MINSTER R731 AND FIELDS POINT  *CHILDRENB AND INFANTF'
p4387
(S'HIDDEN ST'
p4388
I44
I16996
tp4389
sVPAWTUCKET AV, EAST PROVIDENCE. TEL GENEVA 4-1338
p4390
(g101
I70
I17299
tp4391
sS"BROAD. TEL ' STMT 1-4858"
p4392
(S'BROAD ST'
p4393
I77
I15793
tp4394
sVWESTMIN- STER
p4395
(g63
I81
I15991
tp4396
sV, MICHIGAN *MANUFACTURERS-PIP'E
p4397
(g461
I49
I16308
tp4398
sS'SONS INC, 483 ATWELLS AV, TEL GASPEE 1-2439'
p4399
(g3619
I71
I15775
tp4400
sV36 POCASSET AV
p4401
(g248
I92
I17995
tp4402
sVCUSTOMHOUSE R202
p4403
(g416
I74
I15820
tp4404
sVWESTMIN- STER, TEL JACKSON 1-6700Z 63 WEST- MINSTER; 146 WESTMINSTER; 244 WEY'BMSET; 238 THAYER; 1 OLNEY- VILLE SQ AND 434 SMITH
p4405
(g63
I60
I15991
tp4406
sS'RANDALL SQ SUITE407'
p4407
(S'UNITED ST'
p4408
I46
I16508
tp4409
sVSUMMER CHAIR RENTING
p4410
(g1410
I59
I15907
tp4411
sVVANBURCN
p4412
(VVAN BUREN ST
p4413
I66
I16844
tp4414
sV7 9 PLAINFIE 1D
p4415
(g1255
I76
I17994
tp4416
sVCOLD SPRING LANGUAGE TEACHERS
p4417
(VLONGUE VUE AVE
p4418
I56
I16292
tp4419
sVWALDO, TEL S'I'UART 1-5050
p4420
(VWALDO ST
p4421
I71
I16526
tp4422
sS"' ELMWOOD AV"
p4423
(g345
I97
I17207
tp4424
sVWHITNEY
p4425
(VWHITNEY ST
p4426
I91
I17356
tp4427
sS'ACORN, TEL GASPEE 1- 5312'
p4428
(g407
I72
I15863
tp4429
sS'. POMONA AVE'
p4430
(S'POMONA AVE'
p4431
I100
I17628
tp4432
sVPOINT  *ADVE RTISING -RADIO
p4433
(g226
I52
I16927
tp4434
sS'), 22-30 ABORN ST'
p4435
(S'ABORN ST'
p4436
I86
I15763
tp4437
sV86 WEY- BOSSET R49
p4438
(g28
I74
I15992
tp4439
sS"GOVERNOR ' MILER SAML 190 SLATER AV WPRUROU ALFRED L 1175 ELMWOOD AV IF M JOSEPH E 529 BROADWAY"
p4440
(S'GOVERNOR NOTTE PKWY'
p4441
I63
I16206
tp4442
sS'CRANSTON ST, CRANSIM'
p4443
(S'CRANSTON ST'
p4444
I86
I15817
tp4445
sVDARTMOUTH
p4446
(VDARTMOUTH AVE
p4447
I91
I17192
tp4448
sVWEYBOSSET RHZOB
p4449
(g28
I87
I15992
tp4450
sVEDDY CONCRETE BLOCK MANUFAC- TURERS
p4451
(VCANONCHET ST
p4452
I53
I17423
tp4453
sVWESTMINSTER 18TH FL
p4454
(g63
I89
I15991
tp4455
sVWESIEYAN AV  CONTRACTORS-MARINE
p4456
(g1490
I51
I16119
tp4457
sS'WEYBO-ETSTRM300'
p4458
(g3530
I50
I15992
tp4459
sS"WEYBOSSET, TEL TEMPLE 1-8800'"
p4460
(g54
I78
I15992
tp4461
sVWASHINGTON AND 180 WAY- LAND AV
p4462
(g1620
I79
I16854
tp4463
sVWESTMINSTER, PROVI- DENCE, TEL ELMHURST 1-5800; DOWN- TOWN OFFICE 20 WESTMINSTER; MT PLEASANT OFFICE 1082 CHALK- STONE, SIX OTHER CONVENIENT COMMUNITY OFFICES IN EARRING- TON, CRANSTON, CENTREDALE, PAWTUCKET AND GRENVILLE
p4464
(g63
I56
I15991
tp4465
sVHARRIS L'DRY CLEANSERS
p4466
(g2026
I59
I17929
tp4467
sVSHELDON CONGREEATIONAL UNITARIAN
p4468
(VGREATON DR
p4469
I55
I16986
tp4470
sS'OF KI INC 330 HOWARD BLDG'
p4471
(g2530
I72
I16363
tp4472
sVWEY- BOSSET R4 06
p4473
(g28
I75
I15992
tp4474
sVTO 650, 11 DORRANCE COR WASHINGTON, TEL GASPEE 1-9200
p4475
(g1620
I70
I16854
tp4476
sVWEST- MINSTER R 301 -914
p4477
(g63
I72
I15991
tp4478
sVWEYBOSSET R304
p4479
(g28
I88
I15992
tp4480
sS'DEAN MEINEL BROS 30 AGNES'
p4481
(S'EMELINE ST'
p4482
I61
I16963
tp4483
sVWEYBOSSET R302
p4484
(g28
I88
I15992
tp4485
sVWEYBOSSET R303
p4486
(g28
I88
I15992
tp4487
sS'BROAD- WAY AND 45 RIVER AV'
p4488
(g1081
I68
I15793
tp4489
sS'WESTMIN- DEF, TEL TEMPB L-M GEE YENOW PAGE 29)  PICTURE MM AND PICTURES-'
p4490
(S'TURKS HEAD PL'
p4491
I41
I15976
tp4492
sS'DOMNCO, TEL GASPEO 1-5338  PUBLIC ADDRESS AND 33M'
p4493
(g1359
I46
I16002
tp4494
sS'CUSTOM HOUSE STREET'
p4495
(g320
I94
I15820
tp4496
sS"WEYBOSSET, TEL GASPEE 1-2700;'280 ATIELLS AI, TEL GASPEE 1-3244'AND 591 CHARLES. TEL U'NLON 1-0250"
p4497
(g54
I61
I15992
tp4498
sS'CRANSTON CCHICCHIO CARLO 996 ATWELLS AV'
p4499
(S'NICHOLAS BROWN YARD ST'
p4500
I41
I17054
tp4501
sVANTHONY AV  *WHEEL CHAIRS-SOLD AND RENTED
p4502
(g1830
I72
I17155
tp4503
sS'-39 NARRAGANSETT AIR, TELS STUART 1-0600, 1-0601'
p4504
(g2150
I75
I16747
tp4505
sS'GESLER'
p4506
(S'GESLER ST'
p4507
I90
I17864
tp4508
sVEDDY R301
p4509
(g1252
I81
I15834
tp4510
sVBASSETT, TEL GASPEE 1-4600
p4511
(VBASSETT ST
p4512
I75
I15777
tp4513
sS"INDUS TRIAL BANK BLDG, TEL GASPGE 1-7845, 1 NO ANSWER CALL CENTREDILE 1-9236 '"
p4514
(g3605
I45
I16095
tp4515
sVATWEUS AV
p4516
(g146
I78
I15775
tp4517
sS'DORRANCE. GAL GASPEE 1-7600'
p4518
(g483
I77
I15829
tp4519
sVPOST RD, APPONAIB. TEL REGENT 7-9100
p4520
(g77
I48
I15832
tp4521
sS'ALEPPO GOODYEAR FOOTWEAR CORP 44 WARREN PARFLEX RUBBER THREAD CO 50 VALLEY'
p4522
(S'WOODWARD RD'
p4523
I42
I16553
tp4524
sS"EXCHANGE, TEL GASPEE' 1-1860"
p4525
(S'EXCHANGE TER'
p4526
I79
I15846
tp4527
sVWEST- MINS'I'ER, TELS ELMHURST 1-1098. 1-0570
p4528
(g120
I66
I17482
tp4529
sS'ALGER AV, TEL HOPKINS 1-7370'
p4530
(g2263
I71
I15876
tp4531
sVMAIN, PAWTUCKET. TEL
p4532
(g80
I71
I16772
tp4533
sS'RESARVOIR AV. CRANSTON, R I. TEL STUART 1-7300'
p4534
(S'RESERVOIR AVE'
p4535
I66
I17303
tp4536
sVSOUTH ANGELL, TELS GASPE 1-3158, 1-3159, 1-0060 AND 1-1884
p4537
(VS ANGELL ST
p4538
I70
I17093
tp4539
sS"-3352'"
p4540
(g514
I29
I15881
tp4541
sVWATERMAN, TEL DEXTER 1-8990
p4542
(g342
I77
I15988
tp4543
sV-3237. 1-0124
p4544
(g301
I26
I16872
tp4545
sS'WESTMINSTER R309 TH ARCHIE 134 BROWN TH BENJ A 15 WESTMINSTER R1030 TH JOE 29 WEYBOSSET R51 KIRK'
p4546
(g43
I62
I15991
tp4547
sV970 WESTMINSTER
p4548
(g63
I88
I15991
tp4549
sS'-3962'
p4550
(g514
I29
I15881
tp4551
sVWESVTMINSTER R907
p4552
(g63
I86
I15991
tp4553
sS'WALCOTT'
p4554
(S'WALCOTT ST'
p4555
I91
I7093
tp4556
sS'WESTMINSTER ST, 2D FL'
p4557
(g501
I91
I15991
tp4558
sS'VEFTERANS ADMINISTRATION HOSPITAL DAVIS PARK  2* HOTEL AND RESTAURANT'
p4559
(g1340
I50
I15978
tp4560
sVCHAPIN AV
p4561
(VCHAPIN AVE
p4562
I97
I17800
tp4563
sVDEXTER WATCH AND JEWELRY REPAIRERS
p4564
(g217
I47
I15840
tp4565
sS'BROADWAY CCOUNTING ASSOCIATES 87 WEYBOSSET R228'
p4566
(S'SOCIAL ST'
p4567
I46
I16460
tp4568
sS'RICHMOND. TEL GASPU 1-7840'
p4569
(g181
I78
I15946
tp4570
sVN MAIN GLASS DEALERS-WINDOW AND
p4571
(VALDER DR
p4572
I50
I16558
tp4573
sS'TURKS HEAD PL RM 610'
p4574
(g2328
I89
I15976
tp4575
sS'ELM- WOOD AV. TEL HOPKINS 1-710'
p4576
(g2263
I70
I15876
tp4577
sS"QNEHCLO, CRAUTON, R 1, MAIL AD- DROU-P'O BOX 905; PRDVLDENCE 1. R I. TOL HURT 14100"
p4578
(g307
I51
I17299
tp4579
sVLILLIAN AV
p4580
(VLILLIAN AVE
p4581
I97
I16714
tp4582
sVS ES- SIODS SCHOOLS AND COLLEGES
p4583
(g474
I64
I15812
tp4584
sS'WESTMINSTER R1040'
p4585
(g5
I88
I15991
tp4586
sS'CHARLES REAR BLDG 4'
p4587
(g330
I77
I16096
tp4588
sVLOVELL AV, CRANSTON TEL HOPKLNS 1-5200
p4589
(g572
I71
I15817
tp4590
sS'SMITHFIELD'
p4591
(S'SMITHFIELD RD'
p4592
I93
I16459
tp4593
sVARCADE BLDG R18
p4594
(g3414
I79
I15773
tp4595
sVVALLEY CONTRACTORS -BUILDING- GENERAL
p4596
(g1490
I51
I16119
tp4597
sV3D, TELS GASPEE 1-3621; 1-3622
p4598
(g267
I69
I15863
tp4599
sS'ANGELL MERLE HOCIER MRS 224 THAYER R2 M NICHOLAS A 499 ELMWOOD AV'
p4600
(g3760
I64
I17054
tp4601
sS'SPECTACLE, CRANSTON, R I, MAIL ADDRESS P 0 BOX 965. PROVIDENCIE. R I. TEL STUART 1-6160'
p4602
(g1387
I61
I17299
tp4603
sVWESTMINSTER, TEL UNION 1-4000
p4604
(g63
I81
I15991
tp4605
sS'SMITHGELD AV, LINCOLN, RI'
p4606
(S'SMITHFIELD AVE'
p4607
I71
I16458
tp4608
sVWASHINGTON R401 OPTOMETRISTS
p4609
(g3237
I50
I17325
tp4610
sVPRAIRIE AV. TEL GASPEE 1-9182
p4611
(g1334
I78
I16787
tp4612
sVBROADWAY,
p4613
(g546
I92
I15794
tp4614
sVWASHINGTON R217
p4615
(g137
I89
I15986
tp4616
sVCONGDON
p4617
(g1926
I91
I16932
tp4618
sVBROAD, TEL GASPEE 1-635'7
p4619
(g267
I71
I15863
tp4620
sVSMITH UPHOLSTERING FABRICS AND MATERIAL
p4621
(VSTERLING AVE
p4622
I54
I18055
tp4623
sVVINTON * INVESTIGATIONS -PRI VATE DETECTIVE
p4624
(g106
I56
I15978
tp4625
sVBROAD WALL PAPER- WHOLESALE
p4626
(VLASALLE SQUARE
p4627
I54
I15892
tp4628
sV& PRATT
p4629
(VPRATT ST
p4630
I88
I16406
tp4631
sV-20 MEDWAV
p4632
(g214
I69
I17040
tp4633
sS"BROAD  'L1TKOGRAPBIRS AND BRIEF"
p4634
(S'LORIMER AVE'
p4635
I45
I17028
tp4636
sVWEST- MINSTER R403
p4637
(g63
I77
I15991
tp4638
sVJACKSON AND 254 WASH- INGTON
p4639
(g848
I77
I16253
tp4640
sVWEST- MINSTER R406
p4641
(g63
I77
I15991
tp4642
sS'WEST EXCHANLZE. TEL TEMPLE 1-7600'
p4643
(g990
I70
I15982
tp4644
sV; CLARK, 2112
p4645
(VLARK ST
p4646
I74
I17925
tp4647
sS'WATE RMAN'
p4648
(S'WAITE AVE'
p4649
I78
I16850
tp4650
sS'MANBON AVE'
p4651
(g845
I86
I17947
tp4652
sV210 BROADWAY
p4653
(g546
I85
I15794
tp4654
sS'OCRANSBONST FIRE PROTECTION SERVICE'
p4655
(S'CRANSTON ST'
p4656
I58
I15817
tp4657
sVA CAMP
p4658
(g657
I81
I16917
tp4659
sVELMWOOD AV, TEL STUART 1-4000
p4660
(g211
I78
I17207
tp4661
sS'TANNER VENT OF JESUS MARIE 165 HARRISON VENT OF NOTRE DAME 113 CAMP M OF NOTRE DAME 19 POPE VENT OF THE ASSUMPTION 530 DEXTER'
p4662
(S'HAMPTON ST'
p4663
I43
I16219
tp4664
sS'ACORN KILBERG CHAS 54 ARDMORE AV'
p4665
(S'GILBERT ST'
p4666
I52
I17867
tp4667
sVELMWOOD AV * HOME PAINTING
p4668
(g3539
I56
I16951
tp4669
sVWINDMILL CONTRACTORS-ROAD
p4670
(VSTRATFORD RD
p4671
I54
I16825
tp4672
sVBROADWAY, EAST PROVIDENCE. TEIS GENEVA 4-1255, 4-1256
p4673
(g101
I69
I17299
tp4674
sVPARKIS AV 352 PINE AND
p4675
(g3094
I81
I17282
tp4676
sS'EAGIE ST3DFL'
p4677
(S'ASTLE ST'
p4678
I52
I16568
tp4679
sS'EXCHANGE, TEL GASPEEF 1-1860'
p4680
(g1545
I78
I15846
tp4681
sS'-3727 AND CENTRAL 1-0478'
p4682
(S'CENTRAL ST'
p4683
I74
I16616
tp4684
sS'MILL, JOHNSTON, R 1, TEL WILLIAM 24000'
p4685
(S'JOHNSON ST'
p4686
I66
I16707
tp4687
sV36 GARNET
p4688
(VGARNET ST
p4689
I83
I15862
tp4690
sVWEST RIVER, TEL DEXTER 1-1820 DRUGGISTS- RETAIL
p4691
(VRUGGLES ST
p4692
I44
I17657
tp4693
sVR EVNOLDS AV
p4694
(VREYNOLDS AVE
p4695
I81
I16791
tp4696
sVATWELIS AV. TEIS GASNEE 1-1610, 1-1611, 1-1612 ' BATE
p4697
(g146
I60
I15775
tp4698
sVPOE BLEACHERS-FABRICS
p4699
(VBEACH ST
p4700
I59
I16050
tp4701
sV) I
p4702
(VIVY AV
p4703
I39
I16704
tp4704
sS'DEXTER  "ICE CREAM-RETAIL AND'
p4705
(g878
I72
I17198
tp4706
sVWESTMINSTER R1024
p4707
(g63
I88
I15991
tp4708
sVTOWNER "CALCIUM CHLORIDE
p4709
(VCLOVERDALE RD
p4710
I55
I16625
tp4711
sS'HIGGIN- SON AVE'
p4712
(g1455
I90
I17528
tp4713
sS'PRAIRIE AV  BAKERS-WHOLESALE AND'
p4714
(S'HOPEDALE RD'
p4715
I54
I17001
tp4716
sV1011 WEST- MINSTER
p4717
(g63
I74
I15991
tp4718
sV-6095
p4719
(g396
I58
I15881
tp4720
sV1 27 DORRANCE
p4721
(g605
I83
I15829
tp4722
sVUNION R508
p4723
(g3257
I83
I15977
tp4724
sS"CHALKSTONE AV  I'K'.LTCHENS--GE NE VA AND"
p4725
(g534
I77
I17433
tp4726
sS'-73 HEMLOCK'
p4727
(S'HEMLOCK ST'
p4728
I85
I17525
tp4729
sVSHAWMUT
p4730
(VSHAW ST
p4731
I72
I16448
tp4732
sS"SOUTH  'J'EWE LRY-RETAIL"
p4733
(S'ORIENTAL ST'
p4734
I53
I17613
tp4735
sVAND 366 BROADWAY
p4736
(VGRAND BROADWAY
p4737
I90
I16209
tp4738
sS'-1311 TAIL'
p4739
(S'11TH ST'
p4740
I50
I16869
tp4741
sVCRANSTON,1100 ELMWOOD AV,1282 N MAIN, 65 WASHINGTON AND 1954 WESTMINSTER
p4742
(g63
I62
I15991
tp4743
sVWESTMINSTER R507
p4744
(g63
I90
I15991
tp4745
sVACADEM AV
p4746
(g2851
I91
I17365
tp4747
sS'NLTER TO THE MALL, TEL'
p4748
(S'SLATER AVE'
p4749
I59
I17100
tp4750
sVWESTMINSTER R503
p4751
(g63
I90
I15991
tp4752
sVWESTMINSTER R500
p4753
(g63
I90
I15991
tp4754
sS',86 PAGE ST'
p4755
(S'PAGE ST'
p4756
I91
I15923
tp4757
sS'WALDO LAMONT HOWARD S 71 LEXINGTON AV'
p4758
(S'LEXINGTON AVE'
p4759
I72
I16281
tp4760
sVBROADWAY
p4761
(g546
I92
I15794
tp4762
sS'11 WESTMINSTER R 5 14'
p4763
(g5
I84
I15991
tp4764
sVWESTMINSTER R508
p4765
(g63
I90
I15991
tp4766
sVROEHAMBEAU AV
p4767
(g672
I89
I17088
tp4768
sS'I PENN  *INSULATION- FIBERGLAS AND'
p4769
(S'UNION STATION ST'
p4770
I59
I15978
tp4771
sS'TURKS HEAD PL RM 1210'
p4772
(g2328
I88
I15976
tp4773
sS'.5 WESTMINSTER'
p4774
(g5
I90
I15991
tp4775
sVWEVBDSSET R12
p4776
(g28
I71
I15992
tp4777
sVWESTMMSTER
p4778
(g63
I80
I15991
tp4779
sVELM-GG
p4780
(g1197
I83
I15837
tp4781
sS'EDDY  *BOILER INSTALLATIONS AND'
p4782
(g4770
I57
I15978
tp4783
sS'-4900 AND PLANTATIONS 1-4900'
p4784
(g4770
I54
I15978
tp4785
sV-6320
p4786
(g301
I24
I16872
tp4787
sVMELROSE AND 172 ADELAIDE AV
p4788
(g2867
I78
I17148
tp4789
sS'WESTMINSTER, TEL GASPEE 1-5927 SHEIWOOD & CLIFFORD, 1003 TURKS HEAD BLDG 76 WESTMINSTER, TEL GASPEE 1-2154 SHERWOOD HERBERT M'
p4790
(g5
I60
I15991
tp4791
sVPLAIN JEWELRY MANUFACTURERS
p4792
(g424
I52
I16273
tp4793
sS'BROAD   RADIO AND TELEVISION CTS AND'
p4794
(g353
I55
I17828
tp4795
sVWEYBOSSET, R27, TEL UNION 1-3900
p4796
(g28
I76
I15992
tp4797
sS'WESTMINSTER R707'
p4798
(g5
I90
I15991
tp4799
sS"POMFRET ST'"
p4800
(S'SOMERSET ST'
p4801
I71
I17325
tp4802
sVDOMCE COR WASHINGTON, TEL GASPEE 1-9200
p4803
(g1620
I75
I16854
tp4804
sVCHARLA S
p4805
(VHARLAM ST
p4806
I79
I17885
tp4807
sS'LINCOLN, BOSTON 11,'
p4808
(g192
I78
I16283
tp4809
sV25 KNIGHT
p4810
(g1522
I83
I15890
tp4811
sVWEYBOSSET, TEL GASPEE 1-7900
p4812
(g28
I78
I15992
tp4813
sVJACKSON, TEL DEXTER 1-6100
p4814
(g848
I75
I16253
tp4815
sVSILVER SPRING, TEL UNION 145289
p4816
(g1918
I82
I16454
tp4817
sV114I COMMODORE
p4818
(VCOMMODORE ST
p4819
I84
I16115
tp4820
sVMATHEWS ON R604
p4821
(g362
I81
I15904
tp4822
sVGEORGE M COHAN BLVD *BOILERS-
p4823
(g2370
I57
I15864
tp4824
sS"DORRA'NCE, TEL DEXTER 1-8820"
p4825
(g878
I69
I17198
tp4826
sS'RIVER AV, TEL GASPEE 1-1663; SALES AND SERVICE-THE BATTERY SHOP 59 BROADWAY, TEL GASPEE 1-0610'
p4827
(g4082
I62
I16209
tp4828
sVVALLEY BLDG 3 AND 2 WEEDEN
p4829
(g1840
I77
I16512
tp4830
sV7 EXCHANGE R319
p4831
(g201
I87
I15846
tp4832
sS'WESTMINSTER ST, R721'
p4833
(g501
I92
I15991
tp4834
sVGORDON AV, TEL WILLIAMS 1-1111
p4835
(g1999
I78
I17307
tp4836
sS'WEYBOSSET R229'
p4837
(g54
I88
I15992
tp4838
sVAND BACKBONE) DELICATESSEN-RETAIL
p4839
(VDONELSON ST
p4840
I46
I17470
tp4841
sS"BRIDGHAM, TELS TEMNLE 1-7717. DEXTER 1-4350 AND GASP'EE 1-8645 '"
p4842
(S'BRIDGHAM ST'
p4843
I65
I17169
tp4844
sS'-8400 AND REGENT 7-8401'
p4845
(S'REGENT AVE'
p4846
I72
I17642
tp4847
sVRUTHERZZLEN AV
p4848
(VRUTHERGLEN AVE
p4849
I86
I17312
tp4850
sVW EXCHANGE AND 251 GEORGE M COHAN BLVD
p4851
(g859
I74
I15982
tp4852
sVBROOK, TEL DEXTER 1-8020
p4853
(g602
I72
I17198
tp4854
sVAND RIGHT TOP LINES) COLLECTIONS
p4855
(VCOLTON DR
p4856
I50
I16113
tp4857
sVLOOK- WOOD
p4858
(VLOOKOFF RD
p4859
I68
I16716
tp4860
sS'; ENGINEERING CO, 156,W EXCHANGE, TEL GASPEE 1-7333'
p4861
(S'FENNER ST'
p4862
I43
I15849
tp4863
sS'ATWELLS AV, TEL ELMHURST 1-9112'
p4864
(g4174
I71
I17482
tp4865
sS'WESTMINSTER, TEL JACKSON 1-6700; CORNER DORRANCE AND WESTMINSTER, 244 WEYBOSSET, 238 THAYER, 434 SMITH, 1 OLNEYVME SQ'
p4866
(g5
I61
I15991
tp4867
sVEMPIRE R626 GLASSWARE MANUFACTURERS
p4868
(g424
I48
I16273
tp4869
sS"ATWELLS AV COR HARRIS AV, TEL GAS'PEE 1-4750"
p4870
(g3115
I70
I15775
tp4871
sS'SUPPLIES)'
p4872
(S'SPICER ST'
p4873
I58
I16463
tp4874
sVMATHEWSON, TEL DEXTER 1-0737 MILLINERS
p4875
(g362
I72
I15904
tp4876
sS'A WESTMINSTER ST'
p4877
(g501
I96
I15991
tp4878
sS"WUH- LNGTA, TEL 'JACHON 1-9950  TELEVISION REPAIRS"
p4879
(S'NELSON TERR'
p4880
I49
I16356
tp4881
sS'WESTMINSTER STRM504'
p4882
(g716
I92
I15991
tp4883
sVWASH R406
p4884
(g779
I58
I17712
tp4885
sVWASH R407
p4886
(g779
I58
I17712
tp4887
sVWASH
p4888
(g779
I60
I17712
tp4889
sVSTEWART WATCH CASE MANUFACTURERS
p4890
(g461
I50
I16308
tp4891
sS"HOWARD BLDG, TEL GASPEE 1-' 7020"
p4892
(g2715
I70
I16363
tp4893
sS'-9050, STUART 1-9061'
p4894
(g1796
I60
I15963
tp4895
sVPLEASANT  PRODUCE DEALERS-WHOLE- SALE
p4896
(VPLEASANT VIEW DR
p4897
I75
I16400
tp4898
sS'IN- DUSTRIAL BANK BLDG. 111 WESTMINSTER'
p4899
(g3379
I71
I15991
tp4900
sS'POWER RD, FACTORY 310 OWEH AV'
p4901
(g4022
I53
I17058
tp4902
sS"CARPENTER. TELS GASPEE 1-0476 AND GAIPEE 1-'7376"
p4903
(g123
I69
I15801
tp4904
sVWEYBOSSET, TEL ELMHURST 1-3800
p4905
(g28
I79
I15992
tp4906
sVCARPENTER U
p4907
(g706
I93
I15801
tp4908
sS'K MT PLEASANT AVE'
p4909
(S'MOUNT PLEASANT AVE'
p4910
I93
I17599
tp4911
sVHOPE, TEL GABPEE 1-9879
p4912
(g267
I61
I15863
tp4913
sS'WESTMINSTER MALL'
p4914
(g501
I90
I15991
tp4915
sVLINCOLN BOSTON 11, MASS
p4916
(g3245
I77
I16283
tp4917
sS'EXCHAMZE ST'
p4918
(g3396
I78
I15845
tp4919
sVKINSLEV AV
p4920
(g1146
I86
I15889
tp4921
sS'SABIN  *FEDERAL SAVINGS AND LOAN'
p4922
(S'FEDERAL ST'
p4923
I72
I15848
tp4924
sS'WDTERMA TELS GASNEE 1-5746. 1-8432 AND 1-841'
p4925
(g2848
I55
I15988
tp4926
sVBROAD R2
p4927
(g189
I87
I15793
tp4928
sVBROAD R3
p4929
(g189
I87
I15793
tp4930
sVWEYBOS- SET, TEL ELMHURST 1-3800
p4931
(g120
I71
I17482
tp4932
sVPLAIN- FIELD
p4933
(g143
I81
I15934
tp4934
sS'POCAASET AVE'
p4935
(g3713
I90
I17995
tp4936
sVVERNDALE AV
p4937
(VVERNDALE AVE
p4938
I98
I16846
tp4939
sVBROAD. CRANSTON, TEL 1109TH 1-7730 7
p4940
(g572
I72
I15817
tp4941
sVWEVBOSSET R4 3
p4942
(g28
I79
I15992
tp4943
sV; ETHAN
p4944
(VETHAN ST
p4945
I88
I17847
tp4946
sS"WESTMINSTER 3D FLOOR, TEL DE'XTER 1-1230"
p4947
(g43
I74
I15991
tp4948
sVINC, 175 PAWTUCKET AV
p4949
(g2573
I73
I16771
tp4950
sS"EWE  PKW' AND BNPHAL"
p4951
(S'RAPHAEL AVE'
p4952
I48
I16418
tp4953
sVSMITH " SAWS
p4954
(g2508
I89
I16457
tp4955
sVHOSPITAL TRUST BLDG, TEIS DEXTER 1-8825, 1-8826
p4956
(g700
I69
I15878
tp4957
sVDEAN
p4958
(VDEAN ST
p4959
I86
I15825
tp4960
sS'UALROU, TELS HOPKLNS 7-8844, 30P- KH- 7-8845'
p4961
(g2263
I57
I15876
tp4962
sS'A F L-CIO340LOCKWOODST'
p4963
(g3961
I64
I15895
tp4964
sS'WESTMIN- STAR, TEL TEMPLE 1-7560'
p4965
(g5
I66
I15991
tp4966
sVMEET- ING, TEL GASPEE 1-9100
p4967
(g267
I70
I15863
tp4968
sS'WESTMINSTER, TEL DEXTDR 1-1230'
p4969
(g5
I80
I15991
tp4970
sV-337 PRAIRIE AV
p4971
(g1334
I90
I16787
tp4972
sVJORDAN CERAMIC PRODUCTS
p4973
(VCROUT ST
p4974
I50
I15819
tp4975
sS'-16 BLACKSTONE'
p4976
(S'BLACKSTONE PL'
p4977
I88
I15784
tp4978
sS'WEYBOSSET STRM906'
p4979
(g3530
I91
I15992
tp4980
sVCHEST-
p4981
(VCHESTER AVE
p4982
I73
I16619
tp4983
sVBFANCH AV
p4984
(g60
I83
I16067
tp4985
sS'N IANTIC AVE'
p4986
(S'NIANTIC AVE'
p4987
I86
I17274
tp4988
sS'RIVER AV, TEL GASPEE 1-1663; THE BAT- TERY SHOP 59-61 BROADWAY, TEL GASPEE 1-0610'
p4989
(g4082
I62
I16209
tp4990
sS'THOMAS OLNEY COMMON'
p4991
(S'THOMAS OLNEY COMMON ST'
p4992
I96
I17113
tp4993
sS'WESTMINSTER R11. TEL DEXTER 1-9609'
p4994
(g5
I77
I15991
tp4995
sVFOUNTAIN, TEL DEXTER 1-9000
p4996
(g2269
I77
I15853
tp4997
sVAND LEFT TOP LILIES)
p4998
(g1064
I58
I16355
tp4999
sVFOUNTAIN, TEL DEXTER
p5000
(g2269
I83
I15853
tp5001
sS'WESTMINSTER, TOL DLMR 1-5373'
p5002
(g5
I81
I15991
tp5003
sVPETTEYS AV  RADIO SETS-SALES AND SERVICE
p5004
(VPETTEYS AVE
p5005
I72
I17990
tp5006
sS'N 1MAIN'
p5007
(g3242
I91
I15916
tp5008
sS'EDDY ST3DF1'
p5009
(S'EDDY ST'
p5010
I49
I15834
tp5011
sVWEST - MINSTER R610
p5012
(g63
I77
I15991
tp5013
sS"EDDY 'AMICO'S BARBER SHOP 913 CHALKSTONE AV N'S BARBER SHOP 336 ACADEMY AV"
p5014
(g534
I64
I17433
tp5015
sVWESTMINSTER R1109
p5016
(g63
I88
I15991
tp5017
sV; BROAD
p5018
(g189
I88
I15793
tp5019
sVALEPPO  CHURCHES
p5020
(VCHURCH ST
p5021
I72
I16103
tp5022
sS'TURKS HEAD PL RM 615'
p5023
(g2328
I89
I15976
tp5024
sVWESTMINSTER R41 .; 1
p5025
(g63
I88
I15991
tp5026
sVWATERMAN AND 184
p5027
(g342
I83
I15988
tp5028
sVE TRANSIT
p5029
(g2545
I94
I16954
tp5030
sV-3310
p5031
(g1435
I43
I16868
tp5032
sVWESTMINSTER R 1908
p5033
(g63
I87
I15991
tp5034
sS"NMM'N ST"
p5035
(S'NORTH CT'
p5036
I85
I15918
tp5037
sVSTEI'ENS
p5038
(VSTONE ST
p5039
I65
I16476
tp5040
sVEMEOOD AV
p5041
(g211
I78
I17207
tp5042
sVHARRIS AV, TEL
p5043
(g489
I93
I15869
tp5044
sVWESTMNSTER,. PROVIDENCE, TEL ELMHURST 1-5800; DOWNTOWN OFFICE 20 WESTMINSTER; MT PLEASANTOFFICE 1082 CHALK- STONE, SIX OTHER CONVENIENT COMMUNITY OFFICES IN EARRING- TON, CRANSTON, CENTREDALE, PAWTUCKET AND GREENVILLE
p5045
(g2598
I44
I17599
tp5046
sS'OXFORD  ITPAINT-WHOLESALE AND'
p5047
(g4715
I56
I17001
tp5048
sS"ATWELLS AV CORNER HARRIS AV. TEL'GASNEE 1-4750"
p5049
(g3619
I69
I15775
tp5050
sVMAIOR
p5051
(VDIMARIO DR
p5052
I67
I16146
tp5053
sVATV'ZEUS AV R21
p5054
(VTEXAS AVE
p5055
I47
I16490
tp5056
sS'W EXCHANGE  HYDRAULIC EQUIPMENT 8ND'
p5057
(S'AYRAULT ST'
p5058
I48
I17392
tp5059
sVCRANSTON,
p5060
(g572
I92
I15817
tp5061
sVBROAD, TEL GASPEE 1-924'4
p5062
(g267
I71
I15863
tp5063
sS'DUDLEY  PWTAGE STAMPS AND PHILATBJ'
p5064
(S'MOUNT PLEASANT AVE'
p5065
I44
I17599
tp5066
sS'WESTMINSTER, TEL GASPEE 1-8280'
p5067
(g5
I80
I15991
tp5068
sVPOTTE'R'S AV
p5069
(g438
I78
I16786
tp5070
sS"ADMIRAL DRY GOODS STORE 374 WICKENDEN 11 BERNARDO 79 KNIGHT LZER'S DEPARTMENT STORE 238 PRAIRIE AV W YORK DRESS FABRICS 212 UNION R408 SCIANO ASSUNTA MRS 618 CHARLES 'S 263 ACADEMY AV IENZA MARI; 317 POCASSET AV EVIDENCE TEXTILE CO INC 243 N MAIN ENBFCOSOSNMAIN 81 ALL 53 CLYM"
p5071
(S'W FOUNTAIN ST'
p5072
I32
I15983
tp5073
sS"DOUGLAS AV AND 52 'PEKIN"
p5074
(S'DOUGLAS AVE'
p5075
I82
I16154
tp5076
sS'WEMNSTEX-STRMGW'
p5077
(g716
I71
I15991
tp5078
sS'-264 WEY- BOSSET, TELS GASPEE 1-8200, 1-8201'
p5079
(g173
I61
I15992
tp5080
sVWESTMINSTER LOCAL NO 28
p5081
(g63
I82
I15991
tp5082
sVWESTMINSTER R510
p5083
(g63
I90
I15991
tp5084
sVWESTMINSTER R512
p5085
(g63
I90
I15991
tp5086
sVWESTMINSTER R103O
p5087
(g63
I88
I15991
tp5088
sVWESTMINSTER R516
p5089
(g63
I90
I15991
tp5090
sS'OLNEYVILLE SQ R3'
p5091
(g987
I95
I17978
tp5092
sVWESTMMSTER R707
p5093
(g63
I77
I15991
tp5094
sVNINIGI'ET AV
p5095
(VNINIGRET AVE
p5096
I77
I17275
tp5097
sVOLNEYVILLE SQ R5
p5098
(g798
I95
I17978
tp5099
sVEMPIRE HAT AND CAP DEALERS-RETAIL
p5100
(g3705
I51
I17816
tp5101
sVFRIENDSHIP, TEL GASPEE 1-5481
p5102
(g1044
I79
I15858
tp5103
sVPITMAN, TELS UNION 1-3960, 1-3961
p5104
(g4048
I70
I17073
tp5105
sS'HEALTH & WELFARE FUND 511 WESTMINSTER R303 TEXTILE WORKERS UNION OF AMERI- CA'
p5106
(g5
I65
I15991
tp5107
sS'WASHINGTON  *REAL ESTATE TITLES EXAMINED AND GUARANTEED'
p5108
(g894
I69
I15987
tp5109
sVRESERVOIR AV, TEL WILLIAMS 1-4464
p5110
(g184
I79
I17303
tp5111
sVBERNON
p5112
(VBERNON ST
p5113
I90
I17404
tp5114
sS'BUDINGTON ST'
p5115
(S'BURLINGTON ST'
p5116
I86
I16914
tp5117
sS'SMITH 8T'
p5118
(g819
I94
I18708
tp5119
sV.DOR- RANGE COR WASHINGTON, TEL GASPEE
p5120
(g1620
I76
I16854
tp5121
sVPRAIR IE AV
p5122
(g1334
I87
I16787
tp5123
sS'PAW- TUCKET AV'
p5124
(S'PAWTUCKET AVE'
p5125
I86
I6979
tp5126
sS'WE STMINSTER R2 2'
p5127
(g43
I83
I15991
tp5128
sVWEGFMINEFNR
p5129
(g63
I60
I15991
tp5130
sS'SABIN ELEV A ENCE WIRE WORKS INC 36 BURRINZTON LAL MANUFACTURING CO 158 PINE 2TH FL CHEER WIRE WORKS 87 WILLARD AV CUE CO'
p5131
(S'E MANNING ST'
p5132
I39
I16951
tp5133
sS'BRANCH AV. TEL JACKSON 1-2696'
p5134
(g2777
I71
I16253
tp5135
sVWEVSTMINSTER R402
p5136
(g63
I86
I15991
tp5137
sS"ATWELH' AVE"
p5138
(S'ATWELLS AVE'
p5139
I81
I15775
tp5140
sVEX- CHANGE PL, TELJACKSON 1-9600
p5141
(g848
I61
I16253
tp5142
sS') AND GARDEN CITY'
p5143
(S'BARDEN ST'
p5144
I70
I17761
tp5145
sVATWELLS AV
p5146
(g146
I97
I15775
tp5147
sS'ANDERSON'
p5148
(S'ANDERSON ST'
p5149
I92
I17746
tp5150
sS"OLNEY BRIDGHAM APARTMENTS 107 BRIDGHAM BRIZIO APARTMENTS 86 PROVIDENCE BROADWAY APARTMENTS 235 BROADWAY BROWNELL APARTMENTS 57 BROWNELL '"
p5151
(S'PARENTE ST'
p5152
I42
I16389
tp5153
sVACADEMY AV CONTRAC TORS -CARPE NTER
p5154
(g2851
I74
I17365
tp5155
sS'WILLARD AV  CHEMICAL APPARATUS AND'
p5156
(S'ERASTUS ST'
p5157
I48
I17484
tp5158
sS'EMPIRE, TEL WLLLHM 2-5557'
p5159
(S'EMPIRE ST'
p5160
I74
I15840
tp5161
sVVALLEV
p5162
(g4171
I75
I17693
tp5163
sVELM- WOOD AV, TEL STUART 1-4919
p5164
(g906
I56
I15963
tp5165
sVACADEMY AV
p5166
(g2851
I97
I17365
tp5167
sS'KENNEDY PLAZA'
p5168
(g2451
I96
I15887
tp5169
sVAND RIGHTP TOP LINES)
p5170
(g1119
I61
I17781
tp5171
sS"TO 650. DOR- MCE CORNER'WASHLNGTON, TEL GASPEE 1-9200"
p5172
(g4301
I64
I16854
tp5173
sS'WESTMIN- STER ST'
p5174
(g501
I87
I15991
tp5175
sVWASHINGTON R209
p5176
(g137
I89
I15986
tp5177
sS'HURON'
p5178
(S'HURON ST'
p5179
I88
I17538
tp5180
sS'WEOUNIMTERSTRMAW'
p5181
(S'UNIVERSITY AVE'
p5182
I53
I17119
tp5183
sS'SPNSUE ST'
p5184
(S'SPRUCE ST'
p5185
I72
I15961
tp5186
sVCRANSTON, CRANSTON, RI, TEL UNION 1-0215
p5187
(g572
I73
I15817
tp5188
sVBAKER, TEL HONKINS 1-1329
p5189
(VHOPKINS ST
p5190
I63
I15876
tp5191
sVMATHEWSON R206
p5192
(g362
I88
I15904
tp5193
sVDORRANCE
p5194
(g605
I92
I15829
tp5195
sS'THKSTME ST'
p5196
(S'TIME ST'
p5197
I63
I16495
tp5198
sS'M111. JOHNSTON. R 1. TEL WLMAMS 24600'
p5199
(g4686
I67
I16707
tp5200
sVALLEN'S AV. 331. HOPKINS 1-5500
p5201
(g5190
I68
I15876
tp5202
sVWESTMINSTER R 18
p5203
(g63
I90
I15991
tp5204
sS'WESTMIN- STAR, TEL TEMPLE 1-6900'
p5205
(g43
I66
I15991
tp5206
sS'GREEN- . WICH ST'
p5207
(S'GREENWICH ST'
p5208
I83
I17220
tp5209
sV&.;' OD PAINT)
p5210
(g2790
I75
I16369
tp5211
sS"WELLINGTON A'V, CRANS'TON, TEL S'NART 1-5420"
p5212
(g640
I73
I17352
tp5213
sS'N MAIN CENTRAL NOVELTY CO 1 WASHINGTON AV DESILVA FRANK 85 KNIGHT ELMCRAFT CO 333 WESTMINSTER R205 MORRIS NOVELTY CO 235 N MAIN POCKAR SARNL B CO'
p5214
(g5
I58
I15991
tp5215
sS'.7 WEYBOSSET'
p5216
(g54
I89
I15992
tp5217
sS'FOREST'
p5218
(S'FOREST ST'
p5219
I90
I16972
tp5220
sS"FRIENDSHIP, TEL GASPEE 1-1304'"
p5221
(S'FRIENDSHIP ST'
p5222
I79
I15858
tp5223
sVALLEN,S AV
p5224
(g2557
I83
I15768
tp5225
sVA HOPE
p5226
(g2345
I81
I15875
tp5227
sS'WATMINSTER ST'
p5228
(g501
I87
I15991
tp5229
sV931 WESTMINSTER
p5230
(g63
I88
I15991
tp5231
sVWEST- MINSTER R 109-110
p5232
(g63
I72
I15991
tp5233
sS'MON MEL B 112 WATERMAN'
p5234
(g220
I74
I15988
tp5235
sVWEST- MINSTER. TELS ELMHURST 14098 AND 1-0570
p5236
(g120
I68
I17482
tp5237
sS'EDDY  BAKERW SUPPLIES AND'
p5238
(g2213
I50
I16263
tp5239
sVMANTON AV AND 1912 WESTMINSTER
p5240
(g63
I75
I15991
tp5241
sVELMHURST AV
p5242
(g120
I98
I17482
tp5243
sVHEPE
p5244
(g2345
I65
I15875
tp5245
sVBURRINZTON
p5246
(VBURLINGTON ST
p5247
I75
I16914
tp5248
sVNORWICH AV
p5249
(VNORWICH AVE
p5250
I97
I16753
tp5251
sS'SMITH , GLUTEN OF THE HOLY GHOST CONVENT 18'
p5252
(g2551
I65
I17451
tp5253
sS'MELROSE, TEL STUART 1-9400'
p5254
(g1984
I78
I17263
tp5255
sS"WESTMIN- ' STER, TEL TEMPLE 1-7500"
p5256
(g5
I68
I15991
tp5257
sVLIPPITT
p5258
(VLIPPITT ST
p5259
I91
I17024
tp5260
sVBASSETT,
p5261
(g4512
I91
I15777
tp5262
sS'-4TH AV N, NASHVILLE 3, TEN'
p5263
(g1401
I53
I17559
tp5264
sVLADIES AUXILIARV 295 MORRIS AV
p5265
(VAURELIA DR
p5266
I49
I17754
tp5267
s.