(dp0
S'RADIATOR MIRS--STEAM  HOT WATER'
p1
(I48
S'no_header'
p2
S'FALSE'
p3
tp4
sS'GRLNDLNG WHEEL SUPPLIES'
p5
(I63
g2
g3
tp6
sS'BROKERS-POOD PRODUCTS'
p7
(I95
S'BROKERS-FOOD PRODUCTS'
p8
S'TRUE'
p9
tp10
sS'DUMB WAITERS'
p11
(I65
g2
g3
tp12
sS'UNDERWEAR-WHOL  J OBBERS'
p13
(I58
g2
g3
tp14
sS'PENCE MFRS'
p15
(I90
S'FENCE MFRS'
p16
g9
tp17
sS'TEA  GOTTEE-RETAIL'
p18
(I67
g2
g3
tp19
sS'THE 32 HASKINS'
p20
(I54
g2
g3
tp21
sS"JEWELERS' BOXES"
p22
(I73
g2
g3
tp23
sS'CANSTLC SODA MFRS'
p24
(I63
g2
g3
tp25
sS'BOSSET COR FENNER'
p26
(I58
g2
g3
tp27
sS'DMGGISTS-WHOLESALE'
p28
(I92
S'DRUGGISTS-WHOLESALE'
p29
g9
tp30
sS'2\n\nL\n\n3'
p31
(I18
g2
g3
tp32
sS'LIGHTING EQNLPMENT-MFRS'
p33
(I52
g2
g3
tp34
sS'MACHINISTS'
p35
(I100
S'MACHINISTS'
p36
g9
tp37
sS'WALL PAPER DEALERS-WHOLE- SALE AND RETAIL'
p38
(I68
g2
g3
tp39
sS'WEDDING CANOPIES TO RENT'
p40
(I50
g2
g3
tp41
sS'OPTOMETRISTS'
p42
(I100
S'OPTOMETRISTS'
p43
g9
tp44
sS'JAPANNERS (SEE ENAMELERS) J EWELE RS--MIG'
p45
(I49
g2
g3
tp46
sS'PLUMBING SUPPLIES-DEALERS'
p47
(I100
S'PLUMBING SUPPLIES-DEALERS'
p48
g9
tp49
sS'METAL LATHS'
p50
(I67
g2
g3
tp51
sS"JEWELERS' CARDS"
p52
(I73
g2
g3
tp53
sS'OPP 72 PROSPECT'
p54
(I48
g2
g3
tp55
sS'ANTOMOBLLE WHEELS'
p56
(I69
g2
g3
tp57
sS'ESTATW MANAGED'
p58
(I53
g2
g3
tp59
sS'CUTLERY MFRS'
p60
(I100
S'CUTLERY MFRS'
p61
g9
tp62
sS'ENGLNEERS-MECHANICAL'
p63
(I95
S'ENGINEERS-MECHANICAL'
p64
g9
tp65
sS'RESTAURANTS  LUNCH ROOMS'
p66
(I63
g2
g3
tp67
sS'HANDKERCHIEF MFRS'
p68
(I65
g2
g3
tp69
sS'POUNDATLONS'
p70
(I61
g2
g3
tp71
sS'WINDOW DISPLAYS'
p72
(I67
g2
g3
tp73
sS'ATTOMEYS-PATENT'
p74
(I63
g2
g3
tp75
sS'TILE MIRS-BNLLDLNG'
p76
(I53
g2
g3
tp77
sS'MILL WORK'
p78
(I58
g2
g3
tp79
sS"JEWELERS' DISPLAY PADS"
p80
(I70
g2
g3
tp81
sS'TIRE DEALERS-WHOLOSALE'
p82
(I83
g2
g3
tp83
sS'ENG RAVERW SUPPLIES'
p84
(I67
g2
g3
tp85
sS"MEN'S PURNLSHLNGS-L'ULL DRESS"
p86
(I64
g2
g3
tp87
sS'PIANO MOVERS (SEE FURNITURE MOVERS) PLANO TUNERS  REPAIRERS'
p88
(I56
g2
g3
tp89
sS'PIVE, TEN  TWENTY-FIVE CENT STATES'
p90
(I50
g2
g3
tp91
sS'VETERINARIANS'
p92
(I76
g2
g3
tp93
sS'RAILROAD TICKET OFFICES'
p94
(I59
g2
g3
tp95
sS'INTHIGATIONS'
p96
(I72
g2
g3
tp97
sS'PUMP MFRS'
p98
(I59
g2
g3
tp99
sS"RUG ' CARPET CLEANERS"
p100
(I71
g2
g3
tp101
sS'RUG DEALERS'
p102
(I78
g2
g3
tp103
sS'LHM; DVEALERS-PEDLERS SUPPLIED'
p104
(I60
g2
g3
tp105
sS'SEWING MACHINE DEALERS'
p106
(I100
S'SEWING MACHINE DEALERS'
p107
g9
tp108
sS'OFFICE STATIONERY  SUPPLIES'
p109
(I65
g2
g3
tp110
sS'POUNDERS-BRASS, BRONZE  ALUMINUM (SEE ALSO CASTINGS)'
p111
(I43
g2
g3
tp112
sS'SALOONS (SEE LIQUOR DEALERS) SALVAGE COMPANIES'
p113
(I54
g2
g3
tp114
sS"HOT WATER HEATING (SEE' ALSO HEATING APPARATUS  APPLIANCES)"
p115
(I64
g2
g3
tp116
sS"F'HEATING ENGINEERS (SEE ALSO ENGINEERS-HEATING)"
p117
(I49
g2
g3
tp118
sS'TRUCKLNG  RIGGING'
p119
(I64
g2
g3
tp120
sS'FOOD PRODUCTS MFRS-PREPARED'
p121
(I96
S'FOOD PRODUCTS MFRS PREPARED'
p122
g9
tp123
sS'STEAMSHLP TICKET AGENTS (SEE ALSO TRANSPORTATION LINES)'
p124
(I53
g2
g3
tp125
sS'WOLLEGES, SCHOOLS  ACADEMIES'
p126
(I54
g2
g3
tp127
sS'PRIVATE DETECTIVES'
p128
(I56
g2
g3
tp129
sS'BOX MIRS-PAPER'
p130
(I52
g2
g3
tp131
sS'GOLD BEATERS'
p132
(I78
g2
g3
tp133
sS'PIN MFRS'
p134
(I70
g2
g3
tp135
sS'DAIRY PRODUCTS'
p136
(I80
g2
g3
tp137
sS'SHADES-WLNDOW'
p138
(I52
g2
g3
tp139
sS'SAWDUST  BAG "WOOD'
p140
(I47
g2
g3
tp141
sS'SCREEN MFRS'
p142
(I86
S'SCREW MFRS'
p143
g9
tp144
sS'SURVEYORS (SEE ALSO ENGINEERS-CIVIL)'
p145
(I59
g2
g3
tp146
sS'SATE MFRS'
p147
(I76
g2
g3
tp148
sS'SOLLCLTORS OF PATENTS'
p149
(I55
g2
g3
tp150
sS'HOTEL  THAURANT SUPPLIES  EQUIPMENT'
p151
(I87
S'HOTEL AND RESTAURANT SUPPLIES AND EQUIPMENT'
p152
g9
tp153
sS'INSURANCE COMPANIES-MARINE'
p154
(I84
g2
g3
tp155
sS'SAFE DEPOSIT VAULTS'
p156
(I100
S'SAFE DEPOSIT VAULTS'
p157
g9
tp158
sS'PLCTURE PRAMAS  PICTURES- DEALERS'
p159
(I85
g2
g3
tp160
sS'ELECTRIC WELDING'
p161
(I58
g2
g3
tp162
sS'GAS HEATERS'
p163
(I63
g2
g3
tp164
sS'SHATTING, HANGERS  PULLEYS'
p165
(I55
g2
g3
tp166
sS'SHLPPLNG TAG MFRS'
p167
(I61
g2
g3
tp168
sS'PHYSICIANS  SURGEONS'
p169
(I93
S'PHYSICIANS AND SURGEONS'
p170
g9
tp171
sS'NUT DEALERS  IMPORTERS'
p172
(I67
g2
g3
tp173
sS'METAL DEALERS'
p174
(I100
S'METAL DEALERS'
p175
g9
tp176
sS'TOOL STEEL'
p177
(I63
g2
g3
tp178
sS'WOOD '
p179
(I50
g2
g3
tp180
sS'REAL ESTATE TITLES EXAMINED AND GUARANTEED'
p181
(I61
g2
g3
tp182
sS'MULTIGRAPHING'
p183
(I59
g2
g3
tp184
sS'COD LIVER OIL'
p185
(I55
g2
g3
tp186
sS'GLASS PINS  RINGS'
p187
(I59
g2
g3
tp188
sS'AMUSEMENT COMPANIES'
p189
(I100
S'AMUSEMENT COMPANIES'
p190
g9
tp191
sS'CHIROPODISTS'
p192
(I100
S'CHIROPODISTS'
p193
g9
tp194
sS"AWNLNGS-L'OR WEDDINGS "
p195
(I50
g2
g3
tp196
sS"LE'LILEVATOR REPAIRING"
p197
(I67
g2
g3
tp198
sS'MESSENGER SERVICE'
p199
(I67
g2
g3
tp200
sS'BICYCLE DEALERS  REPAIRERS'
p201
(I81
g2
g3
tp202
sS'COLOR MFRS'
p203
(I74
g2
g3
tp204
sS'TOOL MANUFACTURERS'
p205
(I100
S'TOOL MANUFACTURERS'
p206
g9
tp207
sS'TIN CAN MFRS'
p208
(I67
g2
g3
tp209
sS'PUR STORAGE'
p210
(I78
g2
g3
tp211
sS'OLD GOLD'
p212
(I50
g2
g3
tp213
sS'SPECTACLES (SEE ALSO OPTICIANS)'
p214
(I48
g2
g3
tp215
sS'SIATE DEALERS'
p216
(I80
g2
g3
tp217
sS'CONLRACTORS-STEAM SHOVEL WORK'
p218
(I62
g2
g3
tp219
sS'AUTOMOBILE ACCESSORIES  PARTS -RETALL'
p220
(I92
S'AUTOMOBILE ACCESSORIES AND PARTS-RETAIL'
p221
g9
tp222
sS'PLNANCLNG-AUTOMOBLLES'
p223
(I70
g2
g3
tp224
sS'CHIROPRACTORS'
p225
(I100
S'CHIROPRACTORS'
p226
g9
tp227
sS'J EWELRY STONE SETTERS'
p228
(I65
g2
g3
tp229
sS'IRON PENCE MFRS'
p230
(I72
g2
g3
tp231
sS'BARBERS (SEE ALSO HAIRDRESSERS; ALSO BEAUTY SHOPS)'
p232
(I46
g2
g3
tp233
sS'ARTISTS-COMMERCIAL'
p234
(I100
S'ARTISTS-COMMERCIAL'
p235
g9
tp236
sS'VARIETY STORES'
p237
(I100
S'VARIETY STORES'
p238
g9
tp239
sS'CELLOPHANE GOODS-MIRS'
p240
(I67
g2
g3
tp241
sS'GOAL DEALERS-RETALL'
p242
(I89
S'COAL DEALERS-RETAIL'
p243
g9
tp244
sS'WINDOW CLEANERS'
p245
(I100
S'WINDOW CLEANERS'
p246
g9
tp247
sS'WINDOW VENTILATORS'
p248
(I71
g2
g3
tp249
sS'MCOPYRIGHTS'
p250
(I53
g2
g3
tp251
sS'SANITARIUMS'
p252
(I100
S'SANITARIUMS'
p253
g9
tp254
sS'NEWS DEALEM (SEE ALSO BOOKSELLERS)'
p255
(I54
g2
g3
tp256
sS'TIME REOORDEM-MTRS'
p257
(I56
g2
g3
tp258
sS'RIGGERS'
p259
(I67
g2
g3
tp260
sS'STEEPLE J ACKS'
p261
(I58
g2
g3
tp262
sS'EMBROIDERY, HEMSTITCHING  STAMPING'
p263
(I50
g2
g3
tp264
sS'DRAFTSMEN'
p265
(I100
S'DRAFTSMEN'
p266
g9
tp267
sS'PATENT LAWYERS'
p268
(I74
g2
g3
tp269
sS'MORTGAGE TITLE INSURANCE'
p270
(I68
g2
g3
tp271
sS'WATERPROOFING'
p272
(I64
g2
g3
tp273
sS'LOAM'
p274
(I60
g2
g3
tp275
sS'APOTHECARLES (SEE DRUGGISTS) APPRAISERS'
p276
(I49
g2
g3
tp277
sS'ICE CREAM MFRS'
p278
(I76
g2
g3
tp279
sS'INSURANCE AGENTS'
p280
(I100
S'INSURANCE AGENTS'
p281
g9
tp282
sS'FFENGRAVERS-WAX'
p283
(I69
g2
g3
tp284
sS'IRON FOUNDERS (SEE ALSO FOUNDERS)'
p285
(I52
g2
g3
tp286
sS'BELT HOOKS  RINQ TRAVELERS'
p287
(I52
g2
g3
tp288
sS'GORNTRACTORS-BUILDING'
p289
(I78
g2
g3
tp290
sS'ENAMELERS (SEE ALSO JAPANNERS)'
p291
(I51
g2
g3
tp292
sS'OLL-PUEL'
p293
(I55
g2
g3
tp294
sS'FISH DEALERS-WHOLOSALE'
p295
(I83
g2
g3
tp296
sS'MAGNETOS'
p297
(I59
g2
g3
tp298
sS'BURGLAR  FIRE ALARM NOTIFICA- TLON'
p299
(I66
g2
g3
tp300
sS'BROKERS-CUSTOM HOUSE'
p301
(I100
S'BROKERS-CUSTOM HOUSE'
p302
g9
tp303
sS'DENTAL SUPPLIES  EQUIPMENT'
p304
(I79
g2
g3
tp305
sS'DAIRY SUPPLIES  EQUIPMENT- DEALERS'
p306
(I69
g2
g3
tp307
sS'DYERS  CLEANERS (SEE CLEANERS-GARMENTS, CUR- TAINS  DRAPERIES)'
p308
(I45
g2
g3
tp309
sS'ROACH POWDER'
p310
(I55
g2
g3
tp311
sS"TENTING  AWNING MANU- FACTURERS (SEE AWNING  TENT MAKERS) 'TEST BORLNGS"
p312
(I46
g2
g3
tp313
sS'GONTRACTOHONCRETE'
p314
(I81
g2
g3
tp315
sS'WET WASH LAUNDRIES'
p316
(I67
g2
g3
tp317
sS'TILE CONTRACTORS'
p318
(I79
g2
g3
tp319
sS'STARCH MANUFACTURERS'
p320
(I83
g2
g3
tp321
sS'DYE STUFFS'
p322
(I100
S'DYE STUFFS'
p323
g9
tp324
sS'AUTOMATIC SPRINKLER SYSTEMS'
p325
(I58
g2
g3
tp326
sS'HAIR GOODS-HUMAN-MFRS  DEALERS'
p327
(I59
g2
g3
tp328
sS'WOOD WORKERS'
p329
(I55
g2
g3
tp330
sS'ELOCUTION TEACHERS'
p331
(I71
g2
g3
tp332
sS'NURSES'
p333
(I100
S'NURSES'
p334
g9
tp335
sS'PUMEMAL DIRECTORS (SEE ALSO UNDERTAKERS)'
p336
(I57
g2
g3
tp337
sS'CONTRACTOLRS'
p338
(I79
g2
g3
tp339
sS'SEWER BUILDERS  CONTRACTORS'
p340
(I69
g2
g3
tp341
sS'WOOD CARVERS'
p342
(I60
g2
g3
tp343
sS'FRIENDSHIP'
p344
(I55
g2
g3
tp345
sS'SAWS'
p346
(I55
g2
g3
tp347
sS'SCOURING SOAPS'
p348
(I62
g2
g3
tp349
sS'WEYBOSSET'
p350
(I48
g2
g3
tp351
sS"DRUGGLSTS' SUNDRIES"
p352
(I61
g2
g3
tp353
sS'PAINT  COLOR MIRS (SEE ALSO VARNISH MFRS)'
p354
(I50
g2
g3
tp355
sS'ART GOODS  BRIO-A-BRAC (SEE ALSO GIFT SHOPS)'
p356
(I44
g2
g3
tp357
sS'ORG AN BUILDER'
p358
(I64
g2
g3
tp359
sS'PAPER INSULATED LEAD ENCAS-ED POWER O ABLE MFRS'
p360
(I53
g2
g3
tp361
sS'ENGINEERS-MILL'
p362
(I83
g2
g3
tp363
sS'COTT-ON  WOOLEN WASTE (SEE WASTE DEALERS-COTTON, SILK  WOOL) GOUNSELORS-AT-LAW'
p364
(I40
g2
g3
tp365
sS'ICE-MFRS  WHOLESALE'
p366
(I72
g2
g3
tp367
sS'BOOK CLOTH MFRS'
p368
(I67
g2
g3
tp369
sS'DENTAL LABORATORIES'
p370
(I100
S'DENTAL LABORATORIES'
p371
g9
tp372
sS'PRINTERS-CATALOG'
p373
(I67
g2
g3
tp374
sS'AUTOMOBILE LAUNDRIES'
p375
(I79
g2
g3
tp376
sS'"ASBESTOS SHINGLES'
p377
(I71
g2
g3
tp378
sS'WINDOW SCREENS (SEE SCREEN MFRS) WINDOW SHADE MFRS'
p379
(I45
g2
g3
tp380
sS'LAW BOOKS (SEE BOOKSELLERS) LAWYERS'
p381
(I47
g2
g3
tp382
sS'LETTERS OF CREDIT'
p383
(I55
g2
g3
tp384
sS'IRON  STEEL DEALERS'
p385
(I68
g2
g3
tp386
sS'BOOKSELLERS'
p387
(I67
g2
g3
tp388
sS'ROLLER SKINS'
p389
(I61
g2
g3
tp390
sS'PATTERN  MODEL MAKERS'
p391
(I80
g2
g3
tp392
sS'HEATING  VENTILATING-CONTRAC- TORS'
p393
(I57
g2
g3
tp394
sS'OPTICAL DISPLAY CASES'
p395
(I62
g2
g3
tp396
sS'FLAVORING THRACTS-MFRS'
p397
(I60
g2
g3
tp398
sS"WORSTED GOODS MANULACTURERS (SEE TEXTILE MFRS) 'WRECKERS OF BUILDINGS"
p399
(I47
g2
g3
tp400
sS'GUTTERS  CONDUCTOR PIPE (SEE ALSO SHEET METAL WORKERS)'
p401
(I52
g2
g3
tp402
sS'TANK MFRS'
p403
(I67
g2
g3
tp404
sS'SEALS-NOTARY  CORPORATION'
p405
(I54
g2
g3
tp406
sS"PRINTERS' BLANKETS"
p407
(I62
g2
g3
tp408
sS'CLUBS'
p409
(I100
S'CLUBS'
p410
g9
tp411
sS'MILLINERY GOODS-WHOLESALE'
p412
(I67
g2
g3
tp413
sS'CIGAR MFRS'
p414
(I73
g2
g3
tp415
sS'HOUSE MOVERS  SHORERS'
p416
(I57
g2
g3
tp417
sS'LABEL MANUFACTURERS'
p418
(I84
g2
g3
tp419
sS'"GOAT  APRON SUPPLY'
p420
(I54
g2
g3
tp421
sS'PELT DEALERS'
p422
(I81
g2
g3
tp423
sS'LABOR ORGANIZATIONS'
p424
(I81
g2
g3
tp425
sS"I'LRE BRICK. FIRE TILE  RETRAC- TORY CEMENTS"
p426
(I45
g2
g3
tp427
sS'GASOLLNE-WHOLESALE'
p428
(I74
g2
g3
tp429
sS'BROKERS-INSURANEE'
p430
(I67
g2
g3
tp431
sS'GROCERY SUNDRIES'
p432
(I64
g2
g3
tp433
sS'CORDAGE  TWINE--DEALERS'
p434
(I62
g2
g3
tp435
sS'WELDERS  BRAZERS'
p436
(I91
S'WELDERS AND BRAZERS'
p437
g9
tp438
sS'ENGRAVERS-WOOD'
p439
(I83
g2
g3
tp440
sS'PIPE'
p441
(I50
g2
g3
tp442
sS'COPPERSMITHS'
p443
(I67
g2
g3
tp444
sS'ENGINEM-CIVIL'
p445
(I86
S'ENGINEERS-CIVIL'
p446
g9
tp447
sS'HAY  STRAW DEALERS'
p448
(I67
g2
g3
tp449
sS'CASH REGISTERS-DEALERS'
p450
(I63
g2
g3
tp451
sS'STONE  PEARL SETTERS'
p452
(I59
g2
g3
tp453
sS'HARRISON'
p454
(I63
g2
g3
tp455
sS'SCHOOLS, COLLEGES  ACADEMIES'
p456
(I67
g2
g3
tp457
sS'PICTURE PRAMES-MFRS'
p458
(I60
g2
g3
tp459
sS'TEXTILE MFRS-BRAIDS  TAPES'
p460
(I63
g2
g3
tp461
sS'DRYER FELTS'
p462
(I57
g2
g3
tp463
sS"CASKET MTRS-BURIAL (SEE'UNDERTAKERY SUPPLIES) CAST STONE MFRS"
p464
(I51
g2
g3
tp465
sS'JEWELRY TAG MFRS'
p466
(I86
S'JEWELRY MFRS'
p467
g9
tp468
sS'HOTELS'
p469
(I100
S'HOTELS'
p470
g9
tp471
sS'MANUFACTURERS, SUPPLIES'
p472
(I74
g2
g3
tp473
sS'AUTOMOBILE AGENCIW-PASSEN- GER CARS'
p474
(I69
g2
g3
tp475
sS'GHNRDHES'
p476
(I63
g2
g3
tp477
sS'SOAP MFRS'
p478
(I67
g2
g3
tp479
sS'OVERHEAD DOORS'
p480
(I61
g2
g3
tp481
sS'MUSEUM'
p482
(I92
S'MUSEUMS'
p483
g9
tp484
sS'PACKERS-MEAT  PROVISION'
p485
(I51
g2
g3
tp486
sS"BONDS-I'IDELITY  SURETY"
p487
(I48
g2
g3
tp488
sS'PASTENERS-MIRS'
p489
(I67
g2
g3
tp490
sS'ANTIQUES'
p491
(I100
S'ANTIQUES'
p492
g9
tp493
sS'GOAL DEAIM-WHOLESALE'
p494
(I81
g2
g3
tp495
sS'CHINA. CROCKERY, GLASSWARE  EARIHECNWARE-RETAIL'
p496
(I57
g2
g3
tp497
sS'STEEL CEILINGS'
p498
(I58
g2
g3
tp499
sS'FURNITURE DEALERS-SECONDHAND'
p500
(I84
g2
g3
tp501
sS'MAGNET WIRE MFRS'
p502
(I69
g2
g3
tp503
sS'MOTOR TRUCKING'
p504
(I73
g2
g3
tp505
sS'VEGOTABLES'
p506
(I59
g2
g3
tp507
sS'MACARONI MANNIACTURERS'
p508
(I73
g2
g3
tp509
sS'TOYS  GAMES-MFRS'
p510
(I70
g2
g3
tp511
sS'CRANSTON'
p512
(I57
g2
g3
tp513
sS'TRUNK MFRS'
p514
(I67
g2
g3
tp515
sS'INCINERATORS'
p516
(I65
g2
g3
tp517
sS'DRY GOODS-WHOLESALE'
p518
(I85
g2
g3
tp519
sS"L'URNITURE PACKERS  MOVERS"
p520
(I63
g2
g3
tp521
sS"PIPES  SMOKERS' ARTICLES- DEALERS"
p522
(I63
g2
g3
tp523
sS'OPTICIANS'
p524
(I100
S'OPTICIANS'
p525
g9
tp526
sS'BUILDING MATERIALS  SUPPLIES'
p527
(I95
S'BUILDING MATERIALS AND SUPPLIES'
p528
g9
tp529
sS'FIRE EXTINGUISHERS'
p530
(I100
S'FIRE EXTINGUISHERS'
p531
g9
tp532
sS'GHMNLCALS-WHOLESALE'
p533
(I84
g2
g3
tp534
sS'STER'
p535
(I73
g2
g3
tp536
sS'NOTIONS  FANCY GOODS-RETALL'
p537
(I67
g2
g3
tp538
sS'AUTOMOBLLE INSURANCE'
p539
(I95
S'AUTOMOBILE INSURANCE'
p540
g9
tp541
sS'"SCRAP IRON (SEE ALSO JUNK DEALERS)'
p542
(I56
g2
g3
tp543
sS'MANULACTURING CHEMISTS'
p544
(I63
g2
g3
tp545
sS'STEAM FITTERS (SEE ALSO HEATING  VENTILATING; ALSO PLUMBERS)'
p546
(I46
g2
g3
tp547
sS'COR MEETING'
p548
(I67
g2
g3
tp549
sS'LEATHER GOODS-RETALL (SEE ALSO TRUNKS  TRAVELING BAGS-RETAIL)'
p550
(I50
g2
g3
tp551
sS"GASH REGISTEA'S-REPALRERS"
p552
(I56
g2
g3
tp553
sS'RELRIGERATION SUPPLIES'
p554
(I67
g2
g3
tp555
sS'I.LABLLLTY INSURANCE'
p556
(I65
g2
g3
tp557
sS'SURETY BONDS'
p558
(I62
g2
g3
tp559
sS"PLORISTS' SUPPLIES"
p560
(I72
g2
g3
tp561
sS'UNIFORM MFRS'
p562
(I59
g2
g3
tp563
sS'ESTATW-OFIICES OF (SEE ALSO REAL ESTATE OWNERS  DEALERS)'
p564
(I63
g2
g3
tp565
sS'GLASS MFRS'
p566
(I100
S'GLASS MFRS'
p567
g9
tp568
sS'DEPARTMENT STORES'
p569
(I100
S'DEPARTMENT STORES'
p570
g9
tp571
sS'STEEL BEAMS, CHANNELS C'
p572
(I52
g2
g3
tp573
sS'POULTRY DEALERS-RETALL'
p574
(I95
S'POULTRY DEALERS-RETAIL'
p575
g9
tp576
sS"LADIES'  MISSES' READY-TO- WEAR CLOTHING-RETALL (SEE CLOTHING DEALERS-WOMEN'S  MISSES'--RETAIL) LAMP SHADES  PRAMES-MFTS  DEALERS"
p577
(I36
g2
g3
tp578
sS'MUSICAL INSTRUMENT MFRS'
p579
(I86
S'MUSICAL INSTRUMENT DEALERS'
p580
g9
tp581
sS'FLOUR DEALERS-WHOLESALE  BROKERS'
p582
(I87
S'FRUIT DEALERS-WHOLESALE AND BROKERS'
p583
g9
tp584
sS'BOTTLERS-BEER  ALE'
p585
(I64
g2
g3
tp586
sS'L4 BEACON AV'
p587
(I44
g2
g3
tp588
sS'LIGHTLNG FIXTURES'
p589
(I56
g2
g3
tp590
sS'TOILET ARTICLES  SUPPLIES (SEE ALSO PERFUME MFRS)'
p591
(I65
g2
g3
tp592
sS"J EWELERS' SUPPLIES"
p593
(I97
S"JEWELERS' SUPPLIES"
p594
g9
tp595
sS'OILS  LUBRICANTS-DEALERS'
p596
(I92
S'OILS AND LUBRICANTS- DEALERS'
p597
g9
tp598
sS'CHARCOAL'
p599
(I56
g2
g3
tp600
sS'SAW MILLS'
p601
(I57
g2
g3
tp602
sS'CATALOGUE PRINTERS'
p603
(I69
g2
g3
tp604
sS'CONTRACTORS-SEWER  DRAIN'
p605
(I94
S'CONTRACTORS-SEWER AND DRAIN'
p606
g9
tp607
sS'PUSLBLE ENAMELS'
p608
(I58
g2
g3
tp609
sS'CATERERS (SEE ALSO ICE CREAM MFRS)'
p610
(I50
g2
g3
tp611
sS'NUMISMATLSTS'
p612
(I92
S'NUMISMATISTS'
p613
g9
tp614
sS'SHLPSMITHS (SEE BLACKSMITHS) SHIRT MFRS'
p615
(I44
g2
g3
tp616
sS'CHURCH GOODS (SEE ALSO STATUARY)'
p617
(I58
g2
g3
tp618
sS'SPRING MIN'
p619
(I60
g2
g3
tp620
sS'PICTURES  ENGRAVINGS-DEALERS'
p621
(I63
g2
g3
tp622
sS'CONTRACTORS EQUIPMENT'
p623
(I76
g2
g3
tp624
sS'BEAUTY SHOPS (SEE ALSO BARBERS)'
p625
(I63
g2
g3
tp626
sS'WALL CANVAS'
p627
(I50
g2
g3
tp628
sS'PIRE ESCAPE MANUIACTNRERS'
p629
(I73
g2
g3
tp630
sS'LOANS-ANTOMOBLLE'
p631
(I88
S'LOANS-AUTOMOBILE'
p632
g9
tp633
sS'CONSTABLES'
p634
(I67
g2
g3
tp635
sS'COLLECTIONS'
p636
(I100
S'COLLECTIONS'
p637
g9
tp638
sS'ENGINES-STEAM'
p639
(I61
g2
g3
tp640
sS'BONDS  STOCKS'
p641
(I56
g2
g3
tp642
sS'NGHTLNG-GAS'
p643
(I48
g2
g3
tp644
sS'REFRIGERATOR DEALERS'
p645
(I67
g2
g3
tp646
sS' PAINT  COLOR DEALERS-WHOLE- SALE'
p647
(I76
g2
g3
tp648
sS'ORTHOPEDIC APPLIANCES'
p649
(I100
S'ORTHOPEDIC APPLIANCES'
p650
g9
tp651
sS'OXYGEN'
p652
(I46
g2
g3
tp653
sS'CONCRETERS  ROOTERS'
p654
(I65
g2
g3
tp655
sS'SYNTHETLC RESINS'
p656
(I58
g2
g3
tp657
sS'NGHTERING'
p658
(I67
g2
g3
tp659
sS'PUBLISHERS-BOOK, NEWSPAPER  PERIODICAL'
p660
(I55
g2
g3
tp661
sS'BADGES  METAL CHECKS'
p662
(I55
g2
g3
tp663
sS'INSURANCE COMPANJW-THE'
p664
(I83
g2
g3
tp665
sS'FURNITURE REPAIRERS (SEE ALSD UPHOLSTERERS)'
p666
(I57
g2
g3
tp667
sS'ERE SPECIALTIES'
p668
(I61
g2
g3
tp669
sS'BED MFRS'
p670
(I67
g2
g3
tp671
sS'INSULATING MATERIALS-ELEPTRI- CAL, COID, HEAT  SOUND'
p672
(I51
g2
g3
tp673
sS'DAY NURSERIES'
p674
(I100
S'DAY NURSERIES'
p675
g9
tp676
sS'ANAEE OILS'
p677
(I60
g2
g3
tp678
sS'CLOTHING DEALERS-SECONDHAND'
p679
(I62
g2
g3
tp680
sS'VENTLLATLNG SYSTEMS'
p681
(I60
g2
g3
tp682
sS'ENTERTAINMENT BUREAUS'
p683
(I69
g2
g3
tp684
sS'REAL ESTATE INVESTMENTS'
p685
(I92
S'REAL ESTATE AND INVESTMENTS'
p686
g9
tp687
sS'LIME-PLUXSTONE'
p688
(I52
g2
g3
tp689
sS'GRALN DEALERS (SEE FLOUR DEALERS) GRANITE DEALERS'
p690
(I58
g2
g3
tp691
sS"ARTLSTS' PAINTS"
p692
(I67
g2
g3
tp693
sS'LAPPLNGS  BLANKETS'
p694
(I65
g2
g3
tp695
sS'TOYS  GAMW-WHOLMALE'
p696
(I63
g2
g3
tp697
sS'GENERAL MERCHANDISE-RETALL'
p698
(I94
S'GENERAL MERCHANDISE- RETAIL'
p699
g9
tp700
sS'ARTIFICIAL LLMBS-MFRS'
p701
(I62
g2
g3
tp702
sS'CONCRETE BLOCK MFRS'
p703
(I55
g2
g3
tp704
sS'DRUGGISTS-MTRS'
p705
(I73
g2
g3
tp706
sS'J EWELERSB FINDINGS'
p707
(I94
S'JEWELERS FINDINGS'
p708
g9
tp709
sS"DANCING ACADEMIES  TEACHELL'S"
p710
(I67
g2
g3
tp711
sS'PITCH-ROOFING, WATERPROOF- LUG  PAVING'
p712
(I47
g2
g3
tp713
sS'BEE KEEPERS (SEE APIARISTS) BEER  ALE-WHOLESALE'
p714
(I53
g2
g3
tp715
sS'CREAM DEALERS'
p716
(I77
g2
g3
tp717
sS'LINENS-RETAIL (SEE DRY GOODS) LINOTYPE  MONOTYPE COM- POSITION'
p718
(I41
g2
g3
tp719
sS'SHOE DEALERS-WHOLOSALE  J OBBELS'
p720
(I67
g2
g3
tp721
sS"S'ASH-STEEL"
p722
(I48
g2
g3
tp723
sS'LSTEEL-RELNTORCING STEEL  STEEL PRODUCTS'
p724
(I58
g2
g3
tp725
sS"TAILORS-MERCHANT (SEE ALSO LADIES' TAILORS)"
p726
(I58
g2
g3
tp727
sS'TNIST COMPANIES (SEE ALSO BANKS)'
p728
(I55
g2
g3
tp729
sS'BUTTER, CHEESE  EGGS-RETAIL'
p730
(I60
g2
g3
tp731
sS'LEATHER GOODS-MIRS'
p732
(I79
g2
g3
tp733
sS'ENGINE TUMERS-JEWELRY'
p734
(I74
g2
g3
tp735
sS'SODA FOUNTAIN SUPPLOS'
p736
(I56
g2
g3
tp737
sS'CANDLCS'
p738
(I57
g2
g3
tp739
sS'PHYSIO THERAPISTS'
p740
(I89
S'PHYSICAL THERAPISTS'
p741
g9
tp742
sS'SPORTING GOODS-WHOLESALE'
p743
(I80
g2
g3
tp744
sS'MARBLE WORKERS'
p745
(I67
g2
g3
tp746
sS'LAS AV'
p747
(I57
g2
g3
tp748
sS'IMN CASTINGS'
p749
(I67
g2
g3
tp750
sS'IRON BRIDGE BUILDERS'
p751
(I57
g2
g3
tp752
sS'SLLVER PLATERS (SEE ALSO PLATERS)'
p753
(I50
g2
g3
tp754
sS'AMUSEMENTS-PLACES OI (SEE ALSO PARKS  PLAYGROUNDS IN INDEX TO CONTENTS)'
p755
(I42
g2
g3
tp756
sS'LWLARINE INSURANCE'
p757
(I68
g2
g3
tp758
sS'AUTOMOBILE GARAGES'
p759
(I100
S'AUTOMOBILE GARAGES'
p760
g9
tp761
sS'BUILDIN-G PAPER'
p762
(I70
g2
g3
tp763
sS'WATER SUPPLY COMPANIES'
p764
(I70
g2
g3
tp765
sS'LIQUORS-WHOLESALE'
p766
(I83
g2
g3
tp767
sS"PHOTOGRAPHERS-G'OMMERCLAL"
p768
(I90
S'PHOTOGRAPHERS-COMMERCIAL'
p769
g9
tp770
sS'STATIONEM-MFG (SEE LOOSE LEAF SYSTEMS  DEVICES-MFG) STATIONERS-RETAIL (SEE ALSO BOOKSELLERS)'
p771
(I40
g2
g3
tp772
sS'LEATHER STRAPS'
p773
(I69
g2
g3
tp774
sS'HARDWOOD FLOORING'
p775
(I54
g2
g3
tp776
sS'SLATE   GRAVEL ROOFERS'
p777
(I56
g2
g3
tp778
sS'LEATHER DEALERS'
p779
(I75
g2
g3
tp780
sS'BOTTLERS-MLNERAL, SPRING  DIS- TILLED WATER'
p781
(I50
g2
g3
tp782
sS'FORWARDING AGENTS'
p783
(I100
S'FORWARDING AGENTS'
p784
g9
tp785
sS'BLUE STONE'
p786
(I64
g2
g3
tp787
sS'CERTIFLED PUBLIC ACCOUNTANTS'
p788
(I56
g2
g3
tp789
sS'LODGE JEWELS'
p790
(I60
g2
g3
tp791
sS'SHELDON'
p792
(I53
g2
g3
tp793
sS'GLORIA DEI LS HAYES'
p794
(I51
g2
g3
tp795
sS'BROAD'
p796
(I55
g2
g3
tp797
sS'CORK INSULATION BOARD'
p798
(I59
g2
g3
tp799
sS'CONTRACTORS-MASON'
p800
(I100
S'CONTRACTORS-MASON'
p801
g9
tp802
sS'JEWELERS-WHOLESALE  IMPORT- LNG'
p803
(I89
S'JEWELERS-WHOLESALE AND IMPORTING'
p804
g9
tp805
sS'LIVE STOCK BREEDERS'
p806
(I56
g2
g3
tp807
sS'LIBRARIES'
p808
(I100
S'LIBRARIES'
p809
g9
tp810
sS'LAUNDRY SUPPLIES  EQUIPMENT DEALERS'
p811
(I67
g2
g3
tp812
sS'LUNCHES-PREPARED  SUPPLIED'
p813
(I57
g2
g3
tp814
sS'ELECTRIC LIGHTING FIXTURES'
p815
(I54
g2
g3
tp816
sS'TREE SURGERY'
p817
(I96
S'TREE SURGE RY'
p818
g9
tp819
sS' CORPORATIONS (SEE MANUFACTURING INCORPOR- ATED COMPANIES) GORSETLEROS'
p820
(I48
g2
g3
tp821
sS'L9 ACADEMY AV'
p822
(I44
g2
g3
tp823
sS'PURNLTURE MOVERS (SEE ALSO EXPRESSES; ALSO TRUCK- ING  TEAMING)'
p824
(I45
g2
g3
tp825
sS'CORNICE MANUFACTURERS'
p826
(I85
g2
g3
tp827
sS'MAILING BOXES'
p828
(I64
g2
g3
tp829
sS'L"TUBING'
p830
(I71
g2
g3
tp831
sS'KENNELS'
p832
(I63
g2
g3
tp833
sS'BUTTER'
p834
(I59
g2
g3
tp835
sS"C'EMENT BUILDING BLOCKS (SEE CONCRETE BLOCK MFRS) CEMENT CONSTRUCTION-OON- TRACTORS"
p836
(I39
g2
g3
tp837
sS'WASTE DEALERS-GOTTON, SILK  WOOL'
p838
(I55
g2
g3
tp839
sS"CLOTHING DEALERS-CHILDREN'S  INIANTY-RETALL"
p840
(I77
g2
g3
tp841
sS'SAVINGS  LOAN ASSOCIATIONS'
p842
(I56
g2
g3
tp843
sS'INSULAUNG MATERIALS'
p844
(I65
g2
g3
tp845
sS'FLOWERING PLANTS  BULBS'
p846
(I60
g2
g3
tp847
sS'STOCKS  BONDS'
p848
(I70
g2
g3
tp849
sS"CLOTHING DEALERS-WOMEN'S  MISSESH-RETAIL"
p850
(I69
g2
g3
tp851
sS'TEXTILE MFRS-SHODDY'
p852
(I77
g2
g3
tp853
sS'BOOKBINDERS'
p854
(I100
S'BOOKBINDERS'
p855
g9
tp856
sS'WEATHER STRIPS-METAL'
p857
(I65
g2
g3
tp858
sS'OILS-EDIBLE-MIRS'
p859
(I63
g2
g3
tp860
sS'MORTOAGE LOANS'
p861
(I93
S'MORTGAGE LOANS'
p862
g9
tp863
sS'FILM EXCHANGES'
p864
(I59
g2
g3
tp865
sS'MLNSTER'
p866
(I63
g2
g3
tp867
sS"MALICE PRINTERSL  ENGRAVERS' SUPPLIES"
p868
(I59
g2
g3
tp869
sS'WAX ENGRAVERS'
p870
(I73
g2
g3
tp871
sS'HANDWRITING EXPERTS'
p872
(I58
g2
g3
tp873
sS'TITLE INSURANCE'
p874
(I80
g2
g3
tp875
sS'AUTOMOBILE LIVERIES (SEE AUTOMOBILE RENTING) AUTOMOBLLE PAINTERS'
p876
(I54
g2
g3
tp877
sS"SHOE MFRS' GOODS  SUPPLIES"
p878
(I64
g2
g3
tp879
sS'ALCOHOL'
p880
(I50
g2
g3
tp881
sS'HEAT TREATING-STEEL'
p882
(I81
g2
g3
tp883
sS'GREASE-LUBRICATING (SEE TALLOW  GREASE) GREETING CARDS'
p884
(I46
g2
g3
tp885
sS'CEMENT, LIME  PLASTER'
p886
(I54
g2
g3
tp887
sS'DELICATESSEN'
p888
(I100
S'DELICATESSEN'
p889
g9
tp890
sS'NOVELTLW-WHOLOSALE'
p891
(I81
g2
g3
tp892
sS'SHEET METALS'
p893
(I77
g2
g3
tp894
sS'BELL HANGERS (SEE LOCKSMITHS) BELT FASTENERS'
p895
(I50
g2
g3
tp896
sS'SAVLNGS BANKS'
p897
(I92
S'SAVINGS BANKS'
p898
g9
tp899
sS'ELECTRICAL CONTRACTORS'
p900
(I100
S'ELECTRICAL CONTRACTORS'
p901
g9
tp902
sS'COSTUMERS'
p903
(I70
g2
g3
tp904
sS'ASBESTOS PAPER'
p905
(I58
g2
g3
tp906
sS'HARDWOOD LUMBER'
p907
(I52
g2
g3
tp908
sS'STEAM HEATING'
p909
(I69
g2
g3
tp910
sS'RUMITURE MANUFACTURERS'
p911
(I79
g2
g3
tp912
sS'PEARL WORKERS'
p913
(I69
g2
g3
tp914
sS'STABLW'
p915
(I53
g2
g3
tp916
sS'HAIRDRESSERS (SEE BEAUTY SHOPS) HALLS'
p917
(I51
g2
g3
tp918
sS'OLOCKS-DEALERS'
p919
(I73
g2
g3
tp920
sS'BEVERAGE MFRS'
p921
(I100
S'BEVERAGE MFRS'
p922
g9
tp923
sS'GLASS DEALERS-WINDOW  PLATE'
p924
(I95
S'GLASS DEALERS-WINDOW AND PLATE'
p925
g9
tp926
sS'AUTOMATLC HEAT'
p927
(I58
g2
g3
tp928
sS'ENGROSSERS'
p929
(I63
g2
g3
tp930
sS'N OVELTIES-RETAIL'
p931
(I97
S'NOVELTIES-RETAIL'
p932
g9
tp933
sS'WELDING EQUIPMENT'
p934
(I73
g2
g3
tp935
sS'TEACHERS (SEE COLLEGES, SCHOOLS AND ACA- DEMIES; ALSO MISCELLANEOUS DEPT) TELEGRAPH COMPANIES'
p936
(I44
g2
g3
tp937
sS'L929 WESTMINSTER'
p938
(I67
g2
g3
tp939
sS'VAMLSH MFRS  DEALERS (SEE ALSO PAINT MFRS)'
p940
(I52
g2
g3
tp941
sS'INSURANCE COMPANIES-BURIAL'
p942
(I84
g2
g3
tp943
sS"GONTRACTORS' SUPPLIES  EQUIP- MENT"
p944
(I70
g2
g3
tp945
sS'FHORUSEHOLD LOANS'
p946
(I65
g2
g3
tp947
sS'GYMNASIUMS'
p948
(I100
S'GYMNASIUMS'
p949
g9
tp950
sS'RLOORLNG'
p951
(I53
g2
g3
tp952
sS'MEATS-WHOLWALE'
p953
(I93
S'MEATS-WHOLEALE'
p954
g9
tp955
sS'S9L CHARLES'
p956
(I54
g2
g3
tp957
sS'"ENGLNEERS-INDUSTRIAL'
p958
(I68
g2
g3
tp959
sS'ASPHALT SHINGLES  ROOFING'
p960
(I78
g2
g3
tp961
sS'LOOSE LEAF LEDGERS'
p962
(I63
g2
g3
tp963
sS'INVESTMENT TRUSTS'
p964
(I74
g2
g3
tp965
sS'ASPHALT SHINGLES'
p966
(I100
S'ASPHALT SHINGLES'
p967
g9
tp968
sS'ENAMEL MFRS'
p969
(I80
g2
g3
tp970
sS'GHEMLSTS-MIG'
p971
(I75
g2
g3
tp972
sS'CURTALN  DRAPERY LAUNDERING'
p973
(I61
g2
g3
tp974
sS'L"WOODEN BOXES'
p975
(I57
g2
g3
tp976
sS'PUMITNRE INSURANCE'
p977
(I74
g2
g3
tp978
sS'TRANSPORTATION-PRELGHT-RALL  WATER (SEE ALSO STEAMBOAT LINES)'
p979
(I49
g2
g3
tp980
sS'NATUROPATHS'
p981
(I57
g2
g3
tp982
sS'SET'
p983
(I50
g2
g3
tp984
sS"ARTISTS' MATERIALS  SUPPLIES"
p985
(I78
g2
g3
tp986
sS'STENCILS'
p987
(I62
g2
g3
tp988
sS'COMBING APRONS'
p989
(I64
g2
g3
tp990
sS'TLTLE GUARANTEE COMPAAN'
p991
(I65
g2
g3
tp992
sS'SIGN PAINTERS  MFRS'
p993
(I93
S'SIGN PAINTERS AND MFRS'
p994
g9
tp995
sS"CHURCH OF PROVIDENCE 42 HAM' MOND"
p996
(I53
g2
g3
tp997
sS'OSTEOPATHIC PHYSICIANS'
p998
(I100
S'OSTEOPATHIC PHYSICIANS'
p999
g9
tp1000
sS'STEAMBOAT LINES (SEE ALSO TRANSPORTATION LINES)'
p1001
(I60
g2
g3
tp1002
sS'BASKET MFRS'
p1003
(I70
g2
g3
tp1004
sS' GUMS'
p1005
(I53
g2
g3
tp1006
sS'AUTOMOBILE PARKING'
p1007
(I100
S'AUTOMOBILE PARKING'
p1008
g9
tp1009
sS'YARNS-MFRS  WHOL'
p1010
(I77
g2
g3
tp1011
sS'HAT MANUFACTURERS (SEE ALSO CAP MFRS)'
p1012
(I59
g2
g3
tp1013
sS'EMBLEMS'
p1014
(I63
g2
g3
tp1015
sS'JEWELRY-DIAMOND'
p1016
(I62
g2
g3
tp1017
sS'LIVERY  BOARDING STABLES'
p1018
(I62
g2
g3
tp1019
sS'AUTOMOBILE ACCESSORIES  PARTS'
p1020
(I88
S'AUTOMOBILE ACCESSORIES AND PARTS-MFRS'
p1021
g9
tp1022
sS'SEEDS-WHOLESALE'
p1023
(I80
g2
g3
tp1024
sS'POST CAARDS-WHOLESALE  RETAIL'
p1025
(I62
g2
g3
tp1026
sS'WOOD TURNERS'
p1027
(I67
g2
g3
tp1028
sS'J EWELERS-SOLDERERS'
p1029
(I67
g2
g3
tp1030
sS"DLSPENSARLES (SEE HOSPITALS  DISPENSARIES) 'DLSPLAY CABINETS"
p1031
(I53
g2
g3
tp1032
sS'ARTISTS'
p1033
(I100
S'ARTISTS'
p1034
g9
tp1035
sS'ROVLNG CANS'
p1036
(I73
g2
g3
tp1037
sS'NEY F HORR CAMP L76 BENEFIT'
p1038
(I43
g2
g3
tp1039
sS'VENDING MACHINES'
p1040
(I100
S'VENDING MACHINES'
p1041
g9
tp1042
sS'AUTOMOBLLE RADIATOR REPAIRERS'
p1043
(I97
S'AUTOMOBILE RADIATOR REPAIRERS'
p1044
g9
tp1045
sS' CIEANSERS  DYERS'
p1046
(I80
g2
g3
tp1047
sS'BOSSET'
p1048
(I56
g2
g3
tp1049
sS"MACHINLSTS' TOOLS"
p1050
(I67
g2
g3
tp1051
sS'PLLTERS-MFRS'
p1052
(I69
g2
g3
tp1053
sS'ELECTRIC SUPPLIES'
p1054
(I76
g2
g3
tp1055
sS'PREMIUM GOODS'
p1056
(I57
g2
g3
tp1057
sS'MIMEOLGRAPH MACHINES'
p1058
(I61
g2
g3
tp1059
sS'"THEATRLCAL AGENTS (SEE ENTERTAINMENT BUREAUS) TICKET AGENCIES'
p1060
(I45
g2
g3
tp1061
sS'LOOSE LEAF SYSTEMS  DEVICES'
p1062
(I53
g2
g3
tp1063
sS'TEXTLLE ROLLER COVERING'
p1064
(I58
g2
g3
tp1065
sS'SIGN  GARD WRITERS'
p1066
(I87
S'SIGN AND CARD WRITERS'
p1067
g9
tp1068
sS'MOTION PICTURE APPARATUS  SUPPLIES'
p1069
(I64
g2
g3
tp1070
sS'FAMILY LAUNDRY'
p1071
(I52
g2
g3
tp1072
sS'CEMETERY EQUIPMENT'
p1073
(I67
g2
g3
tp1074
sS'INVESTMENT BANKERS'
p1075
(I100
S'INVESTMENT BANKERS'
p1076
g9
tp1077
sS'WOOL DEALERS'
p1078
(I77
g2
g3
tp1079
sS'INTELLIGENOE OFFICES (SEE EMPLOYMENT AGENCIES) INTERIOR DECORATORS'
p1080
(I45
g2
g3
tp1081
sS"I'UMIGATTMG  SPRAYING"
p1082
(I47
g2
g3
tp1083
sS'KNIT GOODS-RETAIL'
p1084
(I80
g2
g3
tp1085
sS'TOYS  GAMES-RETAIL'
p1086
(I92
S'TOYS AND GAMES-RETAIL'
p1087
g9
tp1088
sS'CUT FLOWERS'
p1089
(I62
g2
g3
tp1090
sS' G REAMERLOS (SEE ICE CREAM MFRS) CREDIT UNIONS'
p1091
(I46
g2
g3
tp1092
sS'PICTURE FRAMING'
p1093
(I65
g2
g3
tp1094
sS'SHOE REPAIRERS'
p1095
(I100
S'SHOE REPAIRERS'
p1096
g9
tp1097
sS'PENCIL MFRS'
p1098
(I76
g2
g3
tp1099
sS'STEWART'
p1100
(I59
g2
g3
tp1101
sS'PENCLNG-IRON'
p1102
(I52
g2
g3
tp1103
sS'BOWLING ALLEYS (SEE ALSO BILLIARD  POCKET BIL- LIARD ROOMS)'
p1104
(I42
g2
g3
tp1105
sS'PIBRE SPECIALTIES-MIRS'
p1106
(I56
g2
g3
tp1107
sS'LIVE STOCK DEALERS  GUMMLS- SION'
p1108
(I53
g2
g3
tp1109
sS'OPTICAL GOODS-MFRS'
p1110
(I100
S'OPTICAL GOODS-MFRS'
p1111
g9
tp1112
sS'FOOT SPECIALISTS'
p1113
(I56
g2
g3
tp1114
sS'NUT'
p1115
(I50
g2
g3
tp1116
sS'INSURANCE COMPANIES-ACCIDENT  HEALTH'
p1117
(I69
g2
g3
tp1118
sS'CIVIL ENGINEERS (SEE ALSO ENGINEERS-CIVIL)'
p1119
(I53
g2
g3
tp1120
sS'GAS PURIFYING MATERIALS'
p1121
(I63
g2
g3
tp1122
sS'HIDES, SKINS  TALLOW (SEE TALLOW  GREASE) HOME BUILDERS'
p1123
(I41
g2
g3
tp1124
sS'LACES  EMBROIDERIES-MTRS'
p1125
(I53
g2
g3
tp1126
sS'STEEL-COLD DRAWN STEEL  STEEL PRODUCTS'
p1127
(I66
g2
g3
tp1128
sS'ELECTRIC MOTORS  GENERATORS'
p1129
(I71
g2
g3
tp1130
sS'LAMPS'
p1131
(I55
g2
g3
tp1132
sS'MACHLNE TOOLS'
p1133
(I69
g2
g3
tp1134
sS'COPPER DEALERS'
p1135
(I72
g2
g3
tp1136
sS'J UNK DEALERS'
p1137
(I96
S'JUNK DEALERS'
p1138
g9
tp1139
sS'SCULPTORS'
p1140
(I100
S'SCULPTORS'
p1141
g9
tp1142
sS'BUILDING WRECKERS'
p1143
(I100
S'BUILDING WRECKERS'
p1144
g9
tp1145
sS'BROKERS-COTTON'
p1146
(I74
g2
g3
tp1147
sS'GOLD PLATERS (SEE ALSO PLATING WORKS)'
p1148
(I50
g2
g3
tp1149
sS'SOCIETIES'
p1150
(I74
g2
g3
tp1151
sS'HEATLNG APPARATUS-OLL'
p1152
(I64
g2
g3
tp1153
sS'OIL FURNACES'
p1154
(I60
g2
g3
tp1155
sS'GOLD REFINERS  SMELTERS (SEE ALSO ASSAYERS AND REFINERS)'
p1156
(I55
g2
g3
tp1157
sS'RAILROADS (SEE ALSO TRANSPORTATION LINES)'
p1158
(I66
g2
g3
tp1159
sS'WEYBOSSET RM 7'
p1160
(I52
g2
g3
tp1161
sS'ENG RAVERS-TEXTILE'
p1162
(I97
S'ENGRAVERS-TEXTILE'
p1163
g9
tp1164
sS'STEAM BOILER INSURANCE'
p1165
(I76
g2
g3
tp1166
sS'ELECTRLC MOTOR REPAIRS'
p1167
(I64
g2
g3
tp1168
sS'COFFEE ROASTERS'
p1169
(I100
S'COFFEE ROASTERS'
p1170
g9
tp1171
sS'SHOW CARDS  POSTERS'
p1172
(I60
g2
g3
tp1173
sS'POOL. ROOMS (SEE BILLIARD ROOMS) PORTABLE BUILDINGS-MIRS'
p1174
(I46
g2
g3
tp1175
sS'ARCHITECTS'
p1176
(I100
S'ARCHITECTS'
p1177
g9
tp1178
sS'BELTING MFRS'
p1179
(I75
g2
g3
tp1180
sS'RADIO SETS  SUPPLIES-RETAIL'
p1181
(I60
g2
g3
tp1182
sS'BATTERY MFRS'
p1183
(I75
g2
g3
tp1184
sS'DRUGGISTS-RETAIL'
p1185
(I100
S'DRUGGISTS-RETAIL'
p1186
g9
tp1187
sS"AU'DITORS"
p1188
(I63
g2
g3
tp1189
sS"THEATRES (SEE ALSO AMUSEMENTS-'PLACESB OF; ALSO MOTION PICTURE THEA..- TRES)"
p1190
(I41
g2
g3
tp1191
sS'TIRE DEALERS  REPAIRERS'
p1192
(I94
S'TIRE DEALERS and REPAIRERS'
p1193
g9
tp1194
sS"BUTCHERS' SUPPLIES  TOOLS"
p1195
(I60
g2
g3
tp1196
sS'STATNED GLASS WINDOWS (SEE GLASS DEALERS) STAMP MFRS-STEEL  COPPER'
p1197
(I44
g2
g3
tp1198
sS'INSURANCE COMPANIES'
p1199
(I100
S'INSURANCE COMPANIES'
p1200
g9
tp1201
sS'BROKERS-STOCKS  BONDS'
p1202
(I93
S'BROKERS-STOCKS AND BONDS'
p1203
g9
tp1204
sS'DETECTIVE AG ENCIES'
p1205
(I97
S'DETECTIVE AGENCIES'
p1206
g9
tp1207
sS'NURSERYMEN (SEE ALSO GARDENERS)'
p1208
(I55
g2
g3
tp1209
sS'LOCKSMITHS'
p1210
(I100
S'LOCKSMITHS'
p1211
g9
tp1212
sS'HERBS  ROOTS'
p1213
(I52
g2
g3
tp1214
sS'STAMPING WORK  DIE GUTTERS'
p1215
(I89
S'STAMPING WORKS AND DIE CUTTERS'
p1216
g9
tp1217
sS'DRILLETD WELLS'
p1218
(I50
g2
g3
tp1219
sS'TAXICAB SERVICE'
p1220
(I100
S'TAXICAB SERVICE'
p1221
g9
tp1222
sS'BROKERS-MERCHANDLSE'
p1223
(I95
S'BROKERS-MERCHANDISE'
p1224
g9
tp1225
sS'INSURANCE REPORTING'
p1226
(I72
g2
g3
tp1227
sS"I'ANS-EXHAUST"
p1228
(I50
g2
g3
tp1229
sS'EATING HAUSA (SEE RESTAURANTS) ECCLMLASTICAL GOODS (SEE CHURCH GOODS) EGG DEALERS-WHOLESALE'
p1230
(I44
g2
g3
tp1231
sS'AUTOMOBILE TOP MFRS'
p1232
(I74
g2
g3
tp1233
sS'AUTOMOBILE DEALERS-PASSENGER CARS'
p1234
(I85
g2
g3
tp1235
sS'HUMIDIFIERS'
p1236
(I63
g2
g3
tp1237
sS'FURNITURE DEALERS-RETALL'
p1238
(I96
S'FURNITURE DEALERS-RETAIL'
p1239
g9
tp1240
sS'STRUCTURAL STEEL  IRON'
p1241
(I50
g2
g3
tp1242
sS'OMAMENTAL IRON'
p1243
(I62
g2
g3
tp1244
sS'PATENT MEDICINES ( SEE MEDICINE MFRS) FATENT SOLICITORS'
p1245
(I45
g2
g3
tp1246
sS'BROMZE TABLETS'
p1247
(I59
g2
g3
tp1248
sS'LUBRICATING DEVICES  SYSTEMS'
p1249
(I61
g2
g3
tp1250
sS'JREWELRY'
p1251
(I75
g2
g3
tp1252
sS'DEGREE'
p1253
(I53
g2
g3
tp1254
sS'OIL BURNERS  OIL BURNING EQUIPMENT'
p1255
(I62
g2
g3
tp1256
sS'WUOD ENGRAVERS (SEE ALSO ENGRAVERS)'
p1257
(I50
g2
g3
tp1258
sS'CLAIRVOYANTS'
p1259
(I56
g2
g3
tp1260
sS'REED MACHINERY MFRS'
p1261
(I85
g2
g3
tp1262
sS'PLATERS (SEE ALSO NICKEL PLATERS, SILVER PLATERS C)'
p1263
(I46
g2
g3
tp1264
sS'CONCRETE GONSTRUCTION-CON- TRACTORS'
p1265
(I56
g2
g3
tp1266
sS'ARTIFICIAL FLOWERS  FRUIT MFRS'
p1267
(I54
g2
g3
tp1268
sS'NAIL MANUFACTURERS'
p1269
(I86
S'CHAIN MANUFACTURERS'
p1270
g9
tp1271
sS'HEATLNG APPARATUS'
p1272
(I65
g2
g3
tp1273
sS'LOAN B; TRUST COMPANIES (SEE BUILDING  LOAN ASMCIA- TIONS; ALSO BROKERS-LOAN)  LOANS (SEE ALSO BROKERS-LOAN)'
p1274
(I37
g2
g3
tp1275
sS'POSTAGE STAMP COLLECTORS (SEE NUMISMATISTS) POSTAGE STAMPS  PHILATELIC SUPPLIES'
p1276
(I49
g2
g3
tp1277
sS'BOLT, NUT  WASHER MFRS'
p1278
(I56
g2
g3
tp1279
sS"CLEANERS'  DYERS' SUPPLIES"
p1280
(I68
g2
g3
tp1281
sS'PHOTOGRAPHLC APPARATUS  SUP- LIES'
p1282
(I62
g2
g3
tp1283
sS'ENGINEERS-GHEMICAL'
p1284
(I79
g2
g3
tp1285
sS'SCALE REPAIRING  TESTING'
p1286
(I59
g2
g3
tp1287
sS'PAPER STOCK (SEE ALSO JUNK DEALERS)'
p1288
(I52
g2
g3
tp1289
sS'GAS PRODUCERS'
p1290
(I80
g2
g3
tp1291
sS'PIPE FITTINGS, HANGERS  VALVES'
p1292
(I50
g2
g3
tp1293
sS'WALL PAPER DEALERS-RETALL'
p1294
(I76
g2
g3
tp1295
sS'TOBACCO-WHOLESALE'
p1296
(I100
S'TOBACCO-WHOLESALE'
p1297
g9
tp1298
sS'WATER WORKS SYSTEMS'
p1299
(I61
g2
g3
tp1300
sS'LONG DISTANCE MOVING'
p1301
(I59
g2
g3
tp1302
sS'SHOES-RETAIL'
p1303
(I77
g2
g3
tp1304
sS'ROOILNG-TAR  GRAVEL'
p1305
(I51
g2
g3
tp1306
sS'TOILET PREPARATIONS-WHOL'
p1307
(I60
g2
g3
tp1308
sS'EXCAVATLNG CONTRACTORS'
p1309
(I73
g2
g3
tp1310
sS'SASH. WLNDAWS, DOORS  TRIM- DEALERS (SEE ALSO DOORS, SASH  BLINDS)'
p1311
(I42
g2
g3
tp1312
sS'MASSAGE'
p1313
(I100
S'MASSAGE'
p1314
g9
tp1315
sS'REFINERS  SMELTERS (SEE ALSO SMELTERS  REFLNERS)'
p1316
(I52
g2
g3
tp1317
sS'BROOM MFRS'
p1318
(I74
g2
g3
tp1319
sS'AUTOMOBILE WRECKERS'
p1320
(I81
g2
g3
tp1321
sS'INFORMATION BUREAU'
p1322
(I97
S'INFORMATION BUREAUS'
p1323
g9
tp1324
sS'IRON B; STEEL WORK'
p1325
(I86
S'IRON and STEEL WORK'
p1326
g9
tp1327
sS'CIGARS  TOBACCO-RETALL'
p1328
(I89
S'CIGARS and TOBACCO-RETAIL'
p1329
g9
tp1330
sS'RANGE OLL'
p1331
(I59
g2
g3
tp1332
sS'INDUSTRLAL ENGINEERS'
p1333
(I67
g2
g3
tp1334
sS'I..LFE INSURANCE'
p1335
(I72
g2
g3
tp1336
sS'MOTHRCYCLE DEALERS'
p1337
(I94
S'MOTORCYCLE DEALERS'
p1338
g9
tp1339
sS'NUTS, BOLTS, C'
p1340
(I48
g2
g3
tp1341
sS'SOCIAL COR CHARLES'
p1342
(I59
g2
g3
tp1343
sS'BUILDING MAINTENANCE SPECIAL- TIES'
p1344
(I74
g2
g3
tp1345
sS'GLASS DEALERS-STAINED  LEADED'
p1346
(I75
g2
g3
tp1347
sS'TRUSTEOS'
p1348
(I63
g2
g3
tp1349
sS'SNOW'
p1350
(I40
g2
g3
tp1351
sS'AUTOMOBLLE SERVICE STATIONS'
p1352
(I70
g2
g3
tp1353
sS'LKCHMMLUM PLATARS'
p1354
(I50
g2
g3
tp1355
sS'RWEL  FURNACE OILS'
p1356
(I61
g2
g3
tp1357
sS'PILE DRIVERS'
p1358
(I60
g2
g3
tp1359
sS'STATIONARY BOILERS'
p1360
(I58
g2
g3
tp1361
sS"CLOTHING DEALERS-MEN'S  BOYS' -RETALL"
p1362
(I69
g2
g3
tp1363
sS'OVERALL MIRS'
p1364
(I64
g2
g3
tp1365
sS"C ARPENTE'RS-JOB (SEE ALSO CONTRACTORS-BUILDING -GENERAL)"
p1366
(I66
g2
g3
tp1367
sS'EXPRESSW-BOSTON  PROVI- DENOE'
p1368
(I56
g2
g3
tp1369
sS'PAINTERS  DECORATORS'
p1370
(I93
S'PAINTERS and DECORATORS'
p1371
g9
tp1372
sS"L'RAW HIDE"
p1373
(I57
g2
g3
tp1374
sS'HOUSEHOLD APPLIANCESR-DEALERS'
p1375
(I98
S'HOUSEHOLD APPLIANCES-DEALERS'
p1376
g9
tp1377
sS'WATCH  JEWELRY REPAIRERS (SEE ALSO JEWELRY. WATCHES C)'
p1378
(I59
g2
g3
tp1379
sS'HAMMERS-HIDE PACED'
p1380
(I53
g2
g3
tp1381
sS'OYSTER DEALERS'
p1382
(I71
g2
g3
tp1383
sS'DOWELS'
p1384
(I67
g2
g3
tp1385
sS'BOOKLET PRINTERS'
p1386
(I74
g2
g3
tp1387
sS'BOOTS  SHOES'
p1388
(I58
g2
g3
tp1389
sS'RUBBER BOOTS  SHOES'
p1390
(I67
g2
g3
tp1391
sS'CLOCK MATERIALS'
p1392
(I61
g2
g3
tp1393
sS'"UNDERTAKERS (SEE ALSO FUNERAL DIRECTORS)'
p1394
(I59
g2
g3
tp1395
sS'BAKERS-RETALL'
p1396
(I92
S'BAKERS-RETAIL'
p1397
g9
tp1398
sS'REAL ESTATE OWNERS  DEALERS'
p1399
(I95
S'REAL ESTATE OWNERS AND DEALERS'
p1400
g9
tp1401
sS'MUSICAL INSTRUMENT DEALERS (SEE ALSO PIANO DEALERS)'
p1402
(I68
g2
g3
tp1403
sS'LIGHT, HEAT  POWER COMPANIES'
p1404
(I60
g2
g3
tp1405
sS"DRESS MANUFACTURERS (SEE LADIES' AND CHILDREN'S FUR- NISHING GOODS) DRESS PLALTLNG  TUCKING"
p1406
(I41
g2
g3
tp1407
sS'DESIGNERS'
p1408
(I100
S'DESIGNERS'
p1409
g9
tp1410
sS'SCREW MFRS'
p1411
(I100
g143
g9
tp1412
sS'AUTOMOBLLE TRIMMERS  TRIM'
p1413
(I83
g2
g3
tp1414
sS'TRUCKING  TEAMING (SEE ALSO EXPRESSING  MOVING; ALSO TRUCKMEN)'
p1415
(I44
g2
g3
tp1416
sS'TURNERS-WOOD (SEE WOOD TURNERS) TWINE DEALERS (SEE ALSO PAPER DEALERS)'
p1417
(I44
g2
g3
tp1418
sS'OIL REFINERS'
p1419
(I67
g2
g3
tp1420
sS'WATCHW, CLOCKS  JEWELRY- WHOLESALE'
p1421
(I69
g2
g3
tp1422
sS'BROKERS-REAL ESTATE'
p1423
(I73
g2
g3
tp1424
sS'ASBESTOS SLDEWALL SHINGLES'
p1425
(I62
g2
g3
tp1426
sS'STEREOTYPERS  ELECTROTYPERS'
p1427
(I52
g2
g3
tp1428
sS'OXYGEN PRODUCERS'
p1429
(I61
g2
g3
tp1430
sS'PHOTOSTATLC PRINTS'
p1431
(I65
g2
g3
tp1432
sS'HANI PINE TIMBER'
p1433
(I55
g2
g3
tp1434
sS'PAWNBROKERS'
p1435
(I100
S'PAWNBROKERS'
p1436
g9
tp1437
sS'BUSINESS COLLEGES'
p1438
(I71
g2
g3
tp1439
sS"UNDERTAKERS' SUPPLIES"
p1440
(I75
g2
g3
tp1441
sS'WIRE MANUFACTURERS'
p1442
(I87
S'TINWARE MANUFACTURERS'
p1443
g9
tp1444
sS'POULTRY SUPPLIES'
p1445
(I69
g2
g3
tp1446
sS'ENGINEERS-C(WNSULTLNG'
p1447
(I88
S'ENGINEERS-CONSULTING'
p1448
g9
tp1449
sS'TUBE  TUBING MIRS-METAL'
p1450
(I55
g2
g3
tp1451
sS'WMORTGAGES'
p1452
(I75
g2
g3
tp1453
sS'IMPOMTARS (SEE ALSO EXPORTERS)'
p1454
(I50
g2
g3
tp1455
sS'FEATHER DEALERS'
p1456
(I75
g2
g3
tp1457
sS'MARKET GARDENERS'
p1458
(I69
g2
g3
tp1459
sS'BUTTON MANUFACTURERS'
p1460
(I86
S'BOX MANUFACTURERS'
p1461
g9
tp1462
sS'DMS SUITS RENTED'
p1463
(I55
g2
g3
tp1464
sS"WATCH CRYSTAL MFRS (SEE ALSO JEWELERS' SUPPLIES)"
p1465
(I55
g2
g3
tp1466
sS'PLASTERS'
p1467
(I93
S'PLATERS'
p1468
g9
tp1469
sS'REFINERS-GOLD, SILVER  PLATINUM'
p1470
(I51
g2
g3
tp1471
sS'VACUUM GLEANERS-REPALRERS'
p1472
(I59
g2
g3
tp1473
sS'ENGLNEERS-CONSTRUCTLON'
p1474
(I76
g2
g3
tp1475
sS"DRALN  SEWER PIPE (SEE SEWER  DRAIN PIPE) 'DRALNAGE  SEWER WORK"
p1476
(I43
g2
g3
tp1477
sS'DYERS  BLEACHERS'
p1478
(I63
g2
g3
tp1479
sS'BATHS'
p1480
(I67
g2
g3
tp1481
sS'ROAD MATERIAL'
p1482
(I65
g2
g3
tp1483
sS'DECORATORS-INTERLOR'
p1484
(I65
g2
g3
tp1485
sS'BROKERS-INVESTMENT'
p1486
(I65
g2
g3
tp1487
sS"L'ORNAMENTAL IRON WORK-MANU- FACTURERS  ERECTORS"
p1488
(I58
g2
g3
tp1489
sS'ELECTRICIANS (SEE ELECTRICAL CONTRACTORS) ELLECTRO PLATERS (SEE ALSO PLATERS)'
p1490
(I46
g2
g3
tp1491
sS'47S CRANSTON'
p1492
(I50
g2
g3
tp1493
sS'PAPER DEALERS-PRINT  WRAP- PING'
p1494
(I73
g2
g3
tp1495
sS'RUBBER GOODS-WHOLESALE'
p1496
(I74
g2
g3
tp1497
sS'TRACTORS  ENGINES'
p1498
(I63
g2
g3
tp1499
sS'PIANO DEALERS'
p1500
(I100
S'PIANO DEALERS'
p1501
g9
tp1502
sS'MARBLE  GRANITE WORKERS (SEE ALSO MONUMENTAL WORK)'
p1503
(I46
g2
g3
tp1504
sS'OONTRACTORS-PAVING (SEE CONTRACTORS-ROAD) CONTRACTORS-PLASTERING'
p1505
(I57
g2
g3
tp1506
sS'MILK DEALERS'
p1507
(I100
S'MILK DEALERS'
p1508
g9
tp1509
sS'TRANSPORTATION-PRELGHT- AUTOMOBILE'
p1510
(I63
g2
g3
tp1511
sS"PLAINTERS' SUPPLIES"
p1512
(I76
g2
g3
tp1513
sS'ELECTROTYPERS  STEREOTYPERS'
p1514
(I57
g2
g3
tp1515
sS'STATUARY'
p1516
(I71
g2
g3
tp1517
sS'MODEL MAKERS (SEE PATTERN  MODEL MAKERS) MONEY BROKERS'
p1518
(I46
g2
g3
tp1519
sS'SUBSCRIPTION AGENCIES'
p1520
(I70
g2
g3
tp1521
sS'BUS  COACH LINES-MOTOR'
p1522
(I78
g2
g3
tp1523
sS'PUMAOES-INDUSTRIAL MFRS'
p1524
(I57
g2
g3
tp1525
sS'RUBBER STAMPS'
p1526
(I72
g2
g3
tp1527
sS'ESTER GUMS'
p1528
(I60
g2
g3
tp1529
sS'MERCERIZERS'
p1530
(I67
g2
g3
tp1531
sS'LHRADLATOR COVERS'
p1532
(I58
g2
g3
tp1533
sS'LIGHTING EQUIPMENT'
p1534
(I67
g2
g3
tp1535
sS'MARKETS (SEE ALSO MEATS-RETAIL)'
p1536
(I63
g2
g3
tp1537
sS'PRODUCE DEALERS-RETALL'
p1538
(I95
S'PRODUCE DEALERS-RETAIL'
p1539
g9
tp1540
sS'PHOTOGRAPHERS'
p1541
(I100
S'PHOTOGRAPHERS'
p1542
g9
tp1543
sS'(SEE ALSO CONTRACTORS-FLOOR SURFACING)'
p1544
(I83
g2
g3
tp1545
sS'RECRUITING OFFICES'
p1546
(I63
g2
g3
tp1547
sS'RADIO BROADCASTING STATIONS'
p1548
(I100
S'RADIO BROADCASTING STATIONS'
p1549
g9
tp1550
sS'PILE  RASP MFRS'
p1551
(I67
g2
g3
tp1552
sS'FINANCE COMPANIES'
p1553
(I100
S'FINANCE COMPANIES'
p1554
g9
tp1555
sS"JEWELERS' SUPPLLOS-ENAMEL MIRS-J EWELERS"
p1556
(I62
g2
g3
tp1557
sS'CIGARS  TOBACOO-WHOLWALE'
p1558
(I69
g2
g3
tp1559
sS'FRUIT DEALERS-WHOLESALE  BROKERS'
p1560
(I96
g583
g9
tp1561
sS'BMKERS'
p1562
(I77
g2
g3
tp1563
sS"IFF(A'RROOERY SUPPLIES-WHOLWALE"
p1564
(I57
g2
g3
tp1565
sS'HAT  CAP DEALERS-RETAIL'
p1566
(I81
g2
g3
tp1567
sS'ESTATE AGENTS'
p1568
(I77
g2
g3
tp1569
sS'LAPIDARIES'
p1570
(I74
g2
g3
tp1571
sS'STORAGE BATTERIES (SEE BATTERY SERVICE STATIONS) STORE FIXTURES  FITTINGS'
p1572
(I48
g2
g3
tp1573
sS'BURIAL PARKS'
p1574
(I67
g2
g3
tp1575
sS'DRAPERLES (SEE ALSO CURTAINS  FIXTURES)'
p1576
(I52
g2
g3
tp1577
sS'WALL BOARD'
p1578
(I52
g2
g3
tp1579
sS'GENERAL CONTRACTORS'
p1580
(I83
g2
g3
tp1581
sS"BOILE'R  RADIATOR DEALERS- STEAM  WATER"
p1582
(I56
g2
g3
tp1583
sS'CHESTNUT'
p1584
(I56
g2
g3
tp1585
sS'MINING COMPANIES  OPERATORS'
p1586
(I59
g2
g3
tp1587
sS'AUTOMOBUE STORAGE'
p1588
(I74
g2
g3
tp1589
sS'OLL BURNING EQUIPMENT'
p1590
(I67
g2
g3
tp1591
sS'YEAST MFRS'
p1592
(I73
g2
g3
tp1593
sS'PLASTERERS  COLORERS'
p1594
(I60
g2
g3
tp1595
sS"LACQNER MANUFACTURERS (SEE PAINT  COLOR MFRS) LADLES' TAILORS (SEE ALSO DRESSMAKERS)"
p1596
(I42
g2
g3
tp1597
sS'PAPERHANGERS (SEE ALSO PAINTERS  DECORATORS)'
p1598
(I60
g2
g3
tp1599
sS"CLOTHING DEALERS-MEN'S  BOYS' -WHOL  J OBBERS"
p1600
(I53
g2
g3
tp1601
sS'EXCHANGW-MERCANTLLE (SEE ASSOCIATIONS-BUSINESS) EXPORTERS (SEE IMPORTERS) EXPRESS COMPANIES'
p1602
(I45
g2
g3
tp1603
sS"DRESSES (SEE CLOTHING DEALERS-WOMEN'S AND MISSES') DRESSMAKERS"
p1604
(I52
g2
g3
tp1605
sS'PAINTERS-AUTOMOBILE  CARRIAGE'
p1606
(I68
g2
g3
tp1607
sS'BRASS FINISHERS'
p1608
(I65
g2
g3
tp1609
sS'BUILDMGS-OFFLCE  PUBLIC'
p1610
(I84
g2
g3
tp1611
sS'CASTLNGS (SEE ALSO FOUNDERS)'
p1612
(I53
g2
g3
tp1613
sS'FURNITURE DEALERS-WHOLESALE'
p1614
(I86
S'FRUIT DEALERS-WHOLESALE '
p1615
g9
tp1616
sS'SUG AR REILNERS'
p1617
(I61
g2
g3
tp1618
sS'BUTTER, CHEESE  EGGS-WHOLE- SALE'
p1619
(I60
g2
g3
tp1620
sS'WINDOW GLASS'
p1621
(I74
g2
g3
tp1622
sS'CARPETS, RUGS  FLOOR COVERINGS -RETAIL'
p1623
(I95
S'CARPETS, RUGS AND FLOOR COVERINGS-RETAIL'
p1624
g9
tp1625
sS'"STEAM  HOT WATER HEATING APPARATUS (SEE ALSO HEATING APPARATUS)'
p1626
(I54
g2
g3
tp1627
sS'SPORTING GOODS-RETAIL'
p1628
(I100
S'SPORTING GOODS-RETAIL'
p1629
g9
tp1630
sS'"FROVING CAN SPRINGS'
p1631
(I60
g2
g3
tp1632
sS'DEXTRINES'
p1633
(I67
g2
g3
tp1634
sS'VENTLLATORS FOR SCHOOLS'
p1635
(I52
g2
g3
tp1636
sS'WIRE GOODS MFRS'
p1637
(I100
S'WIRE GOODS MFRS'
p1638
g9
tp1639
sS'EXTRACT  ESSMLCE MFRS (SEE FLAVORING EXTRACTS-MFRS) FABRICS'
p1640
(I44
g2
g3
tp1641
sS'MCLLVAINE BALANCED HEAT'
p1642
(I54
g2
g3
tp1643
sS"MANLCUM (SEE BEAUTY SHOPS) MANUFACTURERS' AGENTS"
p1644
(I60
g2
g3
tp1645
sS'STOVE REPAIRS'
p1646
(I81
g2
g3
tp1647
sS'PIPE-STEAM, GAS  WATER'
p1648
(I49
g2
g3
tp1649
sS'FRUIT DEALERS-RETALL'
p1650
(I95
S'FRUIT DEALERS-RETAIL'
p1651
g9
tp1652
sS'OONE MANUFACTURERS (SEE ICE CREAM CONE MFRS) GONIECTIONERS-MIG'
p1653
(I51
g2
g3
tp1654
sS'RUBBER TILE FLOORS'
p1655
(I60
g2
g3
tp1656
sS'M.OTOR TRUCK INSURANCE'
p1657
(I58
g2
g3
tp1658
sS'PHYSICIANY  SURGEONS, EX- CHANGE'
p1659
(I71
g2
g3
tp1660
sS'DRY GOODS-RETAU'
p1661
(I90
S'DRY GOODS-RETAIL'
p1662
g9
tp1663
sS"PLNMBERS' SUPPLIES"
p1664
(I78
g2
g3
tp1665
sS'DEPARTMENT STORES-S CENTS TO'
p1666
(I78
g2
g3
tp1667
sS"DECORATORS-I'LAG  BUNTING"
p1668
(I67
g2
g3
tp1669
sS'KILN DRIED LUMBER'
p1670
(I56
g2
g3
tp1671
sS'CONTRACTORS-HEATLNG'
p1672
(I95
S'CONTRACTORS-HEATING'
p1673
g9
tp1674
sS'BMKERS-NOTE'
p1675
(I67
g2
g3
tp1676
sS'O, INNS\nDRO-P PONG'
p1677
(I46
g2
g3
tp1678
sS'PNRNLTURE STORAGE'
p1679
(I59
g2
g3
tp1680
sS'BRLCK MFRS  DEALERS'
p1681
(I67
g2
g3
tp1682
sS'DENTISTS'
p1683
(I100
S'DENTISTS'
p1684
g9
tp1685
sS'ASPHALT ROOTERS'
p1686
(I73
g2
g3
tp1687
sS'PULLEYS'
p1688
(I59
g2
g3
tp1689
sS'WOOD GASES  DISPLAYS'
p1690
(I48
g2
g3
tp1691
sS'BRALDLNG MACHINE MFRS'
p1692
(I69
g2
g3
tp1693
sS'GOLD BUYERS'
p1694
(I100
S'GOLD BUYERS'
p1695
g9
tp1696
sS'MAP PUBLISHERS'
p1697
(I83
g2
g3
tp1698
sS"G'IHEMLSTS-ANALYTLCAL"
p1699
(I49
g2
g3
tp1700
sS'METAL GOODS-MFRS'
p1701
(I94
S'METAL GOODS MFRS'
p1702
g9
tp1703
sS'WLNDOWS'
p1704
(I57
g2
g3
tp1705
sS'PROVISLON DEALERS (SEE MEATS-RETAIL) PUBLIC ACCOUNTANTS'
p1706
(I49
g2
g3
tp1707
sS'AMBULANCE SERVICE'
p1708
(I71
g2
g3
tp1709
sS'TELEPHONE COMPANY'
p1710
(I82
g2
g3
tp1711
sS'STEEL BALLS'
p1712
(I64
g2
g3
tp1713
sS'BARRELED SUNLIGHT'
p1714
(I52
g2
g3
tp1715
sS'CHARITABLE INSTITUTIONS'
p1716
(I60
g2
g3
tp1717
sS'INSURANCE COMPANLW-LLABLUTY'
p1718
(I70
g2
g3
tp1719
sS'LIME'
p1720
(I50
g2
g3
tp1721
sS'SEEDS-RETAIL'
p1722
(I78
g2
g3
tp1723
sS'TENTERLNG  DRYING MACHINES'
p1724
(I71
g2
g3
tp1725
sS'CHEMISTS-GONSULTING'
p1726
(I69
g2
g3
tp1727
sS"PHYSICIANS'  HOSPITAL SUPPLIES -DEALERS"
p1728
(I63
g2
g3
tp1729
sS'BUILDERS (SEE ALSO CARPENTERS)'
p1730
(I52
g2
g3
tp1731
sS'BRUSH MANUFACTURERS'
p1732
(I84
g2
g3
tp1733
sS'BRLCK, LIME  CEMENT'
p1734
(I50
g2
g3
tp1735
sS'SCREW MACHINE PRODUCTS'
p1736
(I100
S'SCREW MACHINE PRODUCTS'
p1737
g9
tp1738
sS'GAS APPLIANCES'
p1739
(I83
g2
g3
tp1740
sS'CLERGYMEN'
p1741
(I100
S'CLERGYMEN'
p1742
g9
tp1743
sS'WEATHER STRIP MFRS'
p1744
(I65
g2
g3
tp1745
sS'POUNDRY SAND'
p1746
(I57
g2
g3
tp1747
sS'RUG CLEANING  RENOVATING " 2'
p1748
(I52
g2
g3
tp1749
sS'PRESCRLPTION WARE'
p1750
(I55
g2
g3
tp1751
sS'PLORISTS-WHOLWALE (SEE ALSO NURSERYMEN)'
p1752
(I60
g2
g3
tp1753
sS'CORDAGE  TWINE-MFRS'
p1754
(I63
g2
g3
tp1755
sS'WEAVERS  RE-WEAVERS-GAR- MEAT'
p1756
(I50
g2
g3
tp1757
sS'HARNESS DEALERS  REPAIRERS'
p1758
(I81
g2
g3
tp1759
sS'MEATS-RETALL (SEE ALSO GROCERS)'
p1760
(I55
g2
g3
tp1761
sS'BRICK, CEMENT, LIME, PLASTER, PIPE C'
p1762
(I46
g2
g3
tp1763
sS'JEWELERS-SPECIAL ORDER WORK'
p1764
(I60
g2
g3
tp1765
sS'AUTOMOBILE FILLING STATIONS'
p1766
(I77
g2
g3
tp1767
sS'CHAIR MFRS (SEE FURNITURE MFRS) CHAIR RENTING'
p1768
(I53
g2
g3
tp1769
sS'INDIA RUBBER GOODS'
p1770
(I55
g2
g3
tp1771
sS'IRON RAILINGS, BALCONIES, FENCES C'
p1772
(I50
g2
g3
tp1773
sS"BOTTLERS' SUPPLIES  MACHINERY"
p1774
(I60
g2
g3
tp1775
sS'L"ARTESIAN  DRIVEN WELLS'
p1776
(I56
g2
g3
tp1777
sS'LH(ISH HOISTS'
p1778
(I56
g2
g3
tp1779
sS'PERFUME MFRS (SEE ALSO TOILET ARTICLES)'
p1780
(I51
g2
g3
tp1781
sS'ELECTROLYTIC TREATMENT'
p1782
(I100
S'ELECTROLYTIC TREATMENT'
p1783
g9
tp1784
sS"CARPETS  RUGS (SEE HOUSE FURNISHING GOODS; ALSO RUGS  MATS) CARRIAGE  WAGON MFRS (SEE WHEELWRIGHTS) 'CARVERS (SEE WOOD CARVERS) MASS HARDENING"
p1785
(I35
g2
g3
tp1786
sS'SHOE SHLNERS'
p1787
(I92
S'SHOE SHINERS'
p1788
g9
tp1789
sS'BADGES, CHECKS  MEDALS'
p1790
(I52
g2
g3
tp1791
sS'INSULATLON-A-ALFOL'
p1792
(I47
g2
g3
tp1793
sS'DRESS CLOTHES RENTING'
p1794
(I60
g2
g3
tp1795
sS'EMPLOYMENT AGENCIES'
p1796
(I100
S'EMPLOYMENT AGENCIES'
p1797
g9
tp1798
sS'BOX MIRS-WOODEN'
p1799
(I50
g2
g3
tp1800
sS'DIE MAKERS'
p1801
(I100
S'DIE MAKERS'
p1802
g9
tp1803
sS'BNGLNEERS-MANAGEMENT'
p1804
(I90
S'ENGINEERS-MANAGEMENT'
p1805
g9
tp1806
sS'LETTER SHOPS'
p1807
(I100
S'LETTER SHOPS'
p1808
g9
tp1809
sS'COMB MFRS'
p1810
(I67
g2
g3
tp1811
sS'BAN MIRS-CANVAS, BURLAP  COTTON'
p1812
(I48
g2
g3
tp1813
sS'ROAD CONSTRUCTION'
p1814
(I65
g2
g3
tp1815
sS"I'ARM LANDS"
p1816
(I59
g2
g3
tp1817
sS'CONTRACTORS-MARLNE'
p1818
(I86
g801
g9
tp1819
sS'PACKING  SHIPPING FURNITURE'
p1820
(I59
g2
g3
tp1821
sS'CRUSHED STONE'
p1822
(I56
g2
g3
tp1823
sS'RADIO SETS  SUPPLIES-WHOLE- SALE'
p1824
(I63
g2
g3
tp1825
sS'PLATERY SUPPLIES  EQUIPMENT'
p1826
(I78
g2
g3
tp1827
sS'UPHOLSTERLNG FABRICS  MATE- RIALS'
p1828
(I60
g2
g3
tp1829
sS'CHEMICAL MANUFACTURERS'
p1830
(I94
S'CHEMICALS eMANUFAC TURERS'
p1831
g9
tp1832
sS'MACHLNERY CASTINGS'
p1833
(I64
g2
g3
tp1834
sS'ENNRAVEM-CARD'
p1835
(I53
g2
g3
tp1836
sS'STEEL SHEETS-STEEL  STEEL PRODUCTS'
p1837
(I64
g2
g3
tp1838
sS'TRUCK TIRES'
p1839
(I100
S'TRUCK TIRES'
p1840
g9
tp1841
sS'PURNAOES  RANGES (SEE ALSO STOVES, C)'
p1842
(I48
g2
g3
tp1843
sS'DRAWING MATERIALS'
p1844
(I69
g2
g3
tp1845
sS'TINWARE MFRS'
p1846
(I73
g2
g3
tp1847
sS'OYSTER  SEA FOOD DEALERS- WHOLESALE'
p1848
(I71
g2
g3
tp1849
sS'LAND COMPANIES (SEE ALSO REAL ESTATE)'
p1850
(I58
g2
g3
tp1851
sS'TIME RECORDERS-DEALERS'
p1852
(I67
g2
g3
tp1853
sS'PRECLOUS STONES'
p1854
(I65
g2
g3
tp1855
sS'SCIENTIFIC INSTRUMENT MFRS'
p1856
(I65
g2
g3
tp1857
sS'ASSAYERS  CHEMISTS'
p1858
(I53
g2
g3
tp1859
sS'SEWER  DRAIN PIPE'
p1860
(I58
g2
g3
tp1861
sS'SHUTTLE MFRS'
p1862
(I75
g2
g3
tp1863
sS'WOOLEN GOODS MANUFACTURERS (SEE TEXTILE MFRS) WORKMEWS COMPENSATION IN'
p1864
(I47
g2
g3
tp1865
sS'VANLTS-SAIE DEPOSIT'
p1866
(I58
g2
g3
tp1867
sS'VULCANIZERS'
p1868
(I60
g2
g3
tp1869
sS'WALL PAPER'
p1870
(I74
g2
g3
tp1871
sS'GRINDING  SHARPENING'
p1872
(I93
S'GRINDING AND SHARPENING'
p1873
g9
tp1874
sS'CLEANERS-GARMENTS-, CURTAINS  DRAPERIES'
p1875
(I62
g2
g3
tp1876
sS"TEXTILE MTRS' SUPPLIES.  EQUIP- MENT-MIRS"
p1877
(I63
g2
g3
tp1878
sS"TALLORS' TRIMMINGS"
p1879
(I67
g2
g3
tp1880
sS'MILL BASKETS-RAW HIDE'
p1881
(I53
g2
g3
tp1882
sS'WATERPROOFING CONTRACTORS'
p1883
(I64
g2
g3
tp1884
sS"LW'BULLDING  LOAN ASSOCIATIONS"
p1885
(I51
g2
g3
tp1886
sS'ROSARY (PORTUGUESE) 2L TRA- VERSE'
p1887
(I46
g2
g3
tp1888
sS'ICE CREAM GONE MFRS'
p1889
(I67
g2
g3
tp1890
sS'ENGINES-GAS  GASOLINE'
p1891
(I62
g2
g3
tp1892
sS'J EWELRY CHASERS'
p1893
(I73
g2
g3
tp1894
sS'GLASS BREAKAGE INSURANCE'
p1895
(I59
g2
g3
tp1896
sS'TEXTILE MIRS-BOOK CLOTHS'
p1897
(I61
g2
g3
tp1898
sS'ENVELOPE MANUFACTURERS'
p1899
(I83
g2
g3
tp1900
sS'ELEVATOR ENCLOSURES  CABS'
p1901
(I49
g2
g3
tp1902
sS'LOANS-MORTGAGE'
p1903
(I100
S'LOANS-MORTGAGE'
p1904
g9
tp1905
sS'REFRIGERATOR MFRS'
p1906
(I62
g2
g3
tp1907
sS'BUG EXTERMINATORS'
p1908
(I57
g2
g3
tp1909
sS'HOUSE FURNISHING GOODS- WHOLESALE'
p1910
(I100
S'HOUSE FURNISHING GOODS- WHOLESALE'
p1911
g9
tp1912
sS'POULTRY  GAME BREEDERS'
p1913
(I58
g2
g3
tp1914
sS'PANCY GOODS'
p1915
(I61
g2
g3
tp1916
sS'RUBBER  SEAL STAMPS-MTRS  DEALERS'
p1917
(I68
g2
g3
tp1918
sS'SAUSAGE MFRS'
p1919
(I100
S'SAUSAGE MFRS'
p1920
g9
tp1921
sS'PAPER PRODUCTS MFRS'
p1922
(I100
S'PAPER PRODUCTS MFRS'
p1923
g9
tp1924
sS'BAIT DEALERS'
p1925
(I100
S'BAIT DEALERS'
p1926
g9
tp1927
sS'PUT DEALERS  FURRIERS'
p1928
(I84
g2
g3
tp1929
sS'COAL DEALERS-WELSH ANTHRA- CITE'
p1930
(I68
g2
g3
tp1931
sS'FISH DEALERS-RETAIL'
p1932
(I100
S'FISH DEALERS-RETAIL'
p1933
g9
tp1934
sS'LUMBER TREATED'
p1935
(I67
g2
g3
tp1936
sS'COTTON GOODS CONVERTERS (SEE ALSO BLEACHERS  FINISHERS -FABRICS)'
p1937
(I43
g2
g3
tp1938
sS'BADGES, EMBLEM  CHARMS'
p1939
(I50
g2
g3
tp1940
sS'TOWEL, APRON  GOAT SUPPLY'
p1941
(I49
g2
g3
tp1942
sS'WOOD AV'
p1943
(I45
g2
g3
tp1944
sS"C'OMMERCIAL PRINTERS"
p1945
(I62
g2
g3
tp1946
sS'CABINET MAKERS'
p1947
(I100
S'CABINET MAKERS'
p1948
g9
tp1949
sS'EXPRESSING  MOVING (SEE ALSO TRUCKING  TEAMING)'
p1950
(I53
g2
g3
tp1951
sS'ENGINEERS  CONTRACTORS'
p1952
(I68
g2
g3
tp1953
sS'TAG MANUFACTURERS'
p1954
(I94
S'BAG MANUFACTURERS'
p1955
g9
tp1956
sS'ENGRAVERS-PHOTO'
p1957
(I100
S'ENGRAVERS-PHOTO'
p1958
g9
tp1959
sS'AV\n\n(FIELD'
p1960
(I43
g2
g3
tp1961
sS'TEA  COFFEE-WHOLESALE'
p1962
(I74
g2
g3
tp1963
sS'L SUVERWARE CHESTS  DISPLAYS L'
p1964
(I49
g2
g3
tp1965
sS'BRASS FOUNDERS (SEE FOUNDERS-BRASS) BRASS GOODS  NOVELTIES (SEE ALSO FOUNDERS-BRASS, BRONZE  ALUMINUM)'
p1966
(I38
g2
g3
tp1967
sS'STORAGE'
p1968
(I100
S'STORAGE'
p1969
g9
tp1970
sS'WROUGHT IRON-GARDEN OMA- MENTS'
p1971
(I51
g2
g3
tp1972
sS'TEXTILE MTRS-YAM'
p1973
(I79
g2
g3
tp1974
sS"WATCHMAKERS' MATERIALS"
p1975
(I70
g2
g3
tp1976
sS"COLN DEALERS (SEE N UMISMATISTS) ' COKE-RETALL"
p1977
(I59
g2
g3
tp1978
sS'OOMMERCIAL ORG ANIZATIONS (SEE ASSOCIATIONS-BUSINESS) COMMERCIAL PAPER'
p1979
(I51
g2
g3
tp1980
sS'DISPLAY FORMS  FIXTURES'
p1981
(I94
S'DISPLAY FORMS AND FIXTURES'
p1982
g9
tp1983
sS'CONTRACTORS-LOADING  DIS CHARGING'
p1984
(I71
g2
g3
tp1985
sS'FLOUR DEALERS-RETALL'
p1986
(I83
g2
g3
tp1987
sS'ELECTRICAL SUPPLIES  EQUIP- MENT-DEALERS-WHOLESALE'
p1988
(I64
g2
g3
tp1989
sS"BUIL.DERS' FINISH"
p1990
(I64
g2
g3
tp1991
sS'ICE DEALERS'
p1992
(I91
S'ICE-DEALERS'
p1993
g9
tp1994
sS'NEWS DEALERS-WHOLESALE'
p1995
(I100
S'NEWS DEALERS-WHOLESALE'
p1996
g9
tp1997
sS'PLANING MILLS (SEE SAW MILLS) PLASTER'
p1998
(I48
g2
g3
tp1999
sS'MUSICLANS (SEE BANDS  ORCHESTRAS) MUTUAL INSURANCE'
p2000
(I51
g2
g3
tp2001
sS'BAKERS-WHOLESALE'
p2002
(I100
S'BAKERS-WHOLESALE'
p2003
g9
tp2004
sS'OIL BURNERS'
p2005
(I76
g2
g3
tp2006
sS'CHASE REGENT 2O9 POINT'
p2007
(I49
g2
g3
tp2008
sS'GRINDING WHEELS-MFRS (SEE ALSO ABRASIVES; ALSO MACH- INERY MFRS)'
p2009
(I47
g2
g3
tp2010
sS'KINDLINGS (SEE WOOD DEALERS) KITCHEN FURNISHINGS'
p2011
(I52
g2
g3
tp2012
sS"FFG'ANVAS PRODUCTS"
p2013
(I59
g2
g3
tp2014
sS'FREIGHT HANDLERS'
p2015
(I58
g2
g3
tp2016
sS'WIRE FENCING'
p2017
(I55
g2
g3
tp2018
sS'3BO ELMWOOD AV'
p2019
(I42
g2
g3
tp2020
sS'BRICK-COMMON'
p2021
(I56
g2
g3
tp2022
sS'GLASS VENTILATORS'
p2023
(I61
g2
g3
tp2024
sS'GROCERS-RETALL (SEE ALSO COMMISSION MER- CHANTS; ALSO MEATS-RETAIL)'
p2025
(I53
g2
g3
tp2026
sS'TRANSPORTATION-AUTO TRUCK'
p2027
(I67
g2
g3
tp2028
sS'YARN DEALERS-RETAIL'
p2029
(I84
g2
g3
tp2030
sS'ELECTRICAL EQUIPMENT  SUPPLIES'
p2031
(I95
S'ELECTRICAL EQUIPMENT AND SUPPLIES'
p2032
g9
tp2033
sS'PAPER RULERS'
p2034
(I65
g2
g3
tp2035
sS'AISTROLOGERS'
p2036
(I63
g2
g3
tp2037
sS'MARGARINE'
p2038
(I64
g2
g3
tp2039
sS'POUNDERS-IRON  STEEL'
p2040
(I56
g2
g3
tp2041
sS'GRANITE  MARBLE WORKERS (SEE ALSO MONUMENTAL WORK)'
p2042
(I46
g2
g3
tp2043
sS'OHICE PUMITURE'
p2044
(I60
g2
g3
tp2045
sS'REMNANTS-DEALERS'
p2046
(I75
g2
g3
tp2047
sS'TELECTRLC REFRIGERATION'
p2048
(I62
g2
g3
tp2049
sS'RADIATOR REPAIRERS-AUTOMOBILE'
p2050
(I62
g2
g3
tp2051
sS'MERCANTILE AGENCIES'
p2052
(I100
S'MERCANTILE AGENCIES'
p2053
g9
tp2054
sS'WHARVES (SEE MISCELLANEOUS DEPT)'
p2055
(I56
g2
g3
tp2056
sS"DMMS  DRUMMERS' SUPPLIES"
p2057
(I63
g2
g3
tp2058
sS'SHOE DEALERS-RETALL'
p2059
(I95
S'SHOE DEALERS-RETAIL'
p2060
g9
tp2061
sS'POLISH MANUFACTURERS'
p2062
(I84
g2
g3
tp2063
sS'STOVES  RANGES-RETALL'
p2064
(I71
g2
g3
tp2065
sS'INVESTMENT COUNSELORS'
p2066
(I92
S'INVESTMENT COUNSEL'
p2067
g9
tp2068
sS'LAUNDRIES'
p2069
(I100
S'LAUNDRIES'
p2070
g9
tp2071
sS'LUMBER-SOUTHERN YELLOW PINE'
p2072
(I50
g2
g3
tp2073
sS'BOILER MFRS'
p2074
(I71
g2
g3
tp2075
sS'FISH HATCHERIES'
p2076
(I56
g2
g3
tp2077
sS"STEAM PITTERS' SUPPLIES (SEE ALSO PLUMBING SUPPLIES)"
p2078
(I49
g2
g3
tp2079
sS'TRUSS MFRS  DEALERS'
p2080
(I63
g2
g3
tp2081
sS'CEMENT DEALERS'
p2082
(I81
g2
g3
tp2083
sS'DETECTLVES'
p2084
(I64
g2
g3
tp2085
sS'CHRIST OF LATTER DAY SAINTS L63 BELLEVUE AV'
p2086
(I46
g2
g3
tp2087
sS'AUTOMOBILE ACCESSORIES  PARTS -WHOLESALE  J OBBERS'
p2088
(I93
S'AUTOMOBILE ACCESSORIES and PARTS -WHOLESALE and JOBBERS'
p2089
g9
tp2090
sS'"\'WELDING-ELECTRIC  ACETYLENE'
p2091
(I57
g2
g3
tp2092
sS'BED SPRING MFRS'
p2093
(I67
g2
g3
tp2094
sS'PLUMBING SUPPLIES-MFRS'
p2095
(I85
g2
g3
tp2096
sS'STOVE PIPE  ELBOWS'
p2097
(I50
g2
g3
tp2098
sS'PAINTING CONTRACTORS'
p2099
(I68
g2
g3
tp2100
sS'BRICK MFRS'
p2101
(I64
g2
g3
tp2102
sS"LOANS-COLLATM'AL  SALARY (SEE ALSO BROKERS-MONEY; ALSO PAWN BROKERS)"
p2103
(I47
g2
g3
tp2104
sS'TYPEWRLTLNG MACHINES-DEALERS'
p2105
(I76
g2
g3
tp2106
sS'QUULDATORS'
p2107
(I63
g2
g3
tp2108
sS'PINS'
p2109
(I67
g2
g3
tp2110
sS', BROKERS-MONEY'
p2111
(I93
S'BROKERS-MONEY'
p2112
g9
tp2113
sS'LEATHER FINDINGS C (SEE ALSO SHOE FINDINGS)'
p2114
(I52
g2
g3
tp2115
sS'SAIE-LOCK EXPERTS'
p2116
(I55
g2
g3
tp2117
sS'TEXTILE MFRS-THREADS'
p2118
(I75
g2
g3
tp2119
sS'TTRE DEALERS'
p2120
(I77
g2
g3
tp2121
sS'BATTERY DEALERS  SERVICE'
p2122
(I94
S'BATTERY DEALERS AND SERVICE'
p2123
g9
tp2124
sS'AUTOMOBILE BODY MFRS'
p2125
(I84
g2
g3
tp2126
sS'DEAN'
p2127
(I60
g2
g3
tp2128
sS'IGNLTLON DEVIM  SYSTEMS'
p2129
(I55
g2
g3
tp2130
sS'MONUMENTAL WORKS'
p2131
(I97
S'MONUMENTAL WORK'
p2132
g9
tp2133
sS"SHIRTS, COLLARS  CUFFS LAUN- D'ERED"
p2134
(I48
g2
g3
tp2135
sS'STARCHOS'
p2136
(I63
g2
g3
tp2137
sS"OPTICAL GOODS-DEALCN'S"
p2138
(I75
g2
g3
tp2139
sS'WASHING MACHINES-DEALERS'
p2140
(I83
g2
g3
tp2141
sS'RULERS-PAPER'
p2142
(I64
g2
g3
tp2143
sS'STEVEDORES'
p2144
(I71
g2
g3
tp2145
sS'SKYLIGHTS'
p2146
(I57
g2
g3
tp2147
sS'ENGLNEERS-ELECTRICAL'
p2148
(I95
S'ENGINEERS-ELECTRICAL'
p2149
g9
tp2150
sS'UPHOLSTERERS (SEE ALSO FURNITURE REPAIRERS)'
p2151
(I55
g2
g3
tp2152
sS'AUTOMOBILE AG ENCIES-ACOM- MERCIAL CARS'
p2153
(I65
g2
g3
tp2154
sS'BICYCLE DEALERS-WHOLESALE '
p2155
(I83
g2
g3
tp2156
sS'GEARS'
p2157
(I67
g2
g3
tp2158
sS"BLUE  BL'ACK PRINTS"
p2159
(I73
g2
g3
tp2160
sS'PAPER BOX MFRS (SEE ALSO BOX MFRS-PAPER)'
p2161
(I46
g2
g3
tp2162
sS'GRAPHOPHONOS (SEE TALKING MACHINES) GRAVEL ROOFERS'
p2163
(I53
g2
g3
tp2164
sS'BOTTLE DEALERS'
p2165
(I79
g2
g3
tp2166
sS'DLRECTORY PUBLISHERS'
p2167
(I84
g2
g3
tp2168
sS'HARDWARE DEALERS-WHOLESALE  JOBBERS'
p2169
(I71
g2
g3
tp2170
sS'WOOLEN GOODS-JOBBERS'
p2171
(I58
g2
g3
tp2172
sS'SHIP CHANDLERS'
p2173
(I64
g2
g3
tp2174
sS'BEARINGS-BALL  ROLLER MFRS'
p2175
(I51
g2
g3
tp2176
sS'BRASS MANUFACTURERS'
p2177
(I89
g1955
g9
tp2178
sS'SEEDS  FERTILIZERS'
p2179
(I56
g2
g3
tp2180
sS'CHAIR CANERS (SEE ALSO UPHOLSTERERS)'
p2181
(I50
g2
g3
tp2182
sS'PILING CABINETS  SUPPLIES'
p2183
(I68
g2
g3
tp2184
sS'VENTILATOR MFRS'
p2185
(I67
g2
g3
tp2186
sS'GENERAL STORAGE'
p2187
(I64
g2
g3
tp2188
sS'MISCELLANEOUS'
p2189
(I65
g2
g3
tp2190
sS'PRINTERS-OFFSET'
p2191
(I70
g2
g3
tp2192
sS'MARINE BOILERS'
p2193
(I65
g2
g3
tp2194
sS'NEEDLE MFRS'
p2195
(I70
g2
g3
tp2196
sS'CONTRACTORS-ROAD'
p2197
(I100
S'CONTRACTORS-ROAD'
p2198
g9
tp2199
sS"GLAZLERS (SEE PAINTERS) 'GOLD"
p2200
(I50
g2
g3
tp2201
sS'OIL BURNER SERVICE'
p2202
(I77
g2
g3
tp2203
sS'WOOD DEAKRS'
p2204
(I64
g2
g3
tp2205
sS'MAUSOLEUM'
p2206
(I75
g2
g3
tp2207
sS'WAXES'
p2208
(I53
g2
g3
tp2209
sS'SLDING'
p2210
(I83
g2
g3
tp2211
sS'PHYSICAL CULTURE'
p2212
(I100
S'PHYSICAL CULTURE'
p2213
g9
tp2214
sS"MEN'S PURNISHLNGS-WHOLESALE"
p2215
(I75
g2
g3
tp2216
sS'L"RUSSET LEATHER'
p2217
(I60
g2
g3
tp2218
sS'CLOTHM PRESSERS  CLEANERS'
p2219
(I62
g2
g3
tp2220
sS'LITHOGRAPHERS'
p2221
(I100
S'LITHOGRAPHERS'
p2222
g9
tp2223
sS'"DRAWING SUPPLIES'
p2224
(I76
g2
g3
tp2225
sS'EMBALMERS'
p2226
(I75
g2
g3
tp2227
sS'EXTERMINATORS-BUG  VERMIN'
p2228
(I54
g2
g3
tp2229
sS'COKE-WHOLESALE'
p2230
(I80
g2
g3
tp2231
sS'ROOIERS  CONCRETERS'
p2232
(I62
g2
g3
tp2233
sS'FOUNDRY SUPPLIES  EQUIPMENT'
p2234
(I78
g2
g3
tp2235
sS'WAREHOUSEA-MERCHANDLSE (SEE ALSO STORAGE)'
p2236
(I63
g2
g3
tp2237
sS'PHOTO ENGRAVERS (SEE ALSO ENGRAVERS-PHOTO)'
p2238
(I53
g2
g3
tp2239
sS'NOTARIES PUBLIC'
p2240
(I100
S'NOTARIES PUBLIC'
p2241
g9
tp2242
sS'GARAGES (SEE AUTOMOBILE GARAGES) GARDENERS-LANDSCAPE (SEE ALSO LANDSCAPE ARCHITECTS  GARDENERS)'
p2243
(I44
g2
g3
tp2244
sS"I'LM-ERAL HOMES"
p2245
(I71
g2
g3
tp2246
sS'MOTORS (SEE DYNAMOS  MOTORS) MOULDINGS'
p2247
(I46
g2
g3
tp2248
sS'BRIDGE BUILDERS'
p2249
(I70
g2
g3
tp2250
sS'MOTION PICTURE THEATRES'
p2251
(I54
g2
g3
tp2252
sS'OFFICE SUPPLIES  EQUIPMENT'
p2253
(I95
S'OFFICE SUPPLIES AND EQUIPMENT'
p2254
g9
tp2255
sS'BEER  ALE-WHOLESALE AND RE- TALL'
p2256
(I66
g2
g3
tp2257
sS'ROOFING-TLN'
p2258
(I54
g2
g3
tp2259
sS'DIETITIANS'
p2260
(I67
g2
g3
tp2261
sS'ATTORNEYS-AT-LAW'
p2262
(I97
S'ATTORNEYS-AT- LAW'
p2263
g9
tp2264
sS'BOILER  RADIATOR MFRS'
p2265
(I64
g2
g3
tp2266
sS'ANTOMOBLLE BODY REPAIRERS'
p2267
(I92
S'AUTOMOBILE BODY REPAIRERS'
p2268
g9
tp2269
sS'UNLT HEATERS  CONVECTORS'
p2270
(I57
g2
g3
tp2271
sS'DISTILLERS  RECTIFIERS'
p2272
(I65
g2
g3
tp2273
sS'CLOCK MFRS'
p2274
(I64
g2
g3
tp2275
sS'MATTERS'
p2276
(I71
g2
g3
tp2277
sS'EMY AV'
p2278
(I43
g2
g3
tp2279
sS'RUG MFRS'
p2280
(I70
g2
g3
tp2281
sS'STONE DEALERS'
p2282
(I81
g2
g3
tp2283
sS'SPOOL  BOBBIN MFRS'
p2284
(I59
g2
g3
tp2285
sS'MATTRESS MFRS (SEE ALSO BEDDING MFRS)'
p2286
(I47
g2
g3
tp2287
sS'BEDDING MFRS'
p2288
(I67
g2
g3
tp2289
sS'INSTALLMENT GOODS'
p2290
(I63
g2
g3
tp2291
sS'LABORATORIES'
p2292
(I100
S'LABORATORIES'
p2293
g9
tp2294
sS'FIRE APPARATUS  SUPPLIES'
p2295
(I68
g2
g3
tp2296
sS'TAXIDERMISTS'
p2297
(I63
g2
g3
tp2298
sS'CHRISTIAN SCLEMCE PRACTITIONERS'
p2299
(I54
g2
g3
tp2300
sS'AUTOMOBILE RENTING'
p2301
(I100
S'AUTOMOBILE RENTING'
p2302
g9
tp2303
sS"GENTS' FURNISHINGS GOODS (SEE MEN'S FURNISHINGS GOODS; ALSO HATS, CAPS C) GIFT SHOPS"
p2304
(I44
g2
g3
tp2305
sS'PLUMBERS (SEE ALSO STEAM FITTERS)'
p2306
(I53
g2
g3
tp2307
sS'GEAR BLANKS FOR GEARS'
p2308
(I55
g2
g3
tp2309
sS'CRANSTON ISTON'
p2310
(I59
g2
g3
tp2311
sS'BREWERS'
p2312
(I71
g2
g3
tp2313
sS" 'SODA  MINERAL WATER MFRS (SEE BOTTLERS; ALSO MINERAL SPRING WATER) SOLDER  SOLDERING PLUX-ES-MFRS"
p2314
(I42
g2
g3
tp2315
sS'DOORS, SASH  TRIM (SEE ALSO SASH, BLINDS  DOORS)'
p2316
(I44
g2
g3
tp2317
sS'RALLRBAD TICKETS'
p2318
(I55
g2
g3
tp2319
sS'WELL DRILLERS  BORERS'
p2320
(I70
g2
g3
tp2321
sS'MACHINERY DEALERS'
p2322
(I100
S'MACHINERY DEALERS'
p2323
g9
tp2324
sS'SASH, DOORS  BLINDS'
p2325
(I62
g2
g3
tp2326
sS'BURGLARY INSURANCE'
p2327
(I67
g2
g3
tp2328
sS'OLEANSERS--BLANKETS  CUR- TAINS'
p2329
(I50
g2
g3
tp2330
sS'REFRIGERATION-ELECTRIC'
p2331
(I62
g2
g3
tp2332
sS'AUTOMOBILE DEALERS--USED CARS'
p2333
(I98
S'AUTOMOBILE DEALERS-USED CARS'
p2334
g9
tp2335
sS'CUTLERY DEALERS-RETALL'
p2336
(I82
g2
g3
tp2337
sS'STONE CUTTERS  DEAIERS'
p2338
(I62
g2
g3
tp2339
sS'VALUABLES TRANSPORTED'
p2340
(I53
g2
g3
tp2341
sS'INSURANCE COMPANIES-PIRE'
p2342
(I88
g1200
g9
tp2343
sS'WHEEL CHAIRS  HOSPITAL BEDS'
p2344
(I50
g2
g3
tp2345
sS'VACUUM GLEANERS-DEALERS'
p2346
(I62
g2
g3
tp2347
sS'COLD STORAGE'
p2348
(I74
g2
g3
tp2349
sS'INSURANCE COMPANJW-AUTO- MOBILE'
p2350
(I72
g2
g3
tp2351
sS'PLORISTS-RETALL'
p2352
(I87
S'FLORISTS-RETAIL'
p2353
g9
tp2354
sS'JEWELERS, TOOLS  MACHINERY'
p2355
(I59
g2
g3
tp2356
sS'AUTOMOBILE DEALERS-GOMMER- . CIAL CARS  TRUCKS'
p2357
(I68
g2
g3
tp2358
sS'WIRE RAILINGS'
p2359
(I64
g2
g3
tp2360
sS"CLOTHING MFRS-WOMEN'S "
p2361
(I65
g2
g3
tp2362
sS'OILS-CASTOR, VGOCOANUT, LIN- SEEDRED'
p2363
(I68
g2
g3
tp2364
sS'APRONS, JACKETS O-MIRS'
p2365
(I54
g2
g3
tp2366
sS'DLAMOND J EWELRY'
p2367
(I52
g2
g3
tp2368
sS'PUNERAL CHAPELS'
p2369
(I71
g2
g3
tp2370
sS'PASTENERS'
p2371
(I75
g2
g3
tp2372
sS'RCRUISES  TOURS'
p2373
(I59
g2
g3
tp2374
sS'BROKERS-LOAN'
p2375
(I80
g2
g3
tp2376
sS'APPRALSERS OF REAL ESTATE'
p2377
(I62
g2
g3
tp2378
sS'SERVICE STATIONS'
p2379
(I74
g2
g3
tp2380
sS'PRLNTING MACHINERY-TEXTILE'
p2381
(I61
g2
g3
tp2382
sS'LOANS-PNRNLTURE  HOUSE- HOLD GOODS'
p2383
(I64
g2
g3
tp2384
sS'NLCKEL PLATERS (SEE ALSO PLATERS)'
p2385
(I50
g2
g3
tp2386
sS'VLTRLNABLE ENAMELS'
p2387
(I55
g2
g3
tp2388
sS'MILL ENGINEERS (SEE ENGINEERS-MILL) MILL SOAPS'
p2389
(I43
g2
g3
tp2390
sS'ROOTLNG MATERIALS  ASPHALT SHINGLES'
p2391
(I64
g2
g3
tp2392
sS'METAL GARAGES-MFRS'
p2393
(I71
g2
g3
tp2394
sS'RUBBER TIRES'
p2395
(I70
g2
g3
tp2396
sS'OOPPER WIRE  CABLE MFRS'
p2397
(I62
g2
g3
tp2398
sS'GUT STONE CONTRACTORS'
p2399
(I67
g2
g3
tp2400
sS'HAT CLEANERS  BLOCKERS'
p2401
(I65
g2
g3
tp2402
sS'REED  LOOM HARNESS MFRS'
p2403
(I58
g2
g3
tp2404
sS'ASBESTOS GOODS  MATERIALS'
p2405
(I65
g2
g3
tp2406
sS'JEWELERS-RETAIL'
p2407
(I100
S'JEWELERS-RETAIL'
p2408
g9
tp2409
sS'SWEEP SMELTERS'
p2410
(I61
g2
g3
tp2411
sS'CURTAINS  DRAPERIES'
p2412
(I93
S'CURTAINS AND DRAPERIES'
p2413
g9
tp2414
sS'CEMETERIES'
p2415
(I100
S'CEMETERIES'
p2416
g9
tp2417
sS'KNIT GOODS-WHOLESALE  JOB- HERS'
p2418
(I64
g2
g3
tp2419
sS'CHONSULS-PKOREIGN'
p2420
(I59
g2
g3
tp2421
sS'LEATHER-ARTLFICLAL MFRS'
p2422
(I61
g2
g3
tp2423
sS'PARQUETRY FLOORING (SEE FLOORS) PATENT ATTORNEYS'
p2424
(I50
g2
g3
tp2425
sS'MEDICINE MFRS-PATENT  PRO- PRIETARY (SEE ALSO CHEMISTS-MFG)'
p2426
(I43
g2
g3
tp2427
sS'MACHINERY MFRS'
p2428
(I100
S'MACHINERY MFRS'
p2429
g9
tp2430
sS'MALLETS-RAW HIDE'
p2431
(I57
g2
g3
tp2432
sS'ANALYTICAL CHEMISTS (SEE CHEMISTS) ANIMAL  BIRD HOSPITALS'
p2433
(I51
g2
g3
tp2434
sS'SHOOTING, GALLERIES'
p2435
(I69
g2
g3
tp2436
sS'"\'ALKALL'
p2437
(I46
g2
g3
tp2438
sS'HEATING APPARATUS  APPLI- ANCES (SEE ALSO STEAM  HOT WATER HEATING APPARATUS)'
p2439
(I53
g2
g3
tp2440
sS"MASONS' BUILDING MATERIALS"
p2441
(I64
g2
g3
tp2442
sS'TYPESETTING-MACHLNE COMPOSI- TLON'
p2443
(I48
g2
g3
tp2444
sS'TLNSMLTHS (SEE ALSO SHEET METAL WORKERS)'
p2445
(I64
g2
g3
tp2446
sS'WOODENWARE MFRS'
p2447
(I71
g2
g3
tp2448
sS'STEEL BARS-STEEL  STEEL PRO- DUCTS'
p2449
(I67
g2
g3
tp2450
sS'SPHMLNG TRAVELERS'
p2451
(I63
g2
g3
tp2452
sS'BUTTERMILK'
p2453
(I63
g2
g3
tp2454
sS'AWNINGS  TENTS-MFRS  DEALM'
p2455
(I54
g2
g3
tp2456
sS'LANDSCAPE GARDENERS'
p2457
(I100
S'LANDSCAPE GARDENERS'
p2458
g9
tp2459
sS'COTTON DEALERS (SEE ALSO BROKERS-COTTON)'
p2460
(I56
g2
g3
tp2461
sS'SEWING MACHINE ATTACHMENTS  SUPPLIES'
p2462
(I66
g2
g3
tp2463
sS'CAN MANUFACTURERS'
p2464
(I94
g1270
g9
tp2465
sS'ELEVATOR MFRS'
p2466
(I64
g2
g3
tp2467
sS'TEXTILE MIRS-WOOLEN  WORSTED GOODS'
p2468
(I54
g2
g3
tp2469
sS'SAND  GRAVEL DEALERS'
p2470
(I71
g2
g3
tp2471
sS'OIMPORTERS-LIQUORS'
p2472
(I67
g2
g3
tp2473
sS'BOND DEALERS'
p2474
(I77
g2
g3
tp2475
sS'CONFRECTIONERY  ICE CREAM- RETAIL (SEE ALSO FRUIT DEALERS)'
p2476
(I53
g2
g3
tp2477
sS'QUUORS-RETALL'
p2478
(I65
g2
g3
tp2479
sS"AUTOMOBILE REPAIRIN'G"
p2480
(I98
S'AUTOMOBILE REPAIRING'
p2481
g9
tp2482
sS'ROOILNG IRON-GALVANIZED  CORRUGATED'
p2483
(I47
g2
g3
tp2484
sS'GO-OPERATIVE BANKS'
p2485
(I61
g2
g3
tp2486
sS'MILLINERS'
p2487
(I100
S'MILLINERS'
p2488
g9
tp2489
sS'MUSIC DEALERS-SHEET'
p2490
(I67
g2
g3
tp2491
sS'MINSTER'
p2492
(I67
g2
g3
tp2493
sS'MERCHANT TAILORS (SEE ALSO TAILORS)'
p2494
(I52
g2
g3
tp2495
sS'ELECTRLCAL CONSTRUCTION'
p2496
(I80
g2
g3
tp2497
sS'OOMMERCIAL COLLEGE'
p2498
(I65
g2
g3
tp2499
sS'DIAMONDS  PRECIOUS STDNES (SEE ALSO J EWELERS)'
p2500
(I67
g2
g3
tp2501
sS'MEETING'
p2502
(I63
g2
g3
tp2503
sS'LABORATORY APPARATUS  SUP'
p2504
(I54
g2
g3
tp2505
sS'I.LME, BRICK, CEMENT SAND, HAIR, PLASTER C'
p2506
(I51
g2
g3
tp2507
sS'LAUNDRIES-CHINESE'
p2508
(I70
g2
g3
tp2509
sS'PAILS  ASH CANS-GALVANIZED'
p2510
(I52
g2
g3
tp2511
sS'PUBLICATIONS'
p2512
(I100
S'PUBLICATIONS'
p2513
g9
tp2514
sS'GOLF CLUBS  COURSES'
p2515
(I53
g2
g3
tp2516
sS'SCALE MFRS  DEALERS'
p2517
(I67
g2
g3
tp2518
sS'N OVELTLES-MIRS'
p2519
(I83
g2
g3
tp2520
sS'BONDS-INSURANCE'
p2521
(I75
g2
g3
tp2522
sS'POOD CHEMISTS'
p2523
(I64
g2
g3
tp2524
sS'CAP MFRS (SEE ALSO HAT MFRS; ALSO UNI- FORM MFRS)'
p2525
(I44
g2
g3
tp2526
sS'LODGING HOUSES'
p2527
(I100
S'LODGING HOUSES'
p2528
g9
tp2529
sS'AUTOMOBLLES TO RENT'
p2530
(I76
g2
g3
tp2531
sS'MOTOR TRANSPORTATION'
p2532
(I70
g2
g3
tp2533
sS'NEWSPAPM (SEE ALSO PUBLICATIONS)'
p2534
(I55
g2
g3
tp2535
sS'APARTMENT BUILDINGS'
p2536
(I100
S'APARTMENT BUILDINGS'
p2537
g9
tp2538
sS"MEN'S FURNISHINGS-RETAIL (SEE ALSO CLOTHING DEALERS- MEN'S  BOYS'-RETAIL)"
p2539
(I51
g2
g3
tp2540
sS'MALLING BOXES  TUBES'
p2541
(I54
g2
g3
tp2542
sS'RING TRAVELERS'
p2543
(I64
g2
g3
tp2544
sS'LANGUAGE TEACHERS'
p2545
(I73
g2
g3
tp2546
sS'SHEET LEAD'
p2547
(I58
g2
g3
tp2548
sS'ASSAYERS  REFINERS (SEE REFINERS) ASSOCIATIONS  CLUBS-COM- MERCLAL'
p2549
(I42
g2
g3
tp2550
sS'BROKERS-CUSTOMS'
p2551
(I86
g302
g9
tp2552
sS'TEXTILE MFRS-SILK'
p2553
(I83
g2
g3
tp2554
sS'ROPE (SEE CORDAGE  TWINE) ROSARIES'
p2555
(I48
g2
g3
tp2556
sS'CLOTHING MIRS-MEMS  BOYS'
p2557
(I56
g2
g3
tp2558
sS'INSURANCE COMPANIES-TLTLE'
p2559
(I86
g1200
g9
tp2560
sS"L7MT'ZTAL FINISHING"
p2561
(I55
g2
g3
tp2562
sS'METAL SPINNER'
p2563
(I74
g2
g3
tp2564
sS'ELASTIC GOODS MFRS'
p2565
(I78
g2
g3
tp2566
sS"CARPET CLEANERS  LAYERS (SEE RUG  CARPET CLEANERS) 'GARPET LINING"
p2567
(I50
g2
g3
tp2568
sS'SMELTERS  REFINERS (SEE ALSO REIINERS  SMELTERS)'
p2569
(I52
g2
g3
tp2570
sS'ROOFING MATERIALS  SUPPLIES'
p2571
(I79
g2
g3
tp2572
sS'SHEET METAL WORKERS'
p2573
(I100
S'SHEET METAL WORKERS'
p2574
g9
tp2575
sS'WATER TUBE BOILERS'
p2576
(I54
g2
g3
tp2577
sS'ELMWOOD AV'
p2578
(I46
g2
g3
tp2579
sS'REAL ESTATE DEVELOPERS'
p2580
(I71
g2
g3
tp2581
sS'SUBURBAN PROPERTY'
p2582
(I59
g2
g3
tp2583
sS'BOX DEALERS'
p2584
(I78
g2
g3
tp2585
sS'LUBRICATLNG OILS (SEE OLL DEALERS) LUMBER-HARDWOOD'
p2586
(I49
g2
g3
tp2587
sS'GUMMED LABELS'
p2588
(I55
g2
g3
tp2589
sS'BROKERS-PAWN'
p2590
(I74
g2
g3
tp2591
sS'ANNEALING'
p2592
(I59
g2
g3
tp2593
sS'HARDWARE MFRS'
p2594
(I69
g2
g3
tp2595
sS'BOTTLERS-CARBONATED BEVERAGES'
p2596
(I100
S'BOTTLERS-CARBONATED BEVERAGES'
p2597
g9
tp2598
sS'STEEL  STEEL PRODUCTS-DEALERS (SEE ALSO IRON  STEEL DEALERS)'
p2599
(I63
g2
g3
tp2600
sS'MIDWIVES'
p2601
(I59
g2
g3
tp2602
sS'LUMBER-RETALL'
p2603
(I92
S'LUMBER-RETAIL'
p2604
g9
tp2605
sS'VENTLLATORS-WINDOW'
p2606
(I54
g2
g3
tp2607
sS'4LB WASH'
p2608
(I47
g2
g3
tp2609
sS'PAINT, OIL  VARNISH DEALERS-- RETAIL (SEE ALSO PAINT MANUFACTURERS)'
p2610
(I51
g2
g3
tp2611
sS'DIE MILLING MACHINES'
p2612
(I74
g2
g3
tp2613
sS'INVESTMENT SECURITIES (SEE ALSO BROKERS-INVESTMENT)'
p2614
(I69
g2
g3
tp2615
sS'NOTIONS-WHOLESALE'
p2616
(I83
g2
g3
tp2617
sS'TRAPS, DRUMS  DRUMMERS SUPPLIES'
p2618
(I59
g2
g3
tp2619
sS'GHEMICALS-RETALL  WHOLESALE'
p2620
(I78
g2
g3
tp2621
sS'ENTERTAINERS'
p2622
(I70
g2
g3
tp2623
sS'GALVANIZING'
p2624
(I70
g2
g3
tp2625
sS'LOOM PICKERS-RAW HIDE'
p2626
(I51
g2
g3
tp2627
sS'WAREHOUSOS--HONSEHOLD GOODS'
p2628
(I69
g2
g3
tp2629
sS'TMNKS  TRAVELING BAGS- RETAIL'
p2630
(I60
g2
g3
tp2631
sS'MENDING TISSUES'
p2632
(I65
g2
g3
tp2633
sS'STENOGRAPHERS-PUBLLC'
p2634
(I95
S'STENOGRAPHERS-PUBLIC'
p2635
g9
tp2636
sS'ELECTRICAL EQUIPMENT  SUP- PUW-DEALERS'
p2637
(I86
S'ELECTRICAL EQUIPMENT AND SUPPLIES-DEALERS'
p2638
g9
tp2639
sS'MALT  HOPS'
p2640
(I64
g2
g3
tp2641
sS'SCREEN DOORS  WINDOWS'
p2642
(I77
g2
g3
tp2643
sS'PRODUCE DEALERS-WHOLESALE'
p2644
(I100
S'PRODUCE DEALERS-WHOLESALE'
p2645
g9
tp2646
sS'INSULATED WIRE MACHINERY'
p2647
(I59
g2
g3
tp2648
sS'MAP MOUNTERS'
p2649
(I67
g2
g3
tp2650
sS'RADIATOR MIRS-AUTOMOBLLE'
p2651
(I60
g2
g3
tp2652
sS'GROCEFS-WHOLESALE'
p2653
(I94
S'GROCERS-WHOLESALE'
p2654
g9
tp2655
sS'POREIGN EXCHANGE'
p2656
(I59
g2
g3
tp2657
sS'ROOTERS'
p2658
(I86
S'ROOFERS'
p2659
g9
tp2660
sS'PLPE FITTINGS, HANGERS, VALVES  SPECIALTH'
p2661
(I47
g2
g3
tp2662
sS'DICTATMG MACHINES'
p2663
(I91
S'DICTATING MACHINES'
p2664
g9
tp2665
sS'SIMS CAMP NO LO, BENEFIT COR MEETING'
p2666
(I47
g2
g3
tp2667
sS"WAD PRESF' LAUNDRY SERVICE"
p2668
(I70
g2
g3
tp2669
sS'ELECTRIC NEEDLE TREATMENT (SEE PHYSIO THERAPY) ELECTRIC RAILWAYS'
p2670
(I49
g2
g3
tp2671
sS'INTERPRETERS'
p2672
(I67
g2
g3
tp2673
sS'ASBESTOS ROOFERS'
p2674
(I61
g2
g3
tp2675
sS'PLRE INSURANCE'
p2676
(I78
g2
g3
tp2677
sS'WEYBOSSET (WEYBOSSET'
p2678
(I45
g2
g3
tp2679
sS'HOUSE FURNISHING GOODS-RETALL'
p2680
(I95
S'HOUSE FURNISHING GOODS- RETAIL'
p2681
g9
tp2682
sS'TRANSPORTATION INSURANCE'
p2683
(I82
g2
g3
tp2684
sS'PRINTERS-BOOK  COMMERCIAL'
p2685
(I94
S'PRINTERS-BOOK AND COMMERCIAL'
p2686
g9
tp2687
sS'LWBOARDING  BOOMING HOUSES (SEE LODGING HOUSES) BOARDS OF TRADE (SEE ASSOCIATIONS-BUSINESS) B-OATS-DEALERS'
p2688
(I37
g2
g3
tp2689
sS'WIGS  BEARDS'
p2690
(I58
g2
g3
tp2691
sS'WIAYBOSSET'
p2692
(I47
g2
g3
tp2693
sS'FUR DEALERS-RAW'
p2694
(I74
g2
g3
tp2695
sS'TEXTILE MTRS-COTTON GOODS'
p2696
(I59
g2
g3
tp2697
sS'ENARAVERS-JEWELRY'
p2698
(I94
S'ENGRAVERS-JEWELRY'
p2699
g9
tp2700
sS' STEAM SHOVEL EXCAVATING'
p2701
(I51
g2
g3
tp2702
sS"PERLODLCALS (SEE NEWS DEALERS) 'PERSONAL LOANS"
p2703
(I52
g2
g3
tp2704
sS'AUTOMOBLLE FINANCING'
p2705
(I75
g2
g3
tp2706
sS'CLINICS'
p2707
(I100
S'CLINICS'
p2708
g9
tp2709
sS"SHLP AGENTS '(SEE ALSO TRANSPORTATION LINES)"
p2710
(I63
g2
g3
tp2711
sS'RADIO SETS  PARTS-MFRS'
p2712
(I61
g2
g3
tp2713
sS'BROKERS-BUSLNOSS'
p2714
(I67
g2
g3
tp2715
sS'GASOLINE  OLL SERVICE STATIONS'
p2716
(I72
g2
g3
tp2717
sS'OFFICE 34 FENNER'
p2718
(I48
g2
g3
tp2719
sS'PLRE BRICK  FIRE CLAY'
p2720
(I56
g2
g3
tp2721
sS'LARD AV'
p2722
(I53
g2
g3
tp2723
sS'POLDLNG BOX MANUFACTURERS'
p2724
(I81
g2
g3
tp2725
sS'SALLMAKERS'
p2726
(I67
g2
g3
tp2727
sS'HEALTH INVENTORY'
p2728
(I55
g2
g3
tp2729
sS'CUSTOM HOUSE BROKERS'
p2730
(I60
g2
g3
tp2731
sS"WOMEN'S FURNISHING GOODS"
p2732
(I71
g2
g3
tp2733
sS'AUCTIONEERS'
p2734
(I100
S'AUCTIONEERS'
p2735
g9
tp2736
sS'CONTRACTORS-EXCAVATING  GRADING'
p2737
(I73
g2
g3
tp2738
sS'POLISHIVNG GRAINS'
p2739
(I69
g2
g3
tp2740
sS'STEEL  IRON (SEE ALSO IRON  STEEL DEALERS)'
p2741
(I62
g2
g3
tp2742
sS'PAINT  VARNISH CAN MFRS'
p2743
(I67
g2
g3
tp2744
sS'GAS LIGHT COMPANY'
p2745
(I73
g2
g3
tp2746
sS'WOOL COMBS'
p2747
(I63
g2
g3
tp2748
sS'TRAFFIC BUREAUS  MANAGERS'
p2749
(I58
g2
g3
tp2750
sS'CHAIN MFRS'
p2751
(I82
g2
g3
tp2752
sS'TANNERS  CURRIERS'
p2753
(I63
g2
g3
tp2754
sS'BILLIARD ROOM SUPPLIES'
p2755
(I100
S'BILLIARD ROOM SUPPLIES'
p2756
g9
tp2757
sS'OPTICIANS-WHOLESALE'
p2758
(I76
g2
g3
tp2759
sS'TEXTILE MFRS-KNIT GOODS'
p2760
(I69
g2
g3
tp2761
sS'INDLNO  INDIGO EXTRACTS'
p2762
(I51
g2
g3
tp2763
sS"PLASTERERS' ORNAMENTS-MODEL- ERS  GAMERS"
p2764
(I51
g2
g3
tp2765
sS'MASKS'
p2766
(I67
g2
g3
tp2767
sS'INSURANCE COMPANIES-JCASUALTY'
p2768
(I79
g2
g3
tp2769
sS'MUSIC TEACHERS'
p2770
(I100
S'MUSIC TEACHERS'
p2771
g9
tp2772
sS"I'LLLING STATIONS"
p2773
(I71
g2
g3
tp2774
sS'TANK BUILDERS'
p2775
(I76
g2
g3
tp2776
sS"LI'TRALDE MARKS"
p2777
(I57
g2
g3
tp2778
sS'VINEGAR MFRS'
p2779
(I69
g2
g3
tp2780
sS'DISINFECTANT MFRS'
p2781
(I59
g2
g3
tp2782
sS'HARDWARE DEALERS-RETALL'
p2783
(I96
S'HARDWARE DEALERS-RETAIL'
p2784
g9
tp2785
sS'RUBBER GOODS MFRS'
p2786
(I81
g2
g3
tp2787
sS'TATTOOING'
p2788
(I100
S'TATTOOING'
p2789
g9
tp2790
sS"PRINTERS' SUPPLIES  EQUIPMENT"
p2791
(I76
g2
g3
tp2792
sS'47O, 2LO BWAY'
p2793
(I42
g2
g3
tp2794
sS'SILVERSMITHS'
p2795
(I100
S'SILVERSMITHS'
p2796
g9
tp2797
sS'OILS  LUBRICANTS-WHOLESALE'
p2798
(I78
g2
g3
tp2799
sS'TE\nR,\nB AV'
p2800
(I44
g2
g3
tp2801
sS'CALENDAR MFRS'
p2802
(I72
g2
g3
tp2803
sS'ANBER-WHOLESALE'
p2804
(I84
g2
g3
tp2805
sS'IRON PURRLNG  METAL LATHING'
p2806
(I49
g2
g3
tp2807
sS'MORTGAGE BROKERS'
p2808
(I73
g2
g3
tp2809
sS'BEAUTY SHOP EQUIPMENT  SUP- PLIES'
p2810
(I79
g2
g3
tp2811
sS'COAL TAR PRODUCTS'
p2812
(I67
g2
g3
tp2813
sS'OYSTER GAN MFRS'
p2814
(I65
g2
g3
tp2815
sS'WESTMINSTER'
p2816
(I79
g2
g3
tp2817
sS'REAL ESTATE (SEE ALSO BROKERS-REAL ESTATE; ALSO LAND COMPANIES) ,'
p2818
(I57
g2
g3
tp2819
sS'PRLNTERS-LABEL'
p2820
(I64
g2
g3
tp2821
sS'HOMES  ASYLUM'
p2822
(I87
S'HOMES and ASYLUMS'
p2823
g9
tp2824
sS'TWISTER TRAVELERS'
p2825
(I59
g2
g3
tp2826
sS'OLL HEATERS'
p2827
(I67
g2
g3
tp2828
sS'CONFECTIONERY-WHOL  J OBBERS'
p2829
(I78
g2
g3
tp2830
sS'CONTRACTORS-PLOOR SURFACING'
p2831
(I96
S'CONTRACTORS-FLOOR SURFACING'
p2832
g9
tp2833
sS'MILL SUPPLIES'
p2834
(I100
S'MILL SUPPLIES'
p2835
g9
tp2836
sS'GALVANLZED SHEET IRON ASH CANS  PAILS'
p2837
(I49
g2
g3
tp2838
sS'MAS-ONS-CONTRACTORS (SEE ALSO CONTRACTORS-MASON)'
p2839
(I55
g2
g3
tp2840
sS'VULCANLTE SHINGLES  ROLL ROOTING'
p2841
(I50
g2
g3
tp2842
sS'CONTRACTOERS-BUILDING- GENERAL'
p2843
(I98
S'CONTRACTORS-BUILDING- GENERAL'
p2844
g9
tp2845
s.